---
triple:          'arm64-apple-darwin'
binary-path:     './bin/helloworld'
relocations:
  - { offsetInCU: 0x49, offset: 0x49, size: 0x8, addend: 0x0, symName: __ZN3xpf4mathL13s_lerpPoints2E, symObjAddr: 0x156310, symBinAddr: 0x100174268, symSize: 0x0 }
  - { offsetInCU: 0x62, offset: 0x62, size: 0x8, addend: 0x0, symName: __ZN3xpf4mathL14s_lerpPoints10E, symObjAddr: 0x156328, symBinAddr: 0x100174280, symSize: 0x0 }
  - { offsetInCU: 0x7B, offset: 0x7B, size: 0x8, addend: 0x0, symName: __ZN3xpf4mathL14s_lerpPoints20E, symObjAddr: 0x156340, symBinAddr: 0x100174298, symSize: 0x0 }
  - { offsetInCU: 0x94, offset: 0x94, size: 0x8, addend: 0x0, symName: __ZN3xpf4mathL14s_lerpPoints40E, symObjAddr: 0x156358, symBinAddr: 0x1001742B0, symSize: 0x0 }
  - { offsetInCU: 0xAD, offset: 0xAD, size: 0x8, addend: 0x0, symName: __ZN3xpf4mathL15s_lerpPoints200E, symObjAddr: 0x156370, symBinAddr: 0x1001742C8, symSize: 0x0 }
  - { offsetInCU: 0xCA, offset: 0xCA, size: 0x8, addend: 0x0, symName: __ZN3xpf4math21calculate_lerp_pointsEj, symObjAddr: 0x0, symBinAddr: 0x100004448, symSize: 0x150 }
  - { offsetInCU: 0x159, offset: 0x159, size: 0x8, addend: 0x0, symName: __ZN3xpf4math14lerp_quadraticINS_4v2_tEEET_S3_S3_S3_NS_13lerp_intervalE, symObjAddr: 0x54D8, symBinAddr: 0x100009920, symSize: 0x10C }
  - { offsetInCU: 0x1B8, offset: 0x1B8, size: 0x8, addend: 0x0, symName: __ZN3xpf4math12is_less_thanEff, symObjAddr: 0x55E4, symBinAddr: 0x100009A2C, symSize: 0x64 }
  - { offsetInCU: 0x1F2, offset: 0x1F2, size: 0x8, addend: 0x0, symName: __ZN3xpf4math13is_negligibleEf, symObjAddr: 0x56E4, symBinAddr: 0x100009B2C, symSize: 0x60 }
  - { offsetInCU: 0x21E, offset: 0x21E, size: 0x8, addend: 0x0, symName: __ZN3xpf4math12inverse_lerpIfEET_S2_S2_f, symObjAddr: 0xEB54, symBinAddr: 0x100012F9C, symSize: 0x34 }
  - { offsetInCU: 0x26F, offset: 0x26F, size: 0x8, addend: 0x0, symName: __ZN3xpf4math4lerpIfEET_S2_S2_f, symObjAddr: 0xEB88, symBinAddr: 0x100012FD0, symSize: 0x30 }
  - { offsetInCU: 0x2C0, offset: 0x2C0, size: 0x8, addend: 0x0, symName: __ZN3xpf4math14lerp_quadraticIfEET_S2_S2_S2_f, symObjAddr: 0x112B4, symBinAddr: 0x1000156FC, symSize: 0x74 }
  - { offsetInCU: 0x54F3, offset: 0x54F3, size: 0x8, addend: 0x0, symName: __ZN3xpfplEPKcNSt3__117basic_string_viewIcNS2_11char_traitsIcEEEE, symObjAddr: 0x7AE8, symBinAddr: 0x10000BF30, symSize: 0x90 }
  - { offsetInCU: 0xAED4, offset: 0xAED4, size: 0x8, addend: 0x0, symName: '__ZNSt3__110__function10__not_nullB8ue170006IZZ9test_fontRN3xpf9IRendererEENK3$_0clES4_EUlvE_EEbRKT_', symObjAddr: 0x5F94, symBinAddr: 0x10000A3DC, symSize: 0x18 }
  - { offsetInCU: 0xAF05, offset: 0xAF05, size: 0x8, addend: 0x0, symName: '__ZNSt3__110__function10__not_nullB8ue170006IZZ9test_fontRN3xpf9IRendererEENK3$_0clES4_EUlvE0_EEbRKT_', symObjAddr: 0xD22C, symBinAddr: 0x100011674, symSize: 0x18 }
  - { offsetInCU: 0xAF36, offset: 0xAF36, size: 0x8, addend: 0x0, symName: '__ZNSt3__110__function10__not_nullB8ue170006IZZ9test_fontRN3xpf9IRendererEENK3$_0clES4_EUlvE1_EEbRKT_', symObjAddr: 0xF648, symBinAddr: 0x100013A90, symSize: 0x18 }
  - { offsetInCU: 0x2DDEE, offset: 0x2DDEE, size: 0x8, addend: 0x0, symName: __ZNSt3__17advanceB8ue170006IPNS_12basic_stringIcNS_11char_traitsIcEENS_9allocatorIcEEEEllvEEvRT_T0_, symObjAddr: 0x90DC, symBinAddr: 0x10000D524, symSize: 0x38 }
  - { offsetInCU: 0x2E06F, offset: 0x2E06F, size: 0x8, addend: 0x0, symName: __ZNSt3__17advanceB8ue170006INS_16reverse_iteratorIPNS_12basic_stringIcNS_11char_traitsIcEENS_9allocatorIcEEEEEEllvEEvRT_T0_, symObjAddr: 0x94B0, symBinAddr: 0x10000D8F8, symSize: 0x38 }
  - { offsetInCU: 0x2E0DB, offset: 0x2E0DB, size: 0x8, addend: 0x0, symName: __ZNSt3__124__put_character_sequenceB8ue170006IcNS_11char_traitsIcEEEERNS_13basic_ostreamIT_T0_EES7_PKS4_m, symObjAddr: 0x97A4, symBinAddr: 0x10000DBEC, symSize: 0x1EC }
  - { offsetInCU: 0x2EF5C, offset: 0x2EF5C, size: 0x8, addend: 0x0, symName: __ZNSt3__17advanceB8ue170006IPhllvEEvRT_T0_, symObjAddr: 0xA9B8, symBinAddr: 0x10000EE00, symSize: 0x38 }
  - { offsetInCU: 0x3282F, offset: 0x3282F, size: 0x8, addend: 0x0, symName: __ZNSt3__13getB8ue170006ILm0EffEEONS_13tuple_elementIXT_ENS_4pairIT0_T1_EEE4typeEOS5_, symObjAddr: 0xA48, symBinAddr: 0x100004E90, symSize: 0x24 }
  - { offsetInCU: 0x3287B, offset: 0x3287B, size: 0x8, addend: 0x0, symName: __ZNSt3__13getB8ue170006ILm1EffEEONS_13tuple_elementIXT_ENS_4pairIT0_T1_EEE4typeEOS5_, symObjAddr: 0xA6C, symBinAddr: 0x100004EB4, symSize: 0x24 }
  - { offsetInCU: 0x328C7, offset: 0x328C7, size: 0x8, addend: 0x0, symName: __ZNSt3__1plB8ue170006IcNS_11char_traitsIcEENS_9allocatorIcEEEENS_12basic_stringIT_T0_T1_EEOS9_SA_, symObjAddr: 0xC7C, symBinAddr: 0x1000050C4, symSize: 0x40 }
  - { offsetInCU: 0x32922, offset: 0x32922, size: 0x8, addend: 0x0, symName: __ZNSt3__1plB8ue170006IcNS_11char_traitsIcEENS_9allocatorIcEEEENS_12basic_stringIT_T0_T1_EEOS9_PKS6_, symObjAddr: 0xCBC, symBinAddr: 0x100005104, symSize: 0x40 }
  - { offsetInCU: 0x3297C, offset: 0x3297C, size: 0x8, addend: 0x0, symName: __ZNSt3__13minB8ue170006ImEERKT_S3_S3_, symObjAddr: 0x28E0, symBinAddr: 0x100006D28, symSize: 0x2C }
  - { offsetInCU: 0x32BA9, offset: 0x32BA9, size: 0x8, addend: 0x0, symName: __ZNSt3__13minB8ue170006ImNS_6__lessIvvEEEERKT_S5_S5_T0_, symObjAddr: 0x2970, symBinAddr: 0x100006DB8, symSize: 0x54 }
  - { offsetInCU: 0x32E37, offset: 0x32E37, size: 0x8, addend: 0x0, symName: __ZNSt3__120__throw_length_errorB8ue170006EPKc, symObjAddr: 0x2A54, symBinAddr: 0x100006E9C, symSize: 0x64 }
  - { offsetInCU: 0x32E62, offset: 0x32E62, size: 0x8, addend: 0x0, symName: __ZNSt3__119__allocate_at_leastB8ue170006INS_9allocatorIN3xpf13lerp_intervalEEEEENS_19__allocation_resultINS_16allocator_traitsIT_E7pointerEEERS7_m, symObjAddr: 0x2C8C, symBinAddr: 0x1000070D4, symSize: 0x40 }
  - { offsetInCU: 0x32EA6, offset: 0x32EA6, size: 0x8, addend: 0x0, symName: __ZNSt3__117__libcpp_allocateB8ue170006Emm, symObjAddr: 0x2E14, symBinAddr: 0x10000725C, symSize: 0x60 }
  - { offsetInCU: 0x32F04, offset: 0x32F04, size: 0x8, addend: 0x0, symName: __ZNSt3__124__is_overaligned_for_newB8ue170006Em, symObjAddr: 0x2E74, symBinAddr: 0x1000072BC, symSize: 0x20 }
  - { offsetInCU: 0x32F34, offset: 0x32F34, size: 0x8, addend: 0x0, symName: __ZNSt3__121__libcpp_operator_newB8ue170006IJmSt11align_val_tEEEPvDpT_, symObjAddr: 0x2E94, symBinAddr: 0x1000072DC, symSize: 0x2C }
  - { offsetInCU: 0x32F84, offset: 0x32F84, size: 0x8, addend: 0x0, symName: __ZNSt3__121__libcpp_operator_newB8ue170006IJmEEEPvDpT_, symObjAddr: 0x2EC0, symBinAddr: 0x100007308, symSize: 0x24 }
  - { offsetInCU: 0x32FBF, offset: 0x32FBF, size: 0x8, addend: 0x0, symName: __ZNSt3__142__uninitialized_allocator_move_if_noexceptB8ue170006INS_9allocatorIN3xpf13lerp_intervalEEENS_16reverse_iteratorIPS3_EES7_S3_vEET1_RT_T0_SB_S8_, symObjAddr: 0x3030, symBinAddr: 0x100007478, symSize: 0x78 }
  - { offsetInCU: 0x33040, offset: 0x33040, size: 0x8, addend: 0x0, symName: __ZNSt3__14swapB8ue170006IPN3xpf13lerp_intervalEEENS_9enable_ifIXaasr21is_move_constructibleIT_EE5valuesr18is_move_assignableIS5_EE5valueEvE4typeERS5_S8_, symObjAddr: 0x30F4, symBinAddr: 0x10000753C, symSize: 0x3C }
  - { offsetInCU: 0x33091, offset: 0x33091, size: 0x8, addend: 0x0, symName: __ZNSt3__112__to_addressB8ue170006IN3xpf13lerp_intervalEEEPT_S4_, symObjAddr: 0x3268, symBinAddr: 0x1000076B0, symSize: 0x14 }
  - { offsetInCU: 0x330C6, offset: 0x330C6, size: 0x8, addend: 0x0, symName: __ZNSt3__14moveB8ue170006INS_16reverse_iteratorIPN3xpf13lerp_intervalEEES5_EET0_T_S7_S6_, symObjAddr: 0x327C, symBinAddr: 0x1000076C4, symSize: 0x78 }
  - { offsetInCU: 0x33120, offset: 0x33120, size: 0x8, addend: 0x0, symName: __ZNSt3__16__moveB8ue170006INS_17_ClassicAlgPolicyENS_16reverse_iteratorIPN3xpf13lerp_intervalEEES6_S6_EENS_4pairIT0_T2_EES8_T1_S9_, symObjAddr: 0x32F4, symBinAddr: 0x10000773C, symSize: 0x64 }
  - { offsetInCU: 0x3318C, offset: 0x3318C, size: 0x8, addend: 0x0, symName: __ZNSt3__123__dispatch_copy_or_moveB8ue170006INS_17_ClassicAlgPolicyENS_11__move_loopIS1_EENS_14__move_trivialENS_16reverse_iteratorIPN3xpf13lerp_intervalEEES9_S9_EENS_4pairIT2_T4_EESB_T3_SC_, symObjAddr: 0x3358, symBinAddr: 0x1000077A0, symSize: 0x64 }
  - { offsetInCU: 0x3320A, offset: 0x3320A, size: 0x8, addend: 0x0, symName: __ZNSt3__121__unwrap_and_dispatchB8ue170006INS_10__overloadINS_11__move_loopINS_17_ClassicAlgPolicyEEENS_14__move_trivialEEENS_16reverse_iteratorIPN3xpf13lerp_intervalEEESB_SB_Li0EEENS_4pairIT0_T2_EESD_T1_SE_, symObjAddr: 0x33BC, symBinAddr: 0x100007804, symSize: 0x12C }
  - { offsetInCU: 0x3329A, offset: 0x3329A, size: 0x8, addend: 0x0, symName: __ZNSt3__114__unwrap_rangeB8ue170006INS_16reverse_iteratorIPN3xpf13lerp_intervalEEES5_EEDaT_T0_, symObjAddr: 0x34E8, symBinAddr: 0x100007930, symSize: 0x4C }
  - { offsetInCU: 0x33454, offset: 0x33454, size: 0x8, addend: 0x0, symName: __ZNSt3__113__unwrap_iterB8ue170006INS_16reverse_iteratorIPN3xpf13lerp_intervalEEENS_18__unwrap_iter_implIS5_Lb0EEELi0EEEDTclsrT0_8__unwrapclsr3stdE7declvalIT_EEEES9_, symObjAddr: 0x35DC, symBinAddr: 0x100007A24, symSize: 0x44 }
  - { offsetInCU: 0x33499, offset: 0x33499, size: 0x8, addend: 0x0, symName: __ZNSt3__19make_pairB8ue170006INS_16reverse_iteratorIPN3xpf13lerp_intervalEEES5_EENS_4pairINS_18__unwrap_ref_decayIT_E4typeENS7_IT0_E4typeEEEOS8_OSB_, symObjAddr: 0x3620, symBinAddr: 0x100007A68, symSize: 0x38 }
  - { offsetInCU: 0x334EA, offset: 0x334EA, size: 0x8, addend: 0x0, symName: __ZNSt3__114__rewrap_rangeB8ue170006INS_16reverse_iteratorIPN3xpf13lerp_intervalEEES5_S5_EET0_S6_T1_, symObjAddr: 0x3658, symBinAddr: 0x100007AA0, symSize: 0x5C }
  - { offsetInCU: 0x3353F, offset: 0x3353F, size: 0x8, addend: 0x0, symName: __ZNSt3__113__rewrap_iterB8ue170006INS_16reverse_iteratorIPN3xpf13lerp_intervalEEES5_NS_18__unwrap_iter_implIS5_Lb0EEEEET_S8_T0_, symObjAddr: 0x36B4, symBinAddr: 0x100007AFC, symSize: 0x74 }
  - { offsetInCU: 0x335E4, offset: 0x335E4, size: 0x8, addend: 0x0, symName: __ZNSt3__1neB8ue170006IPN3xpf13lerp_intervalES3_EEbRKNS_16reverse_iteratorIT_EERKNS4_IT0_EE, symObjAddr: 0x381C, symBinAddr: 0x100007C64, symSize: 0x48 }
  - { offsetInCU: 0x33716, offset: 0x33716, size: 0x8, addend: 0x0, symName: __ZNSt3__110destroy_atB8ue170006IN3xpf13lerp_intervalELi0EEEvPT_, symObjAddr: 0x3BCC, symBinAddr: 0x100008014, symSize: 0x24 }
  - { offsetInCU: 0x3374E, offset: 0x3374E, size: 0x8, addend: 0x0, symName: __ZNSt3__112__destroy_atB8ue170006IN3xpf13lerp_intervalELi0EEEvPT_, symObjAddr: 0x3BF0, symBinAddr: 0x100008038, symSize: 0x10 }
  - { offsetInCU: 0x33786, offset: 0x33786, size: 0x8, addend: 0x0, symName: __ZNSt3__119__libcpp_deallocateB8ue170006EPvmm, symObjAddr: 0x3C44, symBinAddr: 0x10000808C, symSize: 0x60 }
  - { offsetInCU: 0x337F0, offset: 0x337F0, size: 0x8, addend: 0x0, symName: __ZNSt3__127__do_deallocate_handle_sizeB8ue170006IJSt11align_val_tEEEvPvmDpT_, symObjAddr: 0x3CA4, symBinAddr: 0x1000080EC, symSize: 0x30 }
  - { offsetInCU: 0x33847, offset: 0x33847, size: 0x8, addend: 0x0, symName: __ZNSt3__127__do_deallocate_handle_sizeB8ue170006IJEEEvPvmDpT_, symObjAddr: 0x3CD4, symBinAddr: 0x10000811C, symSize: 0x28 }
  - { offsetInCU: 0x33889, offset: 0x33889, size: 0x8, addend: 0x0, symName: __ZNSt3__124__libcpp_operator_deleteB8ue170006IJPvSt11align_val_tEEEvDpT_, symObjAddr: 0x3CFC, symBinAddr: 0x100008144, symSize: 0x2C }
  - { offsetInCU: 0x338D5, offset: 0x338D5, size: 0x8, addend: 0x0, symName: __ZNSt3__124__libcpp_operator_deleteB8ue170006IJPvEEEvDpT_, symObjAddr: 0x3D28, symBinAddr: 0x100008170, symSize: 0x24 }
  - { offsetInCU: 0x33932, offset: 0x33932, size: 0x8, addend: 0x0, symName: __ZNSt3__112construct_atB8ue170006IN3xpf13lerp_intervalEJS2_EPS2_EEPT_S5_DpOT0_, symObjAddr: 0x3FE4, symBinAddr: 0x10000842C, symSize: 0x34 }
  - { offsetInCU: 0x339A4, offset: 0x339A4, size: 0x8, addend: 0x0, symName: __ZNSt3__13maxB8ue170006ImEERKT_S3_S3_, symObjAddr: 0x40EC, symBinAddr: 0x100008534, symSize: 0x2C }
  - { offsetInCU: 0x339E7, offset: 0x339E7, size: 0x8, addend: 0x0, symName: __ZNSt3__13maxB8ue170006ImNS_6__lessIvvEEEERKT_S5_S5_T0_, symObjAddr: 0x4118, symBinAddr: 0x100008560, symSize: 0x54 }
  - { offsetInCU: 0x33A41, offset: 0x33A41, size: 0x8, addend: 0x0, symName: __ZNSt3__112__to_addressB8ue170006INS_12basic_stringIcNS_11char_traitsIcEENS_9allocatorIcEEEEEEPT_S8_, symObjAddr: 0x46BC, symBinAddr: 0x100008B04, symSize: 0x14 }
  - { offsetInCU: 0x33A77, offset: 0x33A77, size: 0x8, addend: 0x0, symName: __ZNSt3__110destroy_atB8ue170006INS_12basic_stringIcNS_11char_traitsIcEENS_9allocatorIcEEEELi0EEEvPT_, symObjAddr: 0x46D0, symBinAddr: 0x100008B18, symSize: 0x24 }
  - { offsetInCU: 0x33AAF, offset: 0x33AAF, size: 0x8, addend: 0x0, symName: __ZNSt3__112__destroy_atB8ue170006INS_12basic_stringIcNS_11char_traitsIcEENS_9allocatorIcEEEELi0EEEvPT_, symObjAddr: 0x46F4, symBinAddr: 0x100008B3C, symSize: 0x24 }
  - { offsetInCU: 0x33AE6, offset: 0x33AE6, size: 0x8, addend: 0x0, symName: __ZNSt3__112__to_addressB8ue170006INS_4pairIP10GLFWwindowPN3xpf6WindowEEEEEPT_S9_, symObjAddr: 0x4BD4, symBinAddr: 0x10000901C, symSize: 0x14 }
  - { offsetInCU: 0x33B1C, offset: 0x33B1C, size: 0x8, addend: 0x0, symName: __ZNSt3__110destroy_atB8ue170006INS_4pairIP10GLFWwindowPN3xpf6WindowEEELi0EEEvPT_, symObjAddr: 0x4BE8, symBinAddr: 0x100009030, symSize: 0x24 }
  - { offsetInCU: 0x33B54, offset: 0x33B54, size: 0x8, addend: 0x0, symName: __ZNSt3__112__destroy_atB8ue170006INS_4pairIP10GLFWwindowPN3xpf6WindowEEELi0EEEvPT_, symObjAddr: 0x4C0C, symBinAddr: 0x100009054, symSize: 0x10 }
  - { offsetInCU: 0x340C7, offset: 0x340C7, size: 0x8, addend: 0x0, symName: __ZNSt3__112__to_addressB8ue170006IKcEEPT_S3_, symObjAddr: 0x4F60, symBinAddr: 0x1000093A8, symSize: 0x14 }
  - { offsetInCU: 0x34130, offset: 0x34130, size: 0x8, addend: 0x0, symName: __ZNSt3__128__char_traits_length_checkedB8ue170006INS_11char_traitsIcEEEEmPKNT_9char_typeE, symObjAddr: 0x526C, symBinAddr: 0x1000096B4, symSize: 0x24 }
  - { offsetInCU: 0x34168, offset: 0x34168, size: 0x8, addend: 0x0, symName: __ZNSt3__118__constexpr_strlenB8ue170006EPKc, symObjAddr: 0x52C4, symBinAddr: 0x10000970C, symSize: 0x24 }
  - { offsetInCU: 0x34248, offset: 0x34248, size: 0x8, addend: 0x0, symName: '__ZNSt3__116forward_as_tupleB8ue170006IJZZ9test_fontRN3xpf9IRendererEENK3$_0clES3_EUlvE_EEENS_5tupleIJDpOT_EEES9_', symObjAddr: 0x6514, symBinAddr: 0x10000A95C, symSize: 0x2C }
  - { offsetInCU: 0x34283, offset: 0x34283, size: 0x8, addend: 0x0, symName: '__ZNSt3__116forward_as_tupleB8ue170006IJNS_9allocatorIZZ9test_fontRN3xpf9IRendererEENK3$_0clES4_EUlvE_EEEEENS_5tupleIJDpOT_EEESB_', symObjAddr: 0x6540, symBinAddr: 0x10000A988, symSize: 0x2C }
  - { offsetInCU: 0x34304, offset: 0x34304, size: 0x8, addend: 0x0, symName: '__ZNSt3__13getB8ue170006ILm0EJOZZ9test_fontRN3xpf9IRendererEENK3$_0clES3_EUlvE_EEERNS_13tuple_elementIXT_ENS_5tupleIJDpT0_EEEE4typeERSB_', symObjAddr: 0x6858, symBinAddr: 0x10000ACA0, symSize: 0x24 }
  - { offsetInCU: 0x34347, offset: 0x34347, size: 0x8, addend: 0x0, symName: '__ZNSt3__13getB8ue170006ILm0EJONS_9allocatorIZZ9test_fontRN3xpf9IRendererEENK3$_0clES4_EUlvE_EEEEERNS_13tuple_elementIXT_ENS_5tupleIJDpT0_EEEE4typeERSD_', symObjAddr: 0x6894, symBinAddr: 0x10000ACDC, symSize: 0x24 }
  - { offsetInCU: 0x34889, offset: 0x34889, size: 0x8, addend: 0x0, symName: '__ZNSt3__116forward_as_tupleB8ue170006IJRKZZ9test_fontRN3xpf9IRendererEENK3$_0clES3_EUlvE_EEENS_5tupleIJDpOT_EEESB_', symObjAddr: 0x6E18, symBinAddr: 0x10000B260, symSize: 0x2C }
  - { offsetInCU: 0x348D9, offset: 0x348D9, size: 0x8, addend: 0x0, symName: '__ZNSt3__13getB8ue170006ILm0EJRKZZ9test_fontRN3xpf9IRendererEENK3$_0clES3_EUlvE_EEERNS_13tuple_elementIXT_ENS_5tupleIJDpT0_EEEE4typeERSC_', symObjAddr: 0x7008, symBinAddr: 0x10000B450, symSize: 0x24 }
  - { offsetInCU: 0x3491C, offset: 0x3491C, size: 0x8, addend: 0x0, symName: '__ZNSt3__116forward_as_tupleB8ue170006IJRKNS_9allocatorIZZ9test_fontRN3xpf9IRendererEENK3$_0clES4_EUlvE_EEEEENS_5tupleIJDpOT_EEESD_', symObjAddr: 0x7364, symBinAddr: 0x10000B7AC, symSize: 0x2C }
  - { offsetInCU: 0x3496C, offset: 0x3496C, size: 0x8, addend: 0x0, symName: '__ZNSt3__13getB8ue170006ILm0EJRKNS_9allocatorIZZ9test_fontRN3xpf9IRendererEENK3$_0clES4_EUlvE_EEEEERNS_13tuple_elementIXT_ENS_5tupleIJDpT0_EEEE4typeERSE_', symObjAddr: 0x7548, symBinAddr: 0x10000B990, symSize: 0x24 }
  - { offsetInCU: 0x34A2F, offset: 0x34A2F, size: 0x8, addend: 0x0, symName: '__ZNSt3__18__invokeB8ue170006IRZZ9test_fontRN3xpf9IRendererEENK3$_0clES3_EUlvE_JEEEDTclclsr3stdE7declvalIT_EEspclsr3stdE7declvalIT0_EEEEOS7_DpOS8_', symObjAddr: 0x7618, symBinAddr: 0x10000BA60, symSize: 0x2C }
  - { offsetInCU: 0x34A6E, offset: 0x34A6E, size: 0x8, addend: 0x0, symName: __ZNSt3__1eqB8ue170006INS_6vectorIhNS_9allocatorIhEEEEJN3xpf13string_viewexEEEEbRKNS_8functionIFT_DpT0_EEEDn, symObjAddr: 0x7B78, symBinAddr: 0x10000BFC0, symSize: 0x30 }
  - { offsetInCU: 0x3586A, offset: 0x3586A, size: 0x8, addend: 0x0, symName: __ZNSt3__15beginB8ue170006INS_5arrayIhLm4096EEEEEDTcldtfp_5beginEERT_, symObjAddr: 0x7F0C, symBinAddr: 0x10000C354, symSize: 0x24 }
  - { offsetInCU: 0x358AB, offset: 0x358AB, size: 0x8, addend: 0x0, symName: __ZNSt3__1lsB8ue170006IcNS_11char_traitsIcEEEERNS_13basic_ostreamIT_T0_EES7_NS_17basic_string_viewIS4_S5_EE, symObjAddr: 0x7FFC, symBinAddr: 0x10000C444, symSize: 0x5C }
  - { offsetInCU: 0x358FD, offset: 0x358FD, size: 0x8, addend: 0x0, symName: __ZNSt3__1lsB8ue170006INS_11char_traitsIcEEEERNS_13basic_ostreamIcT_EES6_PKc, symObjAddr: 0x8058, symBinAddr: 0x10000C4A0, symSize: 0x48 }
  - { offsetInCU: 0x35946, offset: 0x35946, size: 0x8, addend: 0x0, symName: __ZNSt3__14endlB8ue170006IcNS_11char_traitsIcEEEERNS_13basic_ostreamIT_T0_EES7_, symObjAddr: 0x80CC, symBinAddr: 0x10000C514, symSize: 0x58 }
  - { offsetInCU: 0x359AE, offset: 0x359AE, size: 0x8, addend: 0x0, symName: __ZNSt3__112construct_atB8ue170006INS_12basic_stringIcNS_11char_traitsIcEENS_9allocatorIcEEEEJRNS_17basic_string_viewIcS3_EEEPS6_EEPT_SC_DpOT0_, symObjAddr: 0x83EC, symBinAddr: 0x10000C834, symSize: 0x3C }
  - { offsetInCU: 0x35A20, offset: 0x35A20, size: 0x8, addend: 0x0, symName: __ZNSt3__119__allocate_at_leastB8ue170006INS_9allocatorINS_12basic_stringIcNS_11char_traitsIcEENS1_IcEEEEEEEENS_19__allocation_resultINS_16allocator_traitsIT_E7pointerEEERSA_m, symObjAddr: 0x8958, symBinAddr: 0x10000CDA0, symSize: 0x40 }
  - { offsetInCU: 0x35A64, offset: 0x35A64, size: 0x8, addend: 0x0, symName: __ZNSt3__142__uninitialized_allocator_move_if_noexceptB8ue170006INS_9allocatorINS_12basic_stringIcNS_11char_traitsIcEENS1_IcEEEEEENS_16reverse_iteratorIPS6_EESA_SA_EET2_RT_T0_T1_SB_, symObjAddr: 0x8B2C, symBinAddr: 0x10000CF74, symSize: 0x12C }
  - { offsetInCU: 0x35B0A, offset: 0x35B0A, size: 0x8, addend: 0x0, symName: __ZNSt3__14swapB8ue170006IPNS_12basic_stringIcNS_11char_traitsIcEENS_9allocatorIcEEEEEENS_9enable_ifIXaasr21is_move_constructibleIT_EE5valuesr18is_move_assignableIS9_EE5valueEvE4typeERS9_SC_, symObjAddr: 0x8CA4, symBinAddr: 0x10000D0EC, symSize: 0x3C }
  - { offsetInCU: 0x35B5B, offset: 0x35B5B, size: 0x8, addend: 0x0, symName: __ZNSt3__122__make_exception_guardB8ue170006INS_29_AllocatorDestroyRangeReverseINS_9allocatorINS_12basic_stringIcNS_11char_traitsIcEENS2_IcEEEEEENS_16reverse_iteratorIPS7_EEEEEENS_28__exception_guard_exceptionsIT_EESE_, symObjAddr: 0x8DA8, symBinAddr: 0x10000D1F0, symSize: 0x4C }
  - { offsetInCU: 0x35B91, offset: 0x35B91, size: 0x8, addend: 0x0, symName: __ZNSt3__1neB8ue170006IPNS_12basic_stringIcNS_11char_traitsIcEENS_9allocatorIcEEEES7_EEbRKNS_16reverse_iteratorIT_EERKNS8_IT0_EE, symObjAddr: 0x8E38, symBinAddr: 0x10000D280, symSize: 0x48 }
  - { offsetInCU: 0x35BDD, offset: 0x35BDD, size: 0x8, addend: 0x0, symName: __ZNSt3__112__to_addressB8ue170006INS_16reverse_iteratorIPNS_12basic_stringIcNS_11char_traitsIcEENS_9allocatorIcEEEEEEvEEu7__decayIDTclsr19__to_address_helperIT_EE6__callclsr3stdE7declvalIRKSA_EEEEESC_, symObjAddr: 0x8EB0, symBinAddr: 0x10000D2F8, symSize: 0x24 }
  - { offsetInCU: 0x35C13, offset: 0x35C13, size: 0x8, addend: 0x0, symName: __ZNSt3__112construct_atB8ue170006INS_12basic_stringIcNS_11char_traitsIcEENS_9allocatorIcEEEEJS6_EPS6_EEPT_S9_DpOT0_, symObjAddr: 0x9000, symBinAddr: 0x10000D448, symSize: 0x3C }
  - { offsetInCU: 0x35CAF, offset: 0x35CAF, size: 0x8, addend: 0x0, symName: __ZNSt3__14prevB8ue170006IPNS_12basic_stringIcNS_11char_traitsIcEENS_9allocatorIcEEEEEENS_9enable_ifIXsr29__has_input_iterator_categoryIT_EE5valueES9_E4typeES9_NS_15iterator_traitsIS9_E15difference_typeE, symObjAddr: 0x90A0, symBinAddr: 0x10000D4E8, symSize: 0x3C }
  - { offsetInCU: 0x35CF2, offset: 0x35CF2, size: 0x8, addend: 0x0, symName: __ZNSt3__121__convert_to_integralB8ue170006El, symObjAddr: 0x9114, symBinAddr: 0x10000D55C, symSize: 0x14 }
  - { offsetInCU: 0x35D1F, offset: 0x35D1F, size: 0x8, addend: 0x0, symName: __ZNSt3__19__advanceB8ue170006IPNS_12basic_stringIcNS_11char_traitsIcEENS_9allocatorIcEEEEEEvRT_NS_15iterator_traitsIS8_E15difference_typeENS_26random_access_iterator_tagE, symObjAddr: 0x9128, symBinAddr: 0x10000D570, symSize: 0x30 }
  - { offsetInCU: 0x35D69, offset: 0x35D69, size: 0x8, addend: 0x0, symName: __ZNSt3__119__allocator_destroyB8ue170006INS_9allocatorINS_12basic_stringIcNS_11char_traitsIcEENS1_IcEEEEEENS_16reverse_iteratorINS8_IPS6_EEEESB_EEvRT_T0_T1_, symObjAddr: 0x925C, symBinAddr: 0x10000D6A4, symSize: 0x70 }
  - { offsetInCU: 0x35DD1, offset: 0x35DD1, size: 0x8, addend: 0x0, symName: __ZNSt3__1neB8ue170006INS_16reverse_iteratorIPNS_12basic_stringIcNS_11char_traitsIcEENS_9allocatorIcEEEEEES9_EEbRKNS1_IT_EERKNS1_IT0_EE, symObjAddr: 0x9308, symBinAddr: 0x10000D750, symSize: 0x60 }
  - { offsetInCU: 0x35E1D, offset: 0x35E1D, size: 0x8, addend: 0x0, symName: __ZNSt3__112__to_addressB8ue170006INS_16reverse_iteratorINS1_IPNS_12basic_stringIcNS_11char_traitsIcEENS_9allocatorIcEEEEEEEEvEEu7__decayIDTclsr19__to_address_helperIT_EE6__callclsr3stdE7declvalIRKSB_EEEEESD_, symObjAddr: 0x9368, symBinAddr: 0x10000D7B0, symSize: 0x24 }
  - { offsetInCU: 0x35E7D, offset: 0x35E7D, size: 0x8, addend: 0x0, symName: __ZNSt3__14prevB8ue170006INS_16reverse_iteratorIPNS_12basic_stringIcNS_11char_traitsIcEENS_9allocatorIcEEEEEEEENS_9enable_ifIXsr29__has_input_iterator_categoryIT_EE5valueESB_E4typeESB_NS_15iterator_traitsISB_E15difference_typeE, symObjAddr: 0x9464, symBinAddr: 0x10000D8AC, symSize: 0x4C }
  - { offsetInCU: 0x35EC1, offset: 0x35EC1, size: 0x8, addend: 0x0, symName: __ZNSt3__19__advanceB8ue170006INS_16reverse_iteratorIPNS_12basic_stringIcNS_11char_traitsIcEENS_9allocatorIcEEEEEEEEvRT_NS_15iterator_traitsISA_E15difference_typeENS_26random_access_iterator_tagE, symObjAddr: 0x94E8, symBinAddr: 0x10000D930, symSize: 0x2C }
  - { offsetInCU: 0x35F0B, offset: 0x35F0B, size: 0x8, addend: 0x0, symName: __ZNSt3__116__pad_and_outputB8ue170006IcNS_11char_traitsIcEEEENS_19ostreambuf_iteratorIT_T0_EES6_PKS4_S8_S8_RNS_8ios_baseES4_, symObjAddr: 0x99AC, symBinAddr: 0x10000DDF4, symSize: 0x240 }
  - { offsetInCU: 0x35FE5, offset: 0x35FE5, size: 0x8, addend: 0x0, symName: __ZNSt3__112__to_addressB8ue170006IcEEPT_S2_, symObjAddr: 0x9E1C, symBinAddr: 0x10000E264, symSize: 0x14 }
  - { offsetInCU: 0x3601A, offset: 0x3601A, size: 0x8, addend: 0x0, symName: __ZNSt3__19use_facetB8ue170006INS_5ctypeIcEEEERKT_RKNS_6localeE, symObjAddr: 0xA02C, symBinAddr: 0x10000E474, symSize: 0x2C }
  - { offsetInCU: 0x364E8, offset: 0x364E8, size: 0x8, addend: 0x0, symName: __ZNSt3__125__throw_bad_function_callB8ue170006Ev, symObjAddr: 0xA1D4, symBinAddr: 0x10000E61C, symSize: 0x38 }
  - { offsetInCU: 0x36538, offset: 0x36538, size: 0x8, addend: 0x0, symName: __ZNSt3__18distanceB8ue170006IPhEENS_15iterator_traitsIT_E15difference_typeES3_S3_, symObjAddr: 0xA8C0, symBinAddr: 0x10000ED08, symSize: 0x2C }
  - { offsetInCU: 0x3657B, offset: 0x3657B, size: 0x8, addend: 0x0, symName: __ZNSt3__1miB8ue170006IPKhPhEEDTmicldtfp_4baseEcldtfp0_4baseEERKNS_11__wrap_iterIT_EERKNS5_IT0_EE, symObjAddr: 0xA8EC, symBinAddr: 0x10000ED34, symSize: 0x40 }
  - { offsetInCU: 0x365C7, offset: 0x365C7, size: 0x8, addend: 0x0, symName: __ZNSt3__14nextB8ue170006IPhEENS_9enable_ifIXsr29__has_input_iterator_categoryIT_EE5valueES3_E4typeES3_NS_15iterator_traitsIS3_E15difference_typeE, symObjAddr: 0xA984, symBinAddr: 0x10000EDCC, symSize: 0x34 }
  - { offsetInCU: 0x3660A, offset: 0x3660A, size: 0x8, addend: 0x0, symName: __ZNSt3__14copyB8ue170006IPhS1_EET0_T_S3_S2_, symObjAddr: 0xAB9C, symBinAddr: 0x10000EFE4, symSize: 0x40 }
  - { offsetInCU: 0x36665, offset: 0x36665, size: 0x8, addend: 0x0, symName: __ZNSt3__19__advanceB8ue170006IPhEEvRT_NS_15iterator_traitsIS2_E15difference_typeENS_26random_access_iterator_tagE, symObjAddr: 0xAFF4, symBinAddr: 0x10000F43C, symSize: 0x28 }
  - { offsetInCU: 0x366AF, offset: 0x366AF, size: 0x8, addend: 0x0, symName: __ZNSt3__130__uninitialized_allocator_copyB8ue170006INS_9allocatorIhEEPhS3_S3_EET2_RT_T0_T1_S4_, symObjAddr: 0xB058, symBinAddr: 0x10000F4A0, symSize: 0x80 }
  - { offsetInCU: 0x36752, offset: 0x36752, size: 0x8, addend: 0x0, symName: __ZNSt3__114__unwrap_rangeB8ue170006IPhS1_EEDaT_T0_, symObjAddr: 0xB148, symBinAddr: 0x10000F590, symSize: 0x3C }
  - { offsetInCU: 0x3679F, offset: 0x3679F, size: 0x8, addend: 0x0, symName: __ZNSt3__135__uninitialized_allocator_copy_implB8ue170006INS_9allocatorIhEEhhhLPv0EEEPT2_RT_PT0_S9_S5_, symObjAddr: 0xB184, symBinAddr: 0x10000F5CC, symSize: 0x38 }
  - { offsetInCU: 0x36824, offset: 0x36824, size: 0x8, addend: 0x0, symName: __ZNSt3__113__unwrap_iterB8ue170006IPhNS_18__unwrap_iter_implIS1_Lb1EEELi0EEEDTclsrT0_8__unwrapclsr3stdE7declvalIT_EEEES5_, symObjAddr: 0xB1BC, symBinAddr: 0x10000F604, symSize: 0x24 }
  - { offsetInCU: 0x36868, offset: 0x36868, size: 0x8, addend: 0x0, symName: __ZNSt3__113__rewrap_iterB8ue170006IPhS1_NS_18__unwrap_iter_implIS1_Lb1EEEEET_S4_T0_, symObjAddr: 0xB1E0, symBinAddr: 0x10000F628, symSize: 0x3C }
  - { offsetInCU: 0x36A8A, offset: 0x36A8A, size: 0x8, addend: 0x0, symName: __ZNSt3__112__to_addressB8ue170006IhEEPT_S2_, symObjAddr: 0xB308, symBinAddr: 0x10000F750, symSize: 0x14 }
  - { offsetInCU: 0x36ABF, offset: 0x36ABF, size: 0x8, addend: 0x0, symName: __ZNSt3__113move_backwardB8ue170006IPhS1_EET0_T_S3_S2_, symObjAddr: 0xB3B4, symBinAddr: 0x10000F7FC, symSize: 0x40 }
  - { offsetInCU: 0x36B40, offset: 0x36B40, size: 0x8, addend: 0x0, symName: __ZNSt3__112construct_atB8ue170006IhJhEPhEEPT_S3_DpOT0_, symObjAddr: 0xB3F4, symBinAddr: 0x10000F83C, symSize: 0x2C }
  - { offsetInCU: 0x36BB2, offset: 0x36BB2, size: 0x8, addend: 0x0, symName: __ZNSt3__115__move_backwardB8ue170006INS_17_ClassicAlgPolicyEPhS2_S2_EENS_4pairIT0_T2_EES4_T1_S5_, symObjAddr: 0xB420, symBinAddr: 0x10000F868, symSize: 0x44 }
  - { offsetInCU: 0x36C1E, offset: 0x36C1E, size: 0x8, addend: 0x0, symName: __ZNSt3__123__dispatch_copy_or_moveB8ue170006INS_17_ClassicAlgPolicyENS_20__move_backward_loopIS1_EENS_23__move_backward_trivialEPhS5_S5_EENS_4pairIT2_T4_EES7_T3_S8_, symObjAddr: 0xB464, symBinAddr: 0x10000F8AC, symSize: 0x44 }
  - { offsetInCU: 0x36C9C, offset: 0x36C9C, size: 0x8, addend: 0x0, symName: __ZNSt3__121__unwrap_and_dispatchB8ue170006INS_10__overloadINS_20__move_backward_loopINS_17_ClassicAlgPolicyEEENS_23__move_backward_trivialEEEPhS7_S7_Li0EEENS_4pairIT0_T2_EES9_T1_SA_, symObjAddr: 0xB4A8, symBinAddr: 0x10000F8F0, symSize: 0xB4 }
  - { offsetInCU: 0x36D71, offset: 0x36D71, size: 0x8, addend: 0x0, symName: __ZNSt3__19make_pairB8ue170006IPhS1_EENS_4pairINS_18__unwrap_ref_decayIT_E4typeENS3_IT0_E4typeEEEOS4_OS7_, symObjAddr: 0xB5A4, symBinAddr: 0x10000F9EC, symSize: 0x38 }
  - { offsetInCU: 0x36DC2, offset: 0x36DC2, size: 0x8, addend: 0x0, symName: __ZNSt3__114__rewrap_rangeB8ue170006IPhS1_S1_EET0_S2_T1_, symObjAddr: 0xB5DC, symBinAddr: 0x10000FA24, symSize: 0x2C }
  - { offsetInCU: 0x36E17, offset: 0x36E17, size: 0x8, addend: 0x0, symName: __ZNSt3__128__copy_backward_trivial_implB8ue170006IhhEENS_4pairIPT_PT0_EES3_S3_S5_, symObjAddr: 0xB608, symBinAddr: 0x10000FA50, symSize: 0x80 }
  - { offsetInCU: 0x36E7F, offset: 0x36E7F, size: 0x8, addend: 0x0, symName: __ZNSt3__119__constexpr_memmoveB8ue170006IhhLi0EEEPT_S2_PT0_NS_15__element_countE, symObjAddr: 0xB688, symBinAddr: 0x10000FAD0, symSize: 0x64 }
  - { offsetInCU: 0x36EEE, offset: 0x36EEE, size: 0x8, addend: 0x0, symName: __ZNSt3__19make_pairB8ue170006IRPhS2_EENS_4pairINS_18__unwrap_ref_decayIT_E4typeENS4_IT0_E4typeEEEOS5_OS8_, symObjAddr: 0xB6EC, symBinAddr: 0x10000FB34, symSize: 0x38 }
  - { offsetInCU: 0x36F3F, offset: 0x36F3F, size: 0x8, addend: 0x0, symName: __ZNSt3__16__copyB8ue170006INS_17_ClassicAlgPolicyEPhS2_S2_EENS_4pairIT0_T2_EES4_T1_S5_, symObjAddr: 0xB7C0, symBinAddr: 0x10000FC08, symSize: 0x44 }
  - { offsetInCU: 0x36FAB, offset: 0x36FAB, size: 0x8, addend: 0x0, symName: __ZNSt3__123__dispatch_copy_or_moveB8ue170006INS_17_ClassicAlgPolicyENS_11__copy_loopIS1_EENS_14__copy_trivialEPhS5_S5_EENS_4pairIT2_T4_EES7_T3_S8_, symObjAddr: 0xB804, symBinAddr: 0x10000FC4C, symSize: 0x44 }
  - { offsetInCU: 0x37029, offset: 0x37029, size: 0x8, addend: 0x0, symName: __ZNSt3__121__unwrap_and_dispatchB8ue170006INS_10__overloadINS_11__copy_loopINS_17_ClassicAlgPolicyEEENS_14__copy_trivialEEEPhS7_S7_Li0EEENS_4pairIT0_T2_EES9_T1_SA_, symObjAddr: 0xB848, symBinAddr: 0x10000FC90, symSize: 0xB4 }
  - { offsetInCU: 0x370FD, offset: 0x370FD, size: 0x8, addend: 0x0, symName: __ZNSt3__119__copy_trivial_implB8ue170006IhhEENS_4pairIPT_PT0_EES3_S3_S5_, symObjAddr: 0xB944, symBinAddr: 0x10000FD8C, symSize: 0x78 }
  - { offsetInCU: 0x37166, offset: 0x37166, size: 0x8, addend: 0x0, symName: __ZNSt3__19make_pairB8ue170006IRPhS1_EENS_4pairINS_18__unwrap_ref_decayIT_E4typeENS4_IT0_E4typeEEEOS5_OS8_, symObjAddr: 0xB9BC, symBinAddr: 0x10000FE04, symSize: 0x38 }
  - { offsetInCU: 0x371B7, offset: 0x371B7, size: 0x8, addend: 0x0, symName: __ZNSt3__119__allocate_at_leastB8ue170006INS_9allocatorIhEEEENS_19__allocation_resultINS_16allocator_traitsIT_E7pointerEEERS5_m, symObjAddr: 0xBD48, symBinAddr: 0x100010190, symSize: 0x40 }
  - { offsetInCU: 0x371FA, offset: 0x371FA, size: 0x8, addend: 0x0, symName: __ZNSt3__112construct_atB8ue170006IhJRhEPhEEPT_S4_DpOT0_, symObjAddr: 0xBFD8, symBinAddr: 0x100010420, symSize: 0x2C }
  - { offsetInCU: 0x3726D, offset: 0x3726D, size: 0x8, addend: 0x0, symName: __ZNSt3__142__uninitialized_allocator_move_if_noexceptB8ue170006INS_9allocatorIhEENS_16reverse_iteratorIPhEES5_hvEET1_RT_T0_S9_S6_, symObjAddr: 0xC0DC, symBinAddr: 0x100010524, symSize: 0x78 }
  - { offsetInCU: 0x372EF, offset: 0x372EF, size: 0x8, addend: 0x0, symName: __ZNSt3__142__uninitialized_allocator_move_if_noexceptB8ue170006INS_9allocatorIhEEPhS3_hvEET1_RT_T0_S7_S4_, symObjAddr: 0xC1A0, symBinAddr: 0x1000105E8, symSize: 0x38 }
  - { offsetInCU: 0x3736F, offset: 0x3736F, size: 0x8, addend: 0x0, symName: __ZNSt3__14swapB8ue170006IPhEENS_9enable_ifIXaasr21is_move_constructibleIT_EE5valuesr18is_move_assignableIS3_EE5valueEvE4typeERS3_S6_, symObjAddr: 0xC1D8, symBinAddr: 0x100010620, symSize: 0x3C }
  - { offsetInCU: 0x373C0, offset: 0x373C0, size: 0x8, addend: 0x0, symName: __ZNSt3__14moveB8ue170006INS_16reverse_iteratorIPhEES3_EET0_T_S5_S4_, symObjAddr: 0xC308, symBinAddr: 0x100010750, symSize: 0x78 }
  - { offsetInCU: 0x3741A, offset: 0x3741A, size: 0x8, addend: 0x0, symName: __ZNSt3__16__moveB8ue170006INS_17_ClassicAlgPolicyENS_16reverse_iteratorIPhEES4_S4_EENS_4pairIT0_T2_EES6_T1_S7_, symObjAddr: 0xC380, symBinAddr: 0x1000107C8, symSize: 0x64 }
  - { offsetInCU: 0x37486, offset: 0x37486, size: 0x8, addend: 0x0, symName: __ZNSt3__123__dispatch_copy_or_moveB8ue170006INS_17_ClassicAlgPolicyENS_11__move_loopIS1_EENS_14__move_trivialENS_16reverse_iteratorIPhEES7_S7_EENS_4pairIT2_T4_EES9_T3_SA_, symObjAddr: 0xC3E4, symBinAddr: 0x10001082C, symSize: 0x64 }
  - { offsetInCU: 0x37504, offset: 0x37504, size: 0x8, addend: 0x0, symName: __ZNSt3__121__unwrap_and_dispatchB8ue170006INS_10__overloadINS_11__move_loopINS_17_ClassicAlgPolicyEEENS_14__move_trivialEEENS_16reverse_iteratorIPhEES9_S9_Li0EEENS_4pairIT0_T2_EESB_T1_SC_, symObjAddr: 0xC448, symBinAddr: 0x100010890, symSize: 0x12C }
  - { offsetInCU: 0x37594, offset: 0x37594, size: 0x8, addend: 0x0, symName: __ZNSt3__114__unwrap_rangeB8ue170006INS_16reverse_iteratorIPhEES3_EEDaT_T0_, symObjAddr: 0xC574, symBinAddr: 0x1000109BC, symSize: 0x4C }
  - { offsetInCU: 0x376B4, offset: 0x376B4, size: 0x8, addend: 0x0, symName: __ZNSt3__113__unwrap_iterB8ue170006INS_16reverse_iteratorIPhEENS_18__unwrap_iter_implIS3_Lb0EEELi0EEEDTclsrT0_8__unwrapclsr3stdE7declvalIT_EEEES7_, symObjAddr: 0xC660, symBinAddr: 0x100010AA8, symSize: 0x44 }
  - { offsetInCU: 0x376F9, offset: 0x376F9, size: 0x8, addend: 0x0, symName: __ZNSt3__19make_pairB8ue170006INS_16reverse_iteratorIPhEES3_EENS_4pairINS_18__unwrap_ref_decayIT_E4typeENS5_IT0_E4typeEEEOS6_OS9_, symObjAddr: 0xC6A4, symBinAddr: 0x100010AEC, symSize: 0x38 }
  - { offsetInCU: 0x3774A, offset: 0x3774A, size: 0x8, addend: 0x0, symName: __ZNSt3__114__rewrap_rangeB8ue170006INS_16reverse_iteratorIPhEES3_S3_EET0_S4_T1_, symObjAddr: 0xC6DC, symBinAddr: 0x100010B24, symSize: 0x5C }
  - { offsetInCU: 0x3779F, offset: 0x3779F, size: 0x8, addend: 0x0, symName: __ZNSt3__113__rewrap_iterB8ue170006INS_16reverse_iteratorIPhEES3_NS_18__unwrap_iter_implIS3_Lb0EEEEET_S6_T0_, symObjAddr: 0xC738, symBinAddr: 0x100010B80, symSize: 0x74 }
  - { offsetInCU: 0x37844, offset: 0x37844, size: 0x8, addend: 0x0, symName: __ZNSt3__1neB8ue170006IPhS1_EEbRKNS_16reverse_iteratorIT_EERKNS2_IT0_EE, symObjAddr: 0xC8A0, symBinAddr: 0x100010CE8, symSize: 0x48 }
  - { offsetInCU: 0x378FC, offset: 0x378FC, size: 0x8, addend: 0x0, symName: __ZNSt3__14moveB8ue170006IPhS1_EET0_T_S3_S2_, symObjAddr: 0xCA30, symBinAddr: 0x100010E78, symSize: 0x40 }
  - { offsetInCU: 0x37956, offset: 0x37956, size: 0x8, addend: 0x0, symName: __ZNSt3__16__moveB8ue170006INS_17_ClassicAlgPolicyEPhS2_S2_EENS_4pairIT0_T2_EES4_T1_S5_, symObjAddr: 0xCA70, symBinAddr: 0x100010EB8, symSize: 0x44 }
  - { offsetInCU: 0x379C2, offset: 0x379C2, size: 0x8, addend: 0x0, symName: __ZNSt3__123__dispatch_copy_or_moveB8ue170006INS_17_ClassicAlgPolicyENS_11__move_loopIS1_EENS_14__move_trivialEPhS5_S5_EENS_4pairIT2_T4_EES7_T3_S8_, symObjAddr: 0xCAB4, symBinAddr: 0x100010EFC, symSize: 0x44 }
  - { offsetInCU: 0x37A40, offset: 0x37A40, size: 0x8, addend: 0x0, symName: __ZNSt3__121__unwrap_and_dispatchB8ue170006INS_10__overloadINS_11__move_loopINS_17_ClassicAlgPolicyEEENS_14__move_trivialEEEPhS7_S7_Li0EEENS_4pairIT0_T2_EES9_T1_SA_, symObjAddr: 0xCAF8, symBinAddr: 0x100010F40, symSize: 0xB4 }
  - { offsetInCU: 0x37B15, offset: 0x37B15, size: 0x8, addend: 0x0, symName: __ZNSt3__110destroy_atB8ue170006IhLi0EEEvPT_, symObjAddr: 0xCDE8, symBinAddr: 0x100011230, symSize: 0x24 }
  - { offsetInCU: 0x37B4D, offset: 0x37B4D, size: 0x8, addend: 0x0, symName: __ZNSt3__112__destroy_atB8ue170006IhLi0EEEvPT_, symObjAddr: 0xCE0C, symBinAddr: 0x100011254, symSize: 0x10 }
  - { offsetInCU: 0x37B84, offset: 0x37B84, size: 0x8, addend: 0x0, symName: __ZNSt3__110__distanceB8ue170006IPhEENS_15iterator_traitsIT_E15difference_typeES3_S3_NS_26random_access_iterator_tagE, symObjAddr: 0xCEFC, symBinAddr: 0x100011344, symSize: 0x20 }
  - { offsetInCU: 0x38184, offset: 0x38184, size: 0x8, addend: 0x0, symName: '__ZNSt3__116forward_as_tupleB8ue170006IJZZ9test_fontRN3xpf9IRendererEENK3$_0clES3_EUlvE0_EEENS_5tupleIJDpOT_EEES9_', symObjAddr: 0xD9F8, symBinAddr: 0x100011E40, symSize: 0x2C }
  - { offsetInCU: 0x381BF, offset: 0x381BF, size: 0x8, addend: 0x0, symName: '__ZNSt3__116forward_as_tupleB8ue170006IJNS_9allocatorIZZ9test_fontRN3xpf9IRendererEENK3$_0clES4_EUlvE0_EEEEENS_5tupleIJDpOT_EEESB_', symObjAddr: 0xDA24, symBinAddr: 0x100011E6C, symSize: 0x2C }
  - { offsetInCU: 0x38224, offset: 0x38224, size: 0x8, addend: 0x0, symName: '__ZNSt3__13getB8ue170006ILm0EJOZZ9test_fontRN3xpf9IRendererEENK3$_0clES3_EUlvE0_EEERNS_13tuple_elementIXT_ENS_5tupleIJDpT0_EEEE4typeERSB_', symObjAddr: 0xDD44, symBinAddr: 0x10001218C, symSize: 0x24 }
  - { offsetInCU: 0x38267, offset: 0x38267, size: 0x8, addend: 0x0, symName: '__ZNSt3__13getB8ue170006ILm0EJONS_9allocatorIZZ9test_fontRN3xpf9IRendererEENK3$_0clES4_EUlvE0_EEEEERNS_13tuple_elementIXT_ENS_5tupleIJDpT0_EEEE4typeERSD_', symObjAddr: 0xDD80, symBinAddr: 0x1000121C8, symSize: 0x24 }
  - { offsetInCU: 0x38442, offset: 0x38442, size: 0x8, addend: 0x0, symName: '__ZNSt3__116forward_as_tupleB8ue170006IJRKZZ9test_fontRN3xpf9IRendererEENK3$_0clES3_EUlvE0_EEENS_5tupleIJDpOT_EEESB_', symObjAddr: 0xE17C, symBinAddr: 0x1000125C4, symSize: 0x2C }
  - { offsetInCU: 0x38492, offset: 0x38492, size: 0x8, addend: 0x0, symName: '__ZNSt3__13getB8ue170006ILm0EJRKZZ9test_fontRN3xpf9IRendererEENK3$_0clES3_EUlvE0_EEERNS_13tuple_elementIXT_ENS_5tupleIJDpT0_EEEE4typeERSC_', symObjAddr: 0xE374, symBinAddr: 0x1000127BC, symSize: 0x24 }
  - { offsetInCU: 0x384D5, offset: 0x384D5, size: 0x8, addend: 0x0, symName: '__ZNSt3__116forward_as_tupleB8ue170006IJRKNS_9allocatorIZZ9test_fontRN3xpf9IRendererEENK3$_0clES4_EUlvE0_EEEEENS_5tupleIJDpOT_EEESD_', symObjAddr: 0xE6D0, symBinAddr: 0x100012B18, symSize: 0x2C }
  - { offsetInCU: 0x38525, offset: 0x38525, size: 0x8, addend: 0x0, symName: '__ZNSt3__13getB8ue170006ILm0EJRKNS_9allocatorIZZ9test_fontRN3xpf9IRendererEENK3$_0clES4_EUlvE0_EEEEERNS_13tuple_elementIXT_ENS_5tupleIJDpT0_EEEE4typeERSE_', symObjAddr: 0xE8B4, symBinAddr: 0x100012CFC, symSize: 0x24 }
  - { offsetInCU: 0x38568, offset: 0x38568, size: 0x8, addend: 0x0, symName: '__ZNSt3__18__invokeB8ue170006IRZZ9test_fontRN3xpf9IRendererEENK3$_0clES3_EUlvE0_JEEEDTclclsr3stdE7declvalIT_EEspclsr3stdE7declvalIT0_EEEEOS7_DpOS8_', symObjAddr: 0xE984, symBinAddr: 0x100012DCC, symSize: 0x2C }
  - { offsetInCU: 0x385A6, offset: 0x385A6, size: 0x8, addend: 0x0, symName: __ZNSt3__113__countl_zeroB8ue170006IjEEiT_, symObjAddr: 0xEF2C, symBinAddr: 0x100013374, symSize: 0x54 }
  - { offsetInCU: 0x385FF, offset: 0x385FF, size: 0x8, addend: 0x0, symName: __ZNSt3__112__libcpp_clzB8ue170006Ej, symObjAddr: 0xF3C4, symBinAddr: 0x10001380C, symSize: 0x18 }
  - { offsetInCU: 0x38BD3, offset: 0x38BD3, size: 0x8, addend: 0x0, symName: '__ZNSt3__116forward_as_tupleB8ue170006IJZZ9test_fontRN3xpf9IRendererEENK3$_0clES3_EUlvE1_EEENS_5tupleIJDpOT_EEES9_', symObjAddr: 0xFE18, symBinAddr: 0x100014260, symSize: 0x2C }
  - { offsetInCU: 0x38C0E, offset: 0x38C0E, size: 0x8, addend: 0x0, symName: '__ZNSt3__116forward_as_tupleB8ue170006IJNS_9allocatorIZZ9test_fontRN3xpf9IRendererEENK3$_0clES4_EUlvE1_EEEEENS_5tupleIJDpOT_EEESB_', symObjAddr: 0xFE44, symBinAddr: 0x10001428C, symSize: 0x2C }
  - { offsetInCU: 0x38C73, offset: 0x38C73, size: 0x8, addend: 0x0, symName: '__ZNSt3__13getB8ue170006ILm0EJOZZ9test_fontRN3xpf9IRendererEENK3$_0clES3_EUlvE1_EEERNS_13tuple_elementIXT_ENS_5tupleIJDpT0_EEEE4typeERSB_', symObjAddr: 0x10164, symBinAddr: 0x1000145AC, symSize: 0x24 }
  - { offsetInCU: 0x38CB6, offset: 0x38CB6, size: 0x8, addend: 0x0, symName: '__ZNSt3__13getB8ue170006ILm0EJONS_9allocatorIZZ9test_fontRN3xpf9IRendererEENK3$_0clES4_EUlvE1_EEEEERNS_13tuple_elementIXT_ENS_5tupleIJDpT0_EEEE4typeERSD_', symObjAddr: 0x101A0, symBinAddr: 0x1000145E8, symSize: 0x24 }
  - { offsetInCU: 0x38E91, offset: 0x38E91, size: 0x8, addend: 0x0, symName: '__ZNSt3__116forward_as_tupleB8ue170006IJRKZZ9test_fontRN3xpf9IRendererEENK3$_0clES3_EUlvE1_EEENS_5tupleIJDpOT_EEESB_', symObjAddr: 0x1059C, symBinAddr: 0x1000149E4, symSize: 0x2C }
  - { offsetInCU: 0x38EE1, offset: 0x38EE1, size: 0x8, addend: 0x0, symName: '__ZNSt3__13getB8ue170006ILm0EJRKZZ9test_fontRN3xpf9IRendererEENK3$_0clES3_EUlvE1_EEERNS_13tuple_elementIXT_ENS_5tupleIJDpT0_EEEE4typeERSC_', symObjAddr: 0x10794, symBinAddr: 0x100014BDC, symSize: 0x24 }
  - { offsetInCU: 0x38F24, offset: 0x38F24, size: 0x8, addend: 0x0, symName: '__ZNSt3__116forward_as_tupleB8ue170006IJRKNS_9allocatorIZZ9test_fontRN3xpf9IRendererEENK3$_0clES4_EUlvE1_EEEEENS_5tupleIJDpOT_EEESD_', symObjAddr: 0x10AF4, symBinAddr: 0x100014F3C, symSize: 0x2C }
  - { offsetInCU: 0x38F74, offset: 0x38F74, size: 0x8, addend: 0x0, symName: '__ZNSt3__13getB8ue170006ILm0EJRKNS_9allocatorIZZ9test_fontRN3xpf9IRendererEENK3$_0clES4_EUlvE1_EEEEERNS_13tuple_elementIXT_ENS_5tupleIJDpT0_EEEE4typeERSE_', symObjAddr: 0x10CD8, symBinAddr: 0x100015120, symSize: 0x24 }
  - { offsetInCU: 0x38FB7, offset: 0x38FB7, size: 0x8, addend: 0x0, symName: '__ZNSt3__18__invokeB8ue170006IRZZ9test_fontRN3xpf9IRendererEENK3$_0clES3_EUlvE1_JEEEDTclclsr3stdE7declvalIT_EEspclsr3stdE7declvalIT0_EEEEOS7_DpOS8_', symObjAddr: 0x10DA8, symBinAddr: 0x1000151F0, symSize: 0x2C }
  - { offsetInCU: 0x38FF5, offset: 0x38FF5, size: 0x8, addend: 0x0, symName: __ZNSt3__112__to_addressB8ue170006IN3xpf14PolyLineVertexEEEPT_S4_, symObjAddr: 0x11A1C, symBinAddr: 0x100015E64, symSize: 0x14 }
  - { offsetInCU: 0x3902B, offset: 0x3902B, size: 0x8, addend: 0x0, symName: __ZNSt3__110destroy_atB8ue170006IN3xpf14PolyLineVertexELi0EEEvPT_, symObjAddr: 0x11A30, symBinAddr: 0x100015E78, symSize: 0x24 }
  - { offsetInCU: 0x39063, offset: 0x39063, size: 0x8, addend: 0x0, symName: __ZNSt3__112__destroy_atB8ue170006IN3xpf14PolyLineVertexELi0EEEvPT_, symObjAddr: 0x11A54, symBinAddr: 0x100015E9C, symSize: 0x10 }
  - { offsetInCU: 0x3909A, offset: 0x3909A, size: 0x8, addend: 0x0, symName: __ZNSt3__112__to_addressB8ue170006INS_10shared_ptrIN3xpf13RenderCommandEEEEEPT_S6_, symObjAddr: 0x11F04, symBinAddr: 0x10001634C, symSize: 0x14 }
  - { offsetInCU: 0x390D0, offset: 0x390D0, size: 0x8, addend: 0x0, symName: __ZNSt3__110destroy_atB8ue170006INS_10shared_ptrIN3xpf13RenderCommandEEELi0EEEvPT_, symObjAddr: 0x11F18, symBinAddr: 0x100016360, symSize: 0x24 }
  - { offsetInCU: 0x39108, offset: 0x39108, size: 0x8, addend: 0x0, symName: __ZNSt3__112__destroy_atB8ue170006INS_10shared_ptrIN3xpf13RenderCommandEEELi0EEEvPT_, symObjAddr: 0x11F3C, symBinAddr: 0x100016384, symSize: 0x24 }
  - { offsetInCU: 0x3913F, offset: 0x3913F, size: 0x8, addend: 0x0, symName: __ZNSt3__134__libcpp_atomic_refcount_decrementB8ue170006IlEET_RS1_, symObjAddr: 0x12098, symBinAddr: 0x1000164E0, symSize: 0x30 }
  - { offsetInCU: 0x39174, offset: 0x39174, size: 0x8, addend: 0x0, symName: __ZNSt3__112__to_addressB8ue170006IfEEPT_S2_, symObjAddr: 0x125BC, symBinAddr: 0x100016A04, symSize: 0x14 }
  - { offsetInCU: 0x391AA, offset: 0x391AA, size: 0x8, addend: 0x0, symName: __ZNSt3__110destroy_atB8ue170006IfLi0EEEvPT_, symObjAddr: 0x125D0, symBinAddr: 0x100016A18, symSize: 0x24 }
  - { offsetInCU: 0x391E2, offset: 0x391E2, size: 0x8, addend: 0x0, symName: __ZNSt3__112__destroy_atB8ue170006IfLi0EEEvPT_, symObjAddr: 0x125F4, symBinAddr: 0x100016A3C, symSize: 0x10 }
  - { offsetInCU: 0x3924D, offset: 0x3924D, size: 0x8, addend: 0x0, symName: __ZNSt3__110destroy_atB8ue170006IPN3xpf9TweenBaseELi0EEEvPT_, symObjAddr: 0x14068, symBinAddr: 0x1000184B0, symSize: 0x24 }
  - { offsetInCU: 0x39285, offset: 0x39285, size: 0x8, addend: 0x0, symName: __ZNSt3__112__destroy_atB8ue170006IPN3xpf9TweenBaseELi0EEEvPT_, symObjAddr: 0x1408C, symBinAddr: 0x1000184D4, symSize: 0x10 }
  - { offsetInCU: 0x3937D, offset: 0x3937D, size: 0x8, addend: 0x0, symName: __ZNSt3__110destroy_atB8ue170006INS_4pairIKNS_12basic_stringIcNS_11char_traitsIcEENS_9allocatorIcEEEENS_10shared_ptrIN3xpf4FontEEEEELi0EEEvPT_, symObjAddr: 0x150D4, symBinAddr: 0x10001951C, symSize: 0x24 }
  - { offsetInCU: 0x393B5, offset: 0x393B5, size: 0x8, addend: 0x0, symName: __ZNSt3__112__destroy_atB8ue170006INS_4pairIKNS_12basic_stringIcNS_11char_traitsIcEENS_9allocatorIcEEEENS_10shared_ptrIN3xpf4FontEEEEELi0EEEvPT_, symObjAddr: 0x150F8, symBinAddr: 0x100019540, symSize: 0x24 }
  - { offsetInCU: 0x393ED, offset: 0x393ED, size: 0x8, addend: 0x0, symName: __ZNSt3__17launderB8ue170006INS_4pairIKNS_12basic_stringIcNS_11char_traitsIcEENS_9allocatorIcEEEENS_10shared_ptrIN3xpf4FontEEEEEEEPT_SF_, symObjAddr: 0x15224, symBinAddr: 0x10001966C, symSize: 0x24 }
  - { offsetInCU: 0x39426, offset: 0x39426, size: 0x8, addend: 0x0, symName: __ZNSt3__19__launderB8ue170006INS_4pairIKNS_12basic_stringIcNS_11char_traitsIcEENS_9allocatorIcEEEENS_10shared_ptrIN3xpf4FontEEEEEEEPT_SF_, symObjAddr: 0x15248, symBinAddr: 0x100019690, symSize: 0x14 }
  - { offsetInCU: 0x3A159, offset: 0x3A159, size: 0x8, addend: 0x0, symName: __ZSt28__throw_bad_array_new_lengthB8ue170006v, symObjAddr: 0x2DE0, symBinAddr: 0x100007228, symSize: 0x34 }
  - { offsetInCU: 0x3A36D, offset: 0x3A36D, size: 0x8, addend: 0x0, symName: __ZN3xpf5Image20s_imageParseCallbackE, symObjAddr: 0x17408, symBinAddr: 0x100171BE8, symSize: 0x0 }
  - { offsetInCU: 0x3A71E, offset: 0x3A71E, size: 0x8, addend: 0x0, symName: __ZN3xpf3Log5s_logE, symObjAddr: 0x17430, symBinAddr: 0x100171C10, symSize: 0x0 }
  - { offsetInCU: 0x3AA27, offset: 0x3AA27, size: 0x8, addend: 0x0, symName: __ZN3xpf12TweenService8m_tweensE, symObjAddr: 0x17450, symBinAddr: 0x100171C30, symSize: 0x0 }
  - { offsetInCU: 0x3B1D5, offset: 0x3B1D5, size: 0x8, addend: 0x0, symName: __ZN3xpf12TweenService13m_tween_mutexE, symObjAddr: 0x17480, symBinAddr: 0x100171C60, symSize: 0x0 }
  - { offsetInCU: 0x3B1E9, offset: 0x3B1E9, size: 0x8, addend: 0x0, symName: __ZN3xpf12TweenService13m_timerThreadE, symObjAddr: 0x174C8, symBinAddr: 0x100171CA8, symSize: 0x0 }
  - { offsetInCU: 0x3B1FD, offset: 0x3B1FD, size: 0x8, addend: 0x0, symName: __ZN3xpf8ITexture13TextureLoaderE, symObjAddr: 0x174D8, symBinAddr: 0x100171CB8, symSize: 0x0 }
  - { offsetInCU: 0x3B339, offset: 0x3B339, size: 0x8, addend: 0x0, symName: __ZN3xpf6random16s_uniformDist255E, symObjAddr: 0x17500, symBinAddr: 0x100171CE0, symSize: 0x0 }
  - { offsetInCU: 0x3B39C, offset: 0x3B39C, size: 0x8, addend: 0x0, symName: __ZN3xpf6random5m_rngE, symObjAddr: 0x17510, symBinAddr: 0x100171CF0, symSize: 0x0 }
  - { offsetInCU: 0x3B3B0, offset: 0x3B3B0, size: 0x8, addend: 0x0, symName: __ZN3xpf6Window18m_window2windowmapE, symObjAddr: 0x17EE0, symBinAddr: 0x1001726C0, symSize: 0x0 }
  - { offsetInCU: 0x3C00C, offset: 0x3C00C, size: 0x8, addend: 0x0, symName: __ZN3xpf4Font12s_fontLoaderE, symObjAddr: 0x17F00, symBinAddr: 0x1001726E0, symSize: 0x0 }
  - { offsetInCU: 0x3D14B, offset: 0x3D14B, size: 0x8, addend: 0x0, symName: __ZN3xpf4Font16s_installedFontsE, symObjAddr: 0x17F28, symBinAddr: 0x100172708, symSize: 0x0 }
  - { offsetInCU: 0x3D15F, offset: 0x3D15F, size: 0x8, addend: 0x0, symName: __ZN3xpf4Font19s_failedToLoadFontsE, symObjAddr: 0x17F58, symBinAddr: 0x100172738, symSize: 0x0 }
  - { offsetInCU: 0x3D173, offset: 0x3D173, size: 0x8, addend: 0x0, symName: __ZN3xpf10FileSystem17m_binary_callbackE, symObjAddr: 0x17F88, symBinAddr: 0x100172768, symSize: 0x0 }
  - { offsetInCU: 0x3D2CD, offset: 0x3D2CD, size: 0x8, addend: 0x0, symName: __ZN3xpf10FileSystem15m_text_callbackE, symObjAddr: 0x17FB0, symBinAddr: 0x100172790, symSize: 0x0 }
  - { offsetInCU: 0x3D2DB, offset: 0x3D2DB, size: 0x8, addend: 0x0, symName: __Z9test_fontRN3xpf9IRendererE, symObjAddr: 0x1448, symBinAddr: 0x100005890, symSize: 0x108 }
  - { offsetInCU: 0x3D302, offset: 0x3D302, size: 0x8, addend: 0x0, symName: __ZZ9test_fontRN3xpf9IRendererEE11batchedCmds, symObjAddr: 0x156388, symBinAddr: 0x1001742E0, symSize: 0x0 }
  - { offsetInCU: 0x3D388, offset: 0x3D388, size: 0x8, addend: 0x0, symName: __ZN3xpf3Log14report_to_coutE, symObjAddr: 0x17FD8, symBinAddr: 0x1001727B8, symSize: 0x0 }
  - { offsetInCU: 0x3D39C, offset: 0x3D39C, size: 0x8, addend: 0x0, symName: __ZN3xpf4Time13m_update_timeE, symObjAddr: 0x17FE0, symBinAddr: 0x1001727C0, symSize: 0x0 }
  - { offsetInCU: 0x3DB8D, offset: 0x3DB8D, size: 0x8, addend: 0x0, symName: __ZNSt3__16vectorIN3xpf13lerp_intervalENS_9allocatorIS2_EEE26__swap_out_circular_bufferERNS_14__split_bufferIS2_RS4_EE, symObjAddr: 0x2744, symBinAddr: 0x100006B8C, symSize: 0x110 }
  - { offsetInCU: 0x3DC05, offset: 0x3DC05, size: 0x8, addend: 0x0, symName: '__ZZ9test_fontRN3xpf9IRendererEENK3$_0clES1_', symObjAddr: 0x1550, symBinAddr: 0x100005998, symSize: 0xCC8 }
  - { offsetInCU: 0x3E254, offset: 0x3E254, size: 0x8, addend: 0x0, symName: __ZNSt3__16vectorINS_12basic_stringIcNS_11char_traitsIcEENS_9allocatorIcEEEENS4_IS6_EEE26__swap_out_circular_bufferERNS_14__split_bufferIS6_RS7_EE, symObjAddr: 0x85FC, symBinAddr: 0x10000CA44, symSize: 0x110 }
  - { offsetInCU: 0x3E3E8, offset: 0x3E3E8, size: 0x8, addend: 0x0, symName: __ZNSt3__16vectorIhNS_9allocatorIhEEE26__swap_out_circular_bufferERNS_14__split_bufferIhRS2_EEPh, symObjAddr: 0xADE4, symBinAddr: 0x10000F22C, symSize: 0x14C }
  - { offsetInCU: 0x3E6F1, offset: 0x3E6F1, size: 0x8, addend: 0x0, symName: __ZNSt3__124uniform_int_distributionIjEclINS_23mersenne_twister_engineIjLm32ELm624ELm397ELm31ELj2567483615ELm11ELj4294967295ELm7ELj2636928640ELm15ELj4022730752ELm18ELj1812433253EEEEEjRT_RKNS1_10param_typeE, symObjAddr: 0xED14, symBinAddr: 0x10001315C, symSize: 0x188 }
  - { offsetInCU: 0x40CE4, offset: 0x40CE4, size: 0x8, addend: 0x0, symName: __ZNSt3__16vectorIN3xpf13lerp_intervalENS_9allocatorIS2_EEED1B8ue170006Ev, symObjAddr: 0x150, symBinAddr: 0x100004598, symSize: 0x2C }
  - { offsetInCU: 0x40D0E, offset: 0x40D0E, size: 0x8, addend: 0x0, symName: __ZNSt3__18functionIFN3xpf5ImageENS_17basic_string_viewIcNS_11char_traitsIcEEEEONS_6vectorIhNS_9allocatorIhEEEEEEC1B8ue170006Ev, symObjAddr: 0x17C, symBinAddr: 0x1000045C4, symSize: 0x2C }
  - { offsetInCU: 0x40D38, offset: 0x40D38, size: 0x8, addend: 0x0, symName: __ZNSt3__18functionIFN3xpf5ImageENS_17basic_string_viewIcNS_11char_traitsIcEEEEONS_6vectorIhNS_9allocatorIhEEEEEED1Ev, symObjAddr: 0x1A8, symBinAddr: 0x1000045F0, symSize: 0x2C }
  - { offsetInCU: 0x40D64, offset: 0x40D64, size: 0x8, addend: 0x0, symName: __ZNSt3__16vectorINS_12basic_stringIcNS_11char_traitsIcEENS_9allocatorIcEEEENS4_IS6_EEED1B8ue170006Ev, symObjAddr: 0x1D4, symBinAddr: 0x10000461C, symSize: 0x2C }
  - { offsetInCU: 0x40D8E, offset: 0x40D8E, size: 0x8, addend: 0x0, symName: __ZNSt3__113unordered_setIPN3xpf9TweenBaseENS_4hashIS3_EENS_8equal_toIS3_EENS_9allocatorIS3_EEEC1B8ue170006Ev, symObjAddr: 0x200, symBinAddr: 0x100004648, symSize: 0x2C }
  - { offsetInCU: 0x40DB8, offset: 0x40DB8, size: 0x8, addend: 0x0, symName: __ZNSt3__113unordered_setIPN3xpf9TweenBaseENS_4hashIS3_EENS_8equal_toIS3_EENS_9allocatorIS3_EEED1B8ue170006Ev, symObjAddr: 0x22C, symBinAddr: 0x100004674, symSize: 0x2C }
  - { offsetInCU: 0x40DE2, offset: 0x40DE2, size: 0x8, addend: 0x0, symName: __ZNSt3__16threadC1B8ue170006Ev, symObjAddr: 0x258, symBinAddr: 0x1000046A0, symSize: 0x2C }
  - { offsetInCU: 0x40E0C, offset: 0x40E0C, size: 0x8, addend: 0x0, symName: __ZNSt3__18functionIFNS_10shared_ptrIN3xpf8ITextureEEEONS_6vectorIhNS_9allocatorIhEEEEjjNS2_11PixelFormatEtEEC1B8ue170006Ev, symObjAddr: 0x284, symBinAddr: 0x1000046CC, symSize: 0x2C }
  - { offsetInCU: 0x40E36, offset: 0x40E36, size: 0x8, addend: 0x0, symName: __ZNSt3__18functionIFNS_10shared_ptrIN3xpf8ITextureEEEONS_6vectorIhNS_9allocatorIhEEEEjjNS2_11PixelFormatEtEED1Ev, symObjAddr: 0x2B0, symBinAddr: 0x1000046F8, symSize: 0x2C }
  - { offsetInCU: 0x40E62, offset: 0x40E62, size: 0x8, addend: 0x0, symName: __ZNSt3__124uniform_int_distributionIjEC1B8ue170006Ejj, symObjAddr: 0x2DC, symBinAddr: 0x100004724, symSize: 0x3C }
  - { offsetInCU: 0x40EA8, offset: 0x40EA8, size: 0x8, addend: 0x0, symName: __ZNSt3__123mersenne_twister_engineIjLm32ELm624ELm397ELm31ELj2567483615ELm11ELj4294967295ELm7ELj2636928640ELm15ELj4022730752ELm18ELj1812433253EEC1B8ue170006Ev, symObjAddr: 0x318, symBinAddr: 0x100004760, symSize: 0x30 }
  - { offsetInCU: 0x40ED2, offset: 0x40ED2, size: 0x8, addend: 0x0, symName: __ZNSt3__16vectorINS_4pairIP10GLFWwindowPN3xpf6WindowEEENS_9allocatorIS7_EEED1B8ue170006Ev, symObjAddr: 0x348, symBinAddr: 0x100004790, symSize: 0x2C }
  - { offsetInCU: 0x40EFC, offset: 0x40EFC, size: 0x8, addend: 0x0, symName: __ZNSt3__18functionIFNS_6vectorIhNS_9allocatorIhEEEENS_17basic_string_viewIcNS_11char_traitsIcEEEEEEC1B8ue170006Ev, symObjAddr: 0x374, symBinAddr: 0x1000047BC, symSize: 0x2C }
  - { offsetInCU: 0x40F26, offset: 0x40F26, size: 0x8, addend: 0x0, symName: __ZNSt3__18functionIFNS_6vectorIhNS_9allocatorIhEEEENS_17basic_string_viewIcNS_11char_traitsIcEEEEEED1Ev, symObjAddr: 0x3A0, symBinAddr: 0x1000047E8, symSize: 0x2C }
  - { offsetInCU: 0x40F52, offset: 0x40F52, size: 0x8, addend: 0x0, symName: __ZNSt3__113unordered_mapINS_12basic_stringIcNS_11char_traitsIcEENS_9allocatorIcEEEENS_10shared_ptrIN3xpf4FontEEENS_4hashIS6_EENS_8equal_toIS6_EENS4_INS_4pairIKS6_SA_EEEEEC1B8ue170006Ev, symObjAddr: 0x3CC, symBinAddr: 0x100004814, symSize: 0x2C }
  - { offsetInCU: 0x40F7C, offset: 0x40F7C, size: 0x8, addend: 0x0, symName: __ZNSt3__113unordered_mapINS_12basic_stringIcNS_11char_traitsIcEENS_9allocatorIcEEEENS_10shared_ptrIN3xpf4FontEEENS_4hashIS6_EENS_8equal_toIS6_EENS4_INS_4pairIKS6_SA_EEEEED1B8ue170006Ev, symObjAddr: 0x3F8, symBinAddr: 0x100004840, symSize: 0x2C }
  - { offsetInCU: 0x40FA6, offset: 0x40FA6, size: 0x8, addend: 0x0, symName: __ZNSt3__113unordered_setINS_12basic_stringIcNS_11char_traitsIcEENS_9allocatorIcEEEENS_4hashIS6_EENS_8equal_toIS6_EENS4_IS6_EEEC1B8ue170006Ev, symObjAddr: 0x424, symBinAddr: 0x10000486C, symSize: 0x2C }
  - { offsetInCU: 0x40FD0, offset: 0x40FD0, size: 0x8, addend: 0x0, symName: __ZNSt3__113unordered_setINS_12basic_stringIcNS_11char_traitsIcEENS_9allocatorIcEEEENS_4hashIS6_EENS_8equal_toIS6_EENS4_IS6_EEED1B8ue170006Ev, symObjAddr: 0x450, symBinAddr: 0x100004898, symSize: 0x2C }
  - { offsetInCU: 0x40FFA, offset: 0x40FFA, size: 0x8, addend: 0x0, symName: __ZNSt3__18functionIFNS_6vectorIhNS_9allocatorIhEEEEN3xpf13string_viewexEEEC1B8ue170006Ev, symObjAddr: 0x47C, symBinAddr: 0x1000048C4, symSize: 0x2C }
  - { offsetInCU: 0x41024, offset: 0x41024, size: 0x8, addend: 0x0, symName: __ZNSt3__18functionIFNS_6vectorIhNS_9allocatorIhEEEEN3xpf13string_viewexEEED1Ev, symObjAddr: 0x4A8, symBinAddr: 0x1000048F0, symSize: 0x2C }
  - { offsetInCU: 0x41050, offset: 0x41050, size: 0x8, addend: 0x0, symName: __ZNSt3__18functionIFNS_12basic_stringIcNS_11char_traitsIcEENS_9allocatorIcEEEEN3xpf13string_viewexEEEC1B8ue170006Ev, symObjAddr: 0x4D4, symBinAddr: 0x10000491C, symSize: 0x2C }
  - { offsetInCU: 0x4107A, offset: 0x4107A, size: 0x8, addend: 0x0, symName: __ZNSt3__18functionIFNS_12basic_stringIcNS_11char_traitsIcEENS_9allocatorIcEEEEN3xpf13string_viewexEEED1Ev, symObjAddr: 0x500, symBinAddr: 0x100004948, symSize: 0x2C }
  - { offsetInCU: 0x410A6, offset: 0x410A6, size: 0x8, addend: 0x0, symName: __Z11bezier_testRN3xpf9IRendererE, symObjAddr: 0x52C, symBinAddr: 0x100004974, symSize: 0x3B4 }
  - { offsetInCU: 0x4116A, offset: 0x4116A, size: 0x8, addend: 0x0, symName: __ZN3xpf4v2_tC1Eff, symObjAddr: 0x8E0, symBinAddr: 0x100004D28, symSize: 0x3C }
  - { offsetInCU: 0x411B0, offset: 0x411B0, size: 0x8, addend: 0x0, symName: __ZL23CalculateQuadraticRootsfff, symObjAddr: 0x91C, symBinAddr: 0x100004D64, symSize: 0x12C }
  - { offsetInCU: 0x4124D, offset: 0x4124D, size: 0x8, addend: 0x0, symName: __ZL22DrawPointOnBezierCurveIN3xpf9IRendererEEbRT_fNS0_4v2_tES4_S4_f, symObjAddr: 0xA90, symBinAddr: 0x100004ED8, symSize: 0x1EC }
  - { offsetInCU: 0x41301, offset: 0x41301, size: 0x8, addend: 0x0, symName: __ZNKSt3__112basic_stringIcNS_11char_traitsIcEENS_9allocatorIcEEEcvNS_17basic_string_viewIcS2_EEB8ue170006Ev, symObjAddr: 0xCFC, symBinAddr: 0x100005144, symSize: 0x50 }
  - { offsetInCU: 0x41327, offset: 0x41327, size: 0x8, addend: 0x0, symName: __ZNSt3__117basic_string_viewIcNS_11char_traitsIcEEEC1B8ue170006EPKc, symObjAddr: 0xD4C, symBinAddr: 0x100005194, symSize: 0x34 }
  - { offsetInCU: 0x41361, offset: 0x41361, size: 0x8, addend: 0x0, symName: __ZN3xpf8stringexD1Ev, symObjAddr: 0xD80, symBinAddr: 0x1000051C8, symSize: 0x2C }
  - { offsetInCU: 0x4138C, offset: 0x4138C, size: 0x8, addend: 0x0, symName: __Z18IsPointInsizeGlyphN3xpf4v2_tEP12stbtt_vertexi, symObjAddr: 0xDAC, symBinAddr: 0x1000051F4, symSize: 0x3C4 }
  - { offsetInCU: 0x414C9, offset: 0x414C9, size: 0x8, addend: 0x0, symName: __ZL28CountHorizontalIntersectionsN3xpf4v2_tES0_S0_S0_, symObjAddr: 0x1170, symBinAddr: 0x1000055B8, symSize: 0x240 }
  - { offsetInCU: 0x4157F, offset: 0x4157F, size: 0x8, addend: 0x0, symName: __ZN3xpf4v2_t9mid_pointES0_S0_, symObjAddr: 0x13B0, symBinAddr: 0x1000057F8, symSize: 0x64 }
  - { offsetInCU: 0x415B0, offset: 0x415B0, size: 0x8, addend: 0x0, symName: __Z9mouse_posv, symObjAddr: 0x1414, symBinAddr: 0x10000585C, symSize: 0x34 }
  - { offsetInCU: 0x415CE, offset: 0x415CE, size: 0x8, addend: 0x0, symName: __ZN3xpf11RenderBatchD1Ev, symObjAddr: 0x2218, symBinAddr: 0x100006660, symSize: 0x2C }
  - { offsetInCU: 0x415FA, offset: 0x415FA, size: 0x8, addend: 0x0, symName: _main, symObjAddr: 0x2244, symBinAddr: 0x10000668C, symSize: 0x7C }
  - { offsetInCU: 0x416B0, offset: 0x416B0, size: 0x8, addend: 0x0, symName: __ZN5MyAppC1Ev, symObjAddr: 0x22C0, symBinAddr: 0x100006708, symSize: 0x2C }
  - { offsetInCU: 0x416DA, offset: 0x416DA, size: 0x8, addend: 0x0, symName: __ZN5MyAppD1Ev, symObjAddr: 0x22EC, symBinAddr: 0x100006734, symSize: 0x2C }
  - { offsetInCU: 0x41707, offset: 0x41707, size: 0x8, addend: 0x0, symName: __ZNSt3__16vectorIN3xpf13lerp_intervalENS_9allocatorIS2_EEEC1B8ue170006Ev, symObjAddr: 0x2318, symBinAddr: 0x100006760, symSize: 0x2C }
  - { offsetInCU: 0x41731, offset: 0x41731, size: 0x8, addend: 0x0, symName: __ZNSt3__16vectorIN3xpf13lerp_intervalENS_9allocatorIS2_EEE7reserveEm, symObjAddr: 0x2344, symBinAddr: 0x10000678C, symSize: 0xE8 }
  - { offsetInCU: 0x41791, offset: 0x41791, size: 0x8, addend: 0x0, symName: __ZNSt3__16vectorIN3xpf13lerp_intervalENS_9allocatorIS2_EEE9push_backB8ue170006EOS2_, symObjAddr: 0x242C, symBinAddr: 0x100006874, symSize: 0x6C }
  - { offsetInCU: 0x417C9, offset: 0x417C9, size: 0x8, addend: 0x0, symName: __ZNSt3__16vectorIN3xpf13lerp_intervalENS_9allocatorIS2_EEEC2B8ue170006Ev, symObjAddr: 0x2498, symBinAddr: 0x1000068E0, symSize: 0x4C }
  - { offsetInCU: 0x417FF, offset: 0x417FF, size: 0x8, addend: 0x0, symName: __ZNSt3__117__compressed_pairIPN3xpf13lerp_intervalENS_9allocatorIS2_EEEC1B8ue170006IDnNS_18__default_init_tagEEEOT_OT0_, symObjAddr: 0x24E4, symBinAddr: 0x10000692C, symSize: 0x3C }
  - { offsetInCU: 0x41857, offset: 0x41857, size: 0x8, addend: 0x0, symName: __ZNSt3__117__compressed_pairIPN3xpf13lerp_intervalENS_9allocatorIS2_EEEC2B8ue170006IDnNS_18__default_init_tagEEEOT_OT0_, symObjAddr: 0x252C, symBinAddr: 0x100006974, symSize: 0x40 }
  - { offsetInCU: 0x418AF, offset: 0x418AF, size: 0x8, addend: 0x0, symName: __ZNSt3__122__compressed_pair_elemIPN3xpf13lerp_intervalELi0ELb0EEC2B8ue170006IDnvEEOT_, symObjAddr: 0x256C, symBinAddr: 0x1000069B4, symSize: 0x1C }
  - { offsetInCU: 0x418F1, offset: 0x418F1, size: 0x8, addend: 0x0, symName: __ZNSt3__122__compressed_pair_elemINS_9allocatorIN3xpf13lerp_intervalEEELi1ELb1EEC2B8ue170006ENS_18__default_init_tagE, symObjAddr: 0x2588, symBinAddr: 0x1000069D0, symSize: 0x2C }
  - { offsetInCU: 0x41925, offset: 0x41925, size: 0x8, addend: 0x0, symName: __ZNSt3__19allocatorIN3xpf13lerp_intervalEEC2B8ue170006Ev, symObjAddr: 0x25B4, symBinAddr: 0x1000069FC, symSize: 0x2C }
  - { offsetInCU: 0x4194F, offset: 0x4194F, size: 0x8, addend: 0x0, symName: __ZNSt3__116__non_trivial_ifILb1ENS_9allocatorIN3xpf13lerp_intervalEEEEC2B8ue170006Ev, symObjAddr: 0x25E0, symBinAddr: 0x100006A28, symSize: 0x14 }
  - { offsetInCU: 0x41979, offset: 0x41979, size: 0x8, addend: 0x0, symName: __ZNKSt3__16vectorIN3xpf13lerp_intervalENS_9allocatorIS2_EEE8capacityB8ue170006Ev, symObjAddr: 0x25F4, symBinAddr: 0x100006A3C, symSize: 0x40 }
  - { offsetInCU: 0x4199F, offset: 0x4199F, size: 0x8, addend: 0x0, symName: __ZNKSt3__16vectorIN3xpf13lerp_intervalENS_9allocatorIS2_EEE8max_sizeEv, symObjAddr: 0x2634, symBinAddr: 0x100006A7C, symSize: 0x60 }
  - { offsetInCU: 0x419C7, offset: 0x419C7, size: 0x8, addend: 0x0, symName: __ZNKSt3__16vectorIN3xpf13lerp_intervalENS_9allocatorIS2_EEE20__throw_length_errorB8ue170006Ev, symObjAddr: 0x2694, symBinAddr: 0x100006ADC, symSize: 0x1C }
  - { offsetInCU: 0x419ED, offset: 0x419ED, size: 0x8, addend: 0x0, symName: __ZNSt3__16vectorIN3xpf13lerp_intervalENS_9allocatorIS2_EEE7__allocB8ue170006Ev, symObjAddr: 0x26B0, symBinAddr: 0x100006AF8, symSize: 0x28 }
  - { offsetInCU: 0x41A13, offset: 0x41A13, size: 0x8, addend: 0x0, symName: __ZNKSt3__16vectorIN3xpf13lerp_intervalENS_9allocatorIS2_EEE4sizeB8ue170006Ev, symObjAddr: 0x26D8, symBinAddr: 0x100006B20, symSize: 0x28 }
  - { offsetInCU: 0x41A39, offset: 0x41A39, size: 0x8, addend: 0x0, symName: __ZNSt3__114__split_bufferIN3xpf13lerp_intervalERNS_9allocatorIS2_EEEC1EmmS5_, symObjAddr: 0x2700, symBinAddr: 0x100006B48, symSize: 0x44 }
  - { offsetInCU: 0x41A8F, offset: 0x41A8F, size: 0x8, addend: 0x0, symName: __ZNSt3__114__split_bufferIN3xpf13lerp_intervalERNS_9allocatorIS2_EEED1Ev, symObjAddr: 0x2854, symBinAddr: 0x100006C9C, symSize: 0x2C }
  - { offsetInCU: 0x41ABB, offset: 0x41ABB, size: 0x8, addend: 0x0, symName: __ZNKSt3__16vectorIN3xpf13lerp_intervalENS_9allocatorIS2_EEE9__end_capB8ue170006Ev, symObjAddr: 0x2880, symBinAddr: 0x100006CC8, symSize: 0x28 }
  - { offsetInCU: 0x41AE1, offset: 0x41AE1, size: 0x8, addend: 0x0, symName: __ZNKSt3__117__compressed_pairIPN3xpf13lerp_intervalENS_9allocatorIS2_EEE5firstB8ue170006Ev, symObjAddr: 0x28A8, symBinAddr: 0x100006CF0, symSize: 0x24 }
  - { offsetInCU: 0x41B07, offset: 0x41B07, size: 0x8, addend: 0x0, symName: __ZNKSt3__122__compressed_pair_elemIPN3xpf13lerp_intervalELi0ELb0EE5__getB8ue170006Ev, symObjAddr: 0x28CC, symBinAddr: 0x100006D14, symSize: 0x14 }
  - { offsetInCU: 0x41B38, offset: 0x41B38, size: 0x8, addend: 0x0, symName: __ZNSt3__116allocator_traitsINS_9allocatorIN3xpf13lerp_intervalEEEE8max_sizeB8ue170006IS4_vvEEmRKS4_, symObjAddr: 0x290C, symBinAddr: 0x100006D54, symSize: 0x28 }
  - { offsetInCU: 0x41B64, offset: 0x41B64, size: 0x8, addend: 0x0, symName: __ZNKSt3__16vectorIN3xpf13lerp_intervalENS_9allocatorIS2_EEE7__allocB8ue170006Ev, symObjAddr: 0x2934, symBinAddr: 0x100006D7C, symSize: 0x28 }
  - { offsetInCU: 0x41B8A, offset: 0x41B8A, size: 0x8, addend: 0x0, symName: __ZNSt3__114numeric_limitsIlE3maxB8ue170006Ev, symObjAddr: 0x295C, symBinAddr: 0x100006DA4, symSize: 0x14 }
  - { offsetInCU: 0x41BA9, offset: 0x41BA9, size: 0x8, addend: 0x0, symName: __ZNKSt3__16__lessIvvEclB8ue170006ImmEEbRKT_RKT0_, symObjAddr: 0x29C4, symBinAddr: 0x100006E0C, symSize: 0x34 }
  - { offsetInCU: 0x41BFD, offset: 0x41BFD, size: 0x8, addend: 0x0, symName: __ZNSt3__114numeric_limitsImE3maxB8ue170006Ev, symObjAddr: 0x29F8, symBinAddr: 0x100006E40, symSize: 0x14 }
  - { offsetInCU: 0x41C11, offset: 0x41C11, size: 0x8, addend: 0x0, symName: __ZNSt3__123__libcpp_numeric_limitsImLb1EE3maxB8ue170006Ev, symObjAddr: 0x2A0C, symBinAddr: 0x100006E54, symSize: 0x8 }
  - { offsetInCU: 0x41C25, offset: 0x41C25, size: 0x8, addend: 0x0, symName: __ZNKSt3__117__compressed_pairIPN3xpf13lerp_intervalENS_9allocatorIS2_EEE6secondB8ue170006Ev, symObjAddr: 0x2A14, symBinAddr: 0x100006E5C, symSize: 0x24 }
  - { offsetInCU: 0x41C4B, offset: 0x41C4B, size: 0x8, addend: 0x0, symName: __ZNKSt3__122__compressed_pair_elemINS_9allocatorIN3xpf13lerp_intervalEEELi1ELb1EE5__getB8ue170006Ev, symObjAddr: 0x2A38, symBinAddr: 0x100006E80, symSize: 0x14 }
  - { offsetInCU: 0x41C71, offset: 0x41C71, size: 0x8, addend: 0x0, symName: __ZNSt3__123__libcpp_numeric_limitsIlLb1EE3maxB8ue170006Ev, symObjAddr: 0x2A4C, symBinAddr: 0x100006E94, symSize: 0x8 }
  - { offsetInCU: 0x41C85, offset: 0x41C85, size: 0x8, addend: 0x0, symName: __ZNSt12length_errorC1B8ue170006EPKc, symObjAddr: 0x2AB8, symBinAddr: 0x100006F00, symSize: 0x34 }
  - { offsetInCU: 0x41CBD, offset: 0x41CBD, size: 0x8, addend: 0x0, symName: __ZNSt12length_errorC2B8ue170006EPKc, symObjAddr: 0x2AEC, symBinAddr: 0x100006F34, symSize: 0x4C }
  - { offsetInCU: 0x41CF5, offset: 0x41CF5, size: 0x8, addend: 0x0, symName: __ZNSt3__117__compressed_pairIPN3xpf13lerp_intervalENS_9allocatorIS2_EEE6secondB8ue170006Ev, symObjAddr: 0x2B38, symBinAddr: 0x100006F80, symSize: 0x24 }
  - { offsetInCU: 0x41D1B, offset: 0x41D1B, size: 0x8, addend: 0x0, symName: __ZNSt3__122__compressed_pair_elemINS_9allocatorIN3xpf13lerp_intervalEEELi1ELb1EE5__getB8ue170006Ev, symObjAddr: 0x2B5C, symBinAddr: 0x100006FA4, symSize: 0x14 }
  - { offsetInCU: 0x41D41, offset: 0x41D41, size: 0x8, addend: 0x0, symName: __ZNSt3__114__split_bufferIN3xpf13lerp_intervalERNS_9allocatorIS2_EEEC2EmmS5_, symObjAddr: 0x2B70, symBinAddr: 0x100006FB8, symSize: 0xE0 }
  - { offsetInCU: 0x41DB5, offset: 0x41DB5, size: 0x8, addend: 0x0, symName: __ZNSt3__117__compressed_pairIPN3xpf13lerp_intervalERNS_9allocatorIS2_EEEC1B8ue170006IDnS6_EEOT_OT0_, symObjAddr: 0x2C50, symBinAddr: 0x100007098, symSize: 0x3C }
  - { offsetInCU: 0x41E0D, offset: 0x41E0D, size: 0x8, addend: 0x0, symName: __ZNSt3__114__split_bufferIN3xpf13lerp_intervalERNS_9allocatorIS2_EEE7__allocB8ue170006Ev, symObjAddr: 0x2CCC, symBinAddr: 0x100007114, symSize: 0x28 }
  - { offsetInCU: 0x41E33, offset: 0x41E33, size: 0x8, addend: 0x0, symName: __ZNSt3__114__split_bufferIN3xpf13lerp_intervalERNS_9allocatorIS2_EEE9__end_capB8ue170006Ev, symObjAddr: 0x2CF4, symBinAddr: 0x10000713C, symSize: 0x28 }
  - { offsetInCU: 0x41E59, offset: 0x41E59, size: 0x8, addend: 0x0, symName: __ZNSt3__117__compressed_pairIPN3xpf13lerp_intervalERNS_9allocatorIS2_EEEC2B8ue170006IDnS6_EEOT_OT0_, symObjAddr: 0x2D1C, symBinAddr: 0x100007164, symSize: 0x48 }
  - { offsetInCU: 0x41EB1, offset: 0x41EB1, size: 0x8, addend: 0x0, symName: __ZNSt3__122__compressed_pair_elemIRNS_9allocatorIN3xpf13lerp_intervalEEELi1ELb0EEC2B8ue170006IS5_vEEOT_, symObjAddr: 0x2D64, symBinAddr: 0x1000071AC, symSize: 0x20 }
  - { offsetInCU: 0x41EF3, offset: 0x41EF3, size: 0x8, addend: 0x0, symName: __ZNSt3__19allocatorIN3xpf13lerp_intervalEE8allocateB8ue170006Em, symObjAddr: 0x2D84, symBinAddr: 0x1000071CC, symSize: 0x5C }
  - { offsetInCU: 0x41F27, offset: 0x41F27, size: 0x8, addend: 0x0, symName: __ZNSt3__117__compressed_pairIPN3xpf13lerp_intervalERNS_9allocatorIS2_EEE6secondB8ue170006Ev, symObjAddr: 0x2EE4, symBinAddr: 0x10000732C, symSize: 0x28 }
  - { offsetInCU: 0x41F4D, offset: 0x41F4D, size: 0x8, addend: 0x0, symName: __ZNSt3__122__compressed_pair_elemIRNS_9allocatorIN3xpf13lerp_intervalEEELi1ELb0EE5__getB8ue170006Ev, symObjAddr: 0x2F0C, symBinAddr: 0x100007354, symSize: 0x18 }
  - { offsetInCU: 0x41F73, offset: 0x41F73, size: 0x8, addend: 0x0, symName: __ZNSt3__117__compressed_pairIPN3xpf13lerp_intervalERNS_9allocatorIS2_EEE5firstB8ue170006Ev, symObjAddr: 0x2F24, symBinAddr: 0x10000736C, symSize: 0x24 }
  - { offsetInCU: 0x41F99, offset: 0x41F99, size: 0x8, addend: 0x0, symName: __ZNSt3__122__compressed_pair_elemIPN3xpf13lerp_intervalELi0ELb0EE5__getB8ue170006Ev, symObjAddr: 0x2F48, symBinAddr: 0x100007390, symSize: 0x14 }
  - { offsetInCU: 0x41FBF, offset: 0x41FBF, size: 0x8, addend: 0x0, symName: __ZNKSt3__16vectorIN3xpf13lerp_intervalENS_9allocatorIS2_EEE17__annotate_deleteB8ue170006Ev, symObjAddr: 0x2F5C, symBinAddr: 0x1000073A4, symSize: 0xD4 }
  - { offsetInCU: 0x41FE5, offset: 0x41FE5, size: 0x8, addend: 0x0, symName: __ZNSt3__116reverse_iteratorIPN3xpf13lerp_intervalEEC1B8ue170006ES3_, symObjAddr: 0x30A8, symBinAddr: 0x1000074F0, symSize: 0x34 }
  - { offsetInCU: 0x4201D, offset: 0x4201D, size: 0x8, addend: 0x0, symName: __ZNKSt3__116reverse_iteratorIPN3xpf13lerp_intervalEE4baseB8ue170006Ev, symObjAddr: 0x30DC, symBinAddr: 0x100007524, symSize: 0x18 }
  - { offsetInCU: 0x42043, offset: 0x42043, size: 0x8, addend: 0x0, symName: __ZNSt3__16vectorIN3xpf13lerp_intervalENS_9allocatorIS2_EEE9__end_capB8ue170006Ev, symObjAddr: 0x3130, symBinAddr: 0x100007578, symSize: 0x28 }
  - { offsetInCU: 0x42069, offset: 0x42069, size: 0x8, addend: 0x0, symName: __ZNKSt3__16vectorIN3xpf13lerp_intervalENS_9allocatorIS2_EEE14__annotate_newB8ue170006Em, symObjAddr: 0x3158, symBinAddr: 0x1000075A0, symSize: 0xC8 }
  - { offsetInCU: 0x4209F, offset: 0x4209F, size: 0x8, addend: 0x0, symName: __ZNKSt3__16vectorIN3xpf13lerp_intervalENS_9allocatorIS2_EEE31__annotate_contiguous_containerB8ue170006EPKvS7_S7_S7_, symObjAddr: 0x3220, symBinAddr: 0x100007668, symSize: 0x20 }
  - { offsetInCU: 0x420F5, offset: 0x420F5, size: 0x8, addend: 0x0, symName: __ZNKSt3__16vectorIN3xpf13lerp_intervalENS_9allocatorIS2_EEE4dataB8ue170006Ev, symObjAddr: 0x3240, symBinAddr: 0x100007688, symSize: 0x28 }
  - { offsetInCU: 0x42143, offset: 0x42143, size: 0x8, addend: 0x0, symName: __ZNKSt3__111__move_loopINS_17_ClassicAlgPolicyEEclB8ue170006INS_16reverse_iteratorIPN3xpf13lerp_intervalEEES8_S8_EENS_4pairIT_T1_EESA_T0_SB_, symObjAddr: 0x3534, symBinAddr: 0x10000797C, symSize: 0xA8 }
  - { offsetInCU: 0x421AE, offset: 0x421AE, size: 0x8, addend: 0x0, symName: __ZNSt3__119__unwrap_range_implINS_16reverse_iteratorIPN3xpf13lerp_intervalEEES5_E8__unwrapB8ue170006ES5_S5_, symObjAddr: 0x3728, symBinAddr: 0x100007B70, symSize: 0x84 }
  - { offsetInCU: 0x421E5, offset: 0x421E5, size: 0x8, addend: 0x0, symName: __ZNSt3__14pairINS_16reverse_iteratorIPN3xpf13lerp_intervalEEES5_EC1B8ue170006IS5_S5_LPv0EEEOT_OT0_, symObjAddr: 0x37AC, symBinAddr: 0x100007BF4, symSize: 0x3C }
  - { offsetInCU: 0x42243, offset: 0x42243, size: 0x8, addend: 0x0, symName: __ZNSt3__14pairINS_16reverse_iteratorIPN3xpf13lerp_intervalEEES5_EC2B8ue170006IS5_S5_LPv0EEEOT_OT0_, symObjAddr: 0x37E8, symBinAddr: 0x100007C30, symSize: 0x34 }
  - { offsetInCU: 0x422A7, offset: 0x422A7, size: 0x8, addend: 0x0, symName: __ZNSt3__18_IterOpsINS_17_ClassicAlgPolicyEE11__iter_moveB8ue170006IRNS_16reverse_iteratorIPN3xpf13lerp_intervalEEEEENS_9enable_ifIXsr12is_referenceIDTdeclsr3stdE7declvalIRT_EEEEE5valueEDTclsr3stdE4movedeclsr3stdE7declvalISC_EEEEE4typeEOSB_, symObjAddr: 0x3864, symBinAddr: 0x100007CAC, symSize: 0x28 }
  - { offsetInCU: 0x422D3, offset: 0x422D3, size: 0x8, addend: 0x0, symName: __ZNKSt3__116reverse_iteratorIPN3xpf13lerp_intervalEEdeB8ue170006Ev, symObjAddr: 0x388C, symBinAddr: 0x100007CD4, symSize: 0x28 }
  - { offsetInCU: 0x42307, offset: 0x42307, size: 0x8, addend: 0x0, symName: __ZNSt3__116reverse_iteratorIPN3xpf13lerp_intervalEEppB8ue170006Ev, symObjAddr: 0x38B4, symBinAddr: 0x100007CFC, symSize: 0x20 }
  - { offsetInCU: 0x4232D, offset: 0x4232D, size: 0x8, addend: 0x0, symName: __ZNSt3__18_IterOpsINS_17_ClassicAlgPolicyEE25__validate_iter_referenceB8ue170006IRNS_16reverse_iteratorIPN3xpf13lerp_intervalEEEEEvv, symObjAddr: 0x38D4, symBinAddr: 0x100007D1C, symSize: 0x4 }
  - { offsetInCU: 0x4234B, offset: 0x4234B, size: 0x8, addend: 0x0, symName: __ZNSt3__118__unwrap_iter_implINS_16reverse_iteratorIPN3xpf13lerp_intervalEEELb0EE8__unwrapB8ue170006ES5_, symObjAddr: 0x38D8, symBinAddr: 0x100007D20, symSize: 0x24 }
  - { offsetInCU: 0x4236E, offset: 0x4236E, size: 0x8, addend: 0x0, symName: __ZNSt3__119__unwrap_range_implINS_16reverse_iteratorIPN3xpf13lerp_intervalEEES5_E8__rewrapB8ue170006ES5_S5_, symObjAddr: 0x38FC, symBinAddr: 0x100007D44, symSize: 0x5C }
  - { offsetInCU: 0x4239F, offset: 0x4239F, size: 0x8, addend: 0x0, symName: __ZNSt3__118__unwrap_iter_implINS_16reverse_iteratorIPN3xpf13lerp_intervalEEELb0EE8__rewrapB8ue170006ES5_S5_, symObjAddr: 0x3958, symBinAddr: 0x100007DA0, symSize: 0x2C }
  - { offsetInCU: 0x423CC, offset: 0x423CC, size: 0x8, addend: 0x0, symName: __ZNSt3__116reverse_iteratorIPN3xpf13lerp_intervalEEC2B8ue170006ES3_, symObjAddr: 0x3984, symBinAddr: 0x100007DCC, symSize: 0x28 }
  - { offsetInCU: 0x42404, offset: 0x42404, size: 0x8, addend: 0x0, symName: __ZNSt3__117__compressed_pairIPN3xpf13lerp_intervalENS_9allocatorIS2_EEE5firstB8ue170006Ev, symObjAddr: 0x39AC, symBinAddr: 0x100007DF4, symSize: 0x24 }
  - { offsetInCU: 0x4242A, offset: 0x4242A, size: 0x8, addend: 0x0, symName: __ZNSt3__114__split_bufferIN3xpf13lerp_intervalERNS_9allocatorIS2_EEED2Ev, symObjAddr: 0x39D0, symBinAddr: 0x100007E18, symSize: 0x8C }
  - { offsetInCU: 0x42456, offset: 0x42456, size: 0x8, addend: 0x0, symName: __ZNSt3__114__split_bufferIN3xpf13lerp_intervalERNS_9allocatorIS2_EEE5clearB8ue170006Ev, symObjAddr: 0x3A5C, symBinAddr: 0x100007EA4, symSize: 0x28 }
  - { offsetInCU: 0x4247C, offset: 0x4247C, size: 0x8, addend: 0x0, symName: __ZNSt3__116allocator_traitsINS_9allocatorIN3xpf13lerp_intervalEEEE10deallocateB8ue170006ERS4_PS3_m, symObjAddr: 0x3A84, symBinAddr: 0x100007ECC, symSize: 0x34 }
  - { offsetInCU: 0x424C1, offset: 0x424C1, size: 0x8, addend: 0x0, symName: __ZNKSt3__114__split_bufferIN3xpf13lerp_intervalERNS_9allocatorIS2_EEE8capacityB8ue170006Ev, symObjAddr: 0x3AB8, symBinAddr: 0x100007F00, symSize: 0x40 }
  - { offsetInCU: 0x424E7, offset: 0x424E7, size: 0x8, addend: 0x0, symName: __ZNSt3__114__split_bufferIN3xpf13lerp_intervalERNS_9allocatorIS2_EEE17__destruct_at_endB8ue170006EPS2_, symObjAddr: 0x3AF8, symBinAddr: 0x100007F40, symSize: 0x2C }
  - { offsetInCU: 0x4251B, offset: 0x4251B, size: 0x8, addend: 0x0, symName: __ZNSt3__114__split_bufferIN3xpf13lerp_intervalERNS_9allocatorIS2_EEE17__destruct_at_endB8ue170006EPS2_NS_17integral_constantIbLb0EEE, symObjAddr: 0x3B24, symBinAddr: 0x100007F6C, symSize: 0x80 }
  - { offsetInCU: 0x4255B, offset: 0x4255B, size: 0x8, addend: 0x0, symName: __ZNSt3__116allocator_traitsINS_9allocatorIN3xpf13lerp_intervalEEEE7destroyB8ue170006IS3_vvEEvRS4_PT_, symObjAddr: 0x3BA4, symBinAddr: 0x100007FEC, symSize: 0x28 }
  - { offsetInCU: 0x42597, offset: 0x42597, size: 0x8, addend: 0x0, symName: __ZNSt3__19allocatorIN3xpf13lerp_intervalEE10deallocateB8ue170006EPS2_m, symObjAddr: 0x3C00, symBinAddr: 0x100008048, symSize: 0x44 }
  - { offsetInCU: 0x425D9, offset: 0x425D9, size: 0x8, addend: 0x0, symName: __ZNKSt3__114__split_bufferIN3xpf13lerp_intervalERNS_9allocatorIS2_EEE9__end_capB8ue170006Ev, symObjAddr: 0x3D4C, symBinAddr: 0x100008194, symSize: 0x28 }
  - { offsetInCU: 0x425FF, offset: 0x425FF, size: 0x8, addend: 0x0, symName: __ZNKSt3__117__compressed_pairIPN3xpf13lerp_intervalERNS_9allocatorIS2_EEE5firstB8ue170006Ev, symObjAddr: 0x3D74, symBinAddr: 0x1000081BC, symSize: 0x24 }
  - { offsetInCU: 0x42625, offset: 0x42625, size: 0x8, addend: 0x0, symName: __ZNSt3__16vectorIN3xpf13lerp_intervalENS_9allocatorIS2_EEE22__construct_one_at_endB8ue170006IJS2_EEEvDpOT_, symObjAddr: 0x3D98, symBinAddr: 0x1000081E0, symSize: 0x90 }
  - { offsetInCU: 0x42676, offset: 0x42676, size: 0x8, addend: 0x0, symName: __ZNSt3__16vectorIN3xpf13lerp_intervalENS_9allocatorIS2_EEE21__push_back_slow_pathIS2_EEvOT_, symObjAddr: 0x3E28, symBinAddr: 0x100008270, symSize: 0xD8 }
  - { offsetInCU: 0x426F3, offset: 0x426F3, size: 0x8, addend: 0x0, symName: __ZNSt3__16vectorIN3xpf13lerp_intervalENS_9allocatorIS2_EEE21_ConstructTransactionC1B8ue170006ERS5_m, symObjAddr: 0x3F00, symBinAddr: 0x100008348, symSize: 0x3C }
  - { offsetInCU: 0x4273D, offset: 0x4273D, size: 0x8, addend: 0x0, symName: __ZNSt3__116allocator_traitsINS_9allocatorIN3xpf13lerp_intervalEEEE9constructB8ue170006IS3_JS3_EvvEEvRS4_PT_DpOT0_, symObjAddr: 0x3F3C, symBinAddr: 0x100008384, symSize: 0x30 }
  - { offsetInCU: 0x42794, offset: 0x42794, size: 0x8, addend: 0x0, symName: __ZNSt3__16vectorIN3xpf13lerp_intervalENS_9allocatorIS2_EEE21_ConstructTransactionD1B8ue170006Ev, symObjAddr: 0x3F6C, symBinAddr: 0x1000083B4, symSize: 0x2C }
  - { offsetInCU: 0x427BE, offset: 0x427BE, size: 0x8, addend: 0x0, symName: __ZNSt3__16vectorIN3xpf13lerp_intervalENS_9allocatorIS2_EEE21_ConstructTransactionC2B8ue170006ERS5_m, symObjAddr: 0x3F98, symBinAddr: 0x1000083E0, symSize: 0x4C }
  - { offsetInCU: 0x42808, offset: 0x42808, size: 0x8, addend: 0x0, symName: __ZNSt3__16vectorIN3xpf13lerp_intervalENS_9allocatorIS2_EEE21_ConstructTransactionD2B8ue170006Ev, symObjAddr: 0x4018, symBinAddr: 0x100008460, symSize: 0x20 }
  - { offsetInCU: 0x42832, offset: 0x42832, size: 0x8, addend: 0x0, symName: __ZNKSt3__16vectorIN3xpf13lerp_intervalENS_9allocatorIS2_EEE11__recommendB8ue170006Em, symObjAddr: 0x4038, symBinAddr: 0x100008480, symSize: 0xB4 }
  - { offsetInCU: 0x4288A, offset: 0x4288A, size: 0x8, addend: 0x0, symName: __ZNSt3__16vectorIN3xpf13lerp_intervalENS_9allocatorIS2_EEED2B8ue170006Ev, symObjAddr: 0x416C, symBinAddr: 0x1000085B4, symSize: 0x44 }
  - { offsetInCU: 0x428B4, offset: 0x428B4, size: 0x8, addend: 0x0, symName: __ZNSt3__16vectorIN3xpf13lerp_intervalENS_9allocatorIS2_EEE16__destroy_vectorC1B8ue170006ERS5_, symObjAddr: 0x41B0, symBinAddr: 0x1000085F8, symSize: 0x34 }
  - { offsetInCU: 0x428EE, offset: 0x428EE, size: 0x8, addend: 0x0, symName: __ZNSt3__16vectorIN3xpf13lerp_intervalENS_9allocatorIS2_EEE16__destroy_vectorclB8ue170006Ev, symObjAddr: 0x41E4, symBinAddr: 0x10000862C, symSize: 0x90 }
  - { offsetInCU: 0x42914, offset: 0x42914, size: 0x8, addend: 0x0, symName: __ZNSt3__16vectorIN3xpf13lerp_intervalENS_9allocatorIS2_EEE16__destroy_vectorC2B8ue170006ERS5_, symObjAddr: 0x4274, symBinAddr: 0x1000086BC, symSize: 0x20 }
  - { offsetInCU: 0x4294E, offset: 0x4294E, size: 0x8, addend: 0x0, symName: __ZNSt3__16vectorIN3xpf13lerp_intervalENS_9allocatorIS2_EEE7__clearB8ue170006Ev, symObjAddr: 0x4294, symBinAddr: 0x1000086DC, symSize: 0x28 }
  - { offsetInCU: 0x42974, offset: 0x42974, size: 0x8, addend: 0x0, symName: __ZNSt3__16vectorIN3xpf13lerp_intervalENS_9allocatorIS2_EEE22__base_destruct_at_endB8ue170006EPS2_, symObjAddr: 0x42BC, symBinAddr: 0x100008704, symSize: 0x8C }
  - { offsetInCU: 0x429BA, offset: 0x429BA, size: 0x8, addend: 0x0, symName: __ZNSt3__16vectorINS_12basic_stringIcNS_11char_traitsIcEENS_9allocatorIcEEEENS4_IS6_EEED2B8ue170006Ev, symObjAddr: 0x4348, symBinAddr: 0x100008790, symSize: 0x44 }
  - { offsetInCU: 0x429E4, offset: 0x429E4, size: 0x8, addend: 0x0, symName: __ZNSt3__16vectorINS_12basic_stringIcNS_11char_traitsIcEENS_9allocatorIcEEEENS4_IS6_EEE16__destroy_vectorC1B8ue170006ERS8_, symObjAddr: 0x438C, symBinAddr: 0x1000087D4, symSize: 0x34 }
  - { offsetInCU: 0x42A1E, offset: 0x42A1E, size: 0x8, addend: 0x0, symName: __ZNSt3__16vectorINS_12basic_stringIcNS_11char_traitsIcEENS_9allocatorIcEEEENS4_IS6_EEE16__destroy_vectorclB8ue170006Ev, symObjAddr: 0x43C0, symBinAddr: 0x100008808, symSize: 0x90 }
  - { offsetInCU: 0x42A44, offset: 0x42A44, size: 0x8, addend: 0x0, symName: __ZNSt3__16vectorINS_12basic_stringIcNS_11char_traitsIcEENS_9allocatorIcEEEENS4_IS6_EEE16__destroy_vectorC2B8ue170006ERS8_, symObjAddr: 0x4450, symBinAddr: 0x100008898, symSize: 0x20 }
  - { offsetInCU: 0x42A7E, offset: 0x42A7E, size: 0x8, addend: 0x0, symName: __ZNSt3__16vectorINS_12basic_stringIcNS_11char_traitsIcEENS_9allocatorIcEEEENS4_IS6_EEE7__clearB8ue170006Ev, symObjAddr: 0x4470, symBinAddr: 0x1000088B8, symSize: 0x28 }
  - { offsetInCU: 0x42AA4, offset: 0x42AA4, size: 0x8, addend: 0x0, symName: __ZNKSt3__16vectorINS_12basic_stringIcNS_11char_traitsIcEENS_9allocatorIcEEEENS4_IS6_EEE17__annotate_deleteB8ue170006Ev, symObjAddr: 0x4498, symBinAddr: 0x1000088E0, symSize: 0xD4 }
  - { offsetInCU: 0x42ACA, offset: 0x42ACA, size: 0x8, addend: 0x0, symName: __ZNSt3__116allocator_traitsINS_9allocatorINS_12basic_stringIcNS_11char_traitsIcEENS1_IcEEEEEEE10deallocateB8ue170006ERS7_PS6_m, symObjAddr: 0x456C, symBinAddr: 0x1000089B4, symSize: 0x34 }
  - { offsetInCU: 0x42B0F, offset: 0x42B0F, size: 0x8, addend: 0x0, symName: __ZNSt3__16vectorINS_12basic_stringIcNS_11char_traitsIcEENS_9allocatorIcEEEENS4_IS6_EEE7__allocB8ue170006Ev, symObjAddr: 0x45A0, symBinAddr: 0x1000089E8, symSize: 0x28 }
  - { offsetInCU: 0x42B35, offset: 0x42B35, size: 0x8, addend: 0x0, symName: __ZNKSt3__16vectorINS_12basic_stringIcNS_11char_traitsIcEENS_9allocatorIcEEEENS4_IS6_EEE8capacityB8ue170006Ev, symObjAddr: 0x45C8, symBinAddr: 0x100008A10, symSize: 0x40 }
  - { offsetInCU: 0x42B5B, offset: 0x42B5B, size: 0x8, addend: 0x0, symName: __ZNSt3__16vectorINS_12basic_stringIcNS_11char_traitsIcEENS_9allocatorIcEEEENS4_IS6_EEE22__base_destruct_at_endB8ue170006EPS6_, symObjAddr: 0x4608, symBinAddr: 0x100008A50, symSize: 0x8C }
  - { offsetInCU: 0x42BA1, offset: 0x42BA1, size: 0x8, addend: 0x0, symName: __ZNSt3__116allocator_traitsINS_9allocatorINS_12basic_stringIcNS_11char_traitsIcEENS1_IcEEEEEEE7destroyB8ue170006IS6_vvEEvRS7_PT_, symObjAddr: 0x4694, symBinAddr: 0x100008ADC, symSize: 0x28 }
  - { offsetInCU: 0x42BDD, offset: 0x42BDD, size: 0x8, addend: 0x0, symName: __ZNKSt3__16vectorINS_12basic_stringIcNS_11char_traitsIcEENS_9allocatorIcEEEENS4_IS6_EEE31__annotate_contiguous_containerB8ue170006EPKvSA_SA_SA_, symObjAddr: 0x4718, symBinAddr: 0x100008B60, symSize: 0x20 }
  - { offsetInCU: 0x42C33, offset: 0x42C33, size: 0x8, addend: 0x0, symName: __ZNKSt3__16vectorINS_12basic_stringIcNS_11char_traitsIcEENS_9allocatorIcEEEENS4_IS6_EEE4dataB8ue170006Ev, symObjAddr: 0x4738, symBinAddr: 0x100008B80, symSize: 0x28 }
  - { offsetInCU: 0x42C59, offset: 0x42C59, size: 0x8, addend: 0x0, symName: __ZNKSt3__16vectorINS_12basic_stringIcNS_11char_traitsIcEENS_9allocatorIcEEEENS4_IS6_EEE4sizeB8ue170006Ev, symObjAddr: 0x4760, symBinAddr: 0x100008BA8, symSize: 0x28 }
  - { offsetInCU: 0x42C7F, offset: 0x42C7F, size: 0x8, addend: 0x0, symName: __ZNSt3__19allocatorINS_12basic_stringIcNS_11char_traitsIcEENS0_IcEEEEE10deallocateB8ue170006EPS5_m, symObjAddr: 0x4788, symBinAddr: 0x100008BD0, symSize: 0x44 }
  - { offsetInCU: 0x42CC1, offset: 0x42CC1, size: 0x8, addend: 0x0, symName: __ZNSt3__117__compressed_pairIPNS_12basic_stringIcNS_11char_traitsIcEENS_9allocatorIcEEEENS4_IS6_EEE6secondB8ue170006Ev, symObjAddr: 0x47CC, symBinAddr: 0x100008C14, symSize: 0x24 }
  - { offsetInCU: 0x42CE7, offset: 0x42CE7, size: 0x8, addend: 0x0, symName: __ZNSt3__122__compressed_pair_elemINS_9allocatorINS_12basic_stringIcNS_11char_traitsIcEENS1_IcEEEEEELi1ELb1EE5__getB8ue170006Ev, symObjAddr: 0x47F0, symBinAddr: 0x100008C38, symSize: 0x14 }
  - { offsetInCU: 0x42D0D, offset: 0x42D0D, size: 0x8, addend: 0x0, symName: __ZNKSt3__16vectorINS_12basic_stringIcNS_11char_traitsIcEENS_9allocatorIcEEEENS4_IS6_EEE9__end_capB8ue170006Ev, symObjAddr: 0x4804, symBinAddr: 0x100008C4C, symSize: 0x28 }
  - { offsetInCU: 0x42D33, offset: 0x42D33, size: 0x8, addend: 0x0, symName: __ZNKSt3__117__compressed_pairIPNS_12basic_stringIcNS_11char_traitsIcEENS_9allocatorIcEEEENS4_IS6_EEE5firstB8ue170006Ev, symObjAddr: 0x482C, symBinAddr: 0x100008C74, symSize: 0x24 }
  - { offsetInCU: 0x42D59, offset: 0x42D59, size: 0x8, addend: 0x0, symName: __ZNKSt3__122__compressed_pair_elemIPNS_12basic_stringIcNS_11char_traitsIcEENS_9allocatorIcEEEELi0ELb0EE5__getB8ue170006Ev, symObjAddr: 0x4850, symBinAddr: 0x100008C98, symSize: 0x14 }
  - { offsetInCU: 0x42D7F, offset: 0x42D7F, size: 0x8, addend: 0x0, symName: __ZNSt3__16threadC2B8ue170006Ev, symObjAddr: 0x4864, symBinAddr: 0x100008CAC, symSize: 0x18 }
  - { offsetInCU: 0x42DA9, offset: 0x42DA9, size: 0x8, addend: 0x0, symName: __ZNSt3__16vectorINS_4pairIP10GLFWwindowPN3xpf6WindowEEENS_9allocatorIS7_EEED2B8ue170006Ev, symObjAddr: 0x487C, symBinAddr: 0x100008CC4, symSize: 0x44 }
  - { offsetInCU: 0x42DD3, offset: 0x42DD3, size: 0x8, addend: 0x0, symName: __ZNSt3__16vectorINS_4pairIP10GLFWwindowPN3xpf6WindowEEENS_9allocatorIS7_EEE16__destroy_vectorC1B8ue170006ERSA_, symObjAddr: 0x48C0, symBinAddr: 0x100008D08, symSize: 0x34 }
  - { offsetInCU: 0x42E0D, offset: 0x42E0D, size: 0x8, addend: 0x0, symName: __ZNSt3__16vectorINS_4pairIP10GLFWwindowPN3xpf6WindowEEENS_9allocatorIS7_EEE16__destroy_vectorclB8ue170006Ev, symObjAddr: 0x48F4, symBinAddr: 0x100008D3C, symSize: 0x90 }
  - { offsetInCU: 0x42E33, offset: 0x42E33, size: 0x8, addend: 0x0, symName: __ZNSt3__16vectorINS_4pairIP10GLFWwindowPN3xpf6WindowEEENS_9allocatorIS7_EEE16__destroy_vectorC2B8ue170006ERSA_, symObjAddr: 0x4984, symBinAddr: 0x100008DCC, symSize: 0x20 }
  - { offsetInCU: 0x42E6D, offset: 0x42E6D, size: 0x8, addend: 0x0, symName: __ZNSt3__16vectorINS_4pairIP10GLFWwindowPN3xpf6WindowEEENS_9allocatorIS7_EEE7__clearB8ue170006Ev, symObjAddr: 0x49A4, symBinAddr: 0x100008DEC, symSize: 0x28 }
  - { offsetInCU: 0x42E93, offset: 0x42E93, size: 0x8, addend: 0x0, symName: __ZNKSt3__16vectorINS_4pairIP10GLFWwindowPN3xpf6WindowEEENS_9allocatorIS7_EEE17__annotate_deleteB8ue170006Ev, symObjAddr: 0x49CC, symBinAddr: 0x100008E14, symSize: 0xB8 }
  - { offsetInCU: 0x42EB9, offset: 0x42EB9, size: 0x8, addend: 0x0, symName: __ZNSt3__116allocator_traitsINS_9allocatorINS_4pairIP10GLFWwindowPN3xpf6WindowEEEEEE10deallocateB8ue170006ERS9_PS8_m, symObjAddr: 0x4A84, symBinAddr: 0x100008ECC, symSize: 0x34 }
  - { offsetInCU: 0x42EFE, offset: 0x42EFE, size: 0x8, addend: 0x0, symName: __ZNSt3__16vectorINS_4pairIP10GLFWwindowPN3xpf6WindowEEENS_9allocatorIS7_EEE7__allocB8ue170006Ev, symObjAddr: 0x4AB8, symBinAddr: 0x100008F00, symSize: 0x28 }
  - { offsetInCU: 0x42F24, offset: 0x42F24, size: 0x8, addend: 0x0, symName: __ZNKSt3__16vectorINS_4pairIP10GLFWwindowPN3xpf6WindowEEENS_9allocatorIS7_EEE8capacityB8ue170006Ev, symObjAddr: 0x4AE0, symBinAddr: 0x100008F28, symSize: 0x40 }
  - { offsetInCU: 0x42F4A, offset: 0x42F4A, size: 0x8, addend: 0x0, symName: __ZNSt3__16vectorINS_4pairIP10GLFWwindowPN3xpf6WindowEEENS_9allocatorIS7_EEE22__base_destruct_at_endB8ue170006EPS7_, symObjAddr: 0x4B20, symBinAddr: 0x100008F68, symSize: 0x8C }
  - { offsetInCU: 0x42F90, offset: 0x42F90, size: 0x8, addend: 0x0, symName: __ZNSt3__116allocator_traitsINS_9allocatorINS_4pairIP10GLFWwindowPN3xpf6WindowEEEEEE7destroyB8ue170006IS8_vvEEvRS9_PT_, symObjAddr: 0x4BAC, symBinAddr: 0x100008FF4, symSize: 0x28 }
  - { offsetInCU: 0x42FCC, offset: 0x42FCC, size: 0x8, addend: 0x0, symName: __ZNKSt3__16vectorINS_4pairIP10GLFWwindowPN3xpf6WindowEEENS_9allocatorIS7_EEE31__annotate_contiguous_containerB8ue170006EPKvSC_SC_SC_, symObjAddr: 0x4C1C, symBinAddr: 0x100009064, symSize: 0x20 }
  - { offsetInCU: 0x43022, offset: 0x43022, size: 0x8, addend: 0x0, symName: __ZNKSt3__16vectorINS_4pairIP10GLFWwindowPN3xpf6WindowEEENS_9allocatorIS7_EEE4dataB8ue170006Ev, symObjAddr: 0x4C3C, symBinAddr: 0x100009084, symSize: 0x28 }
  - { offsetInCU: 0x43048, offset: 0x43048, size: 0x8, addend: 0x0, symName: __ZNKSt3__16vectorINS_4pairIP10GLFWwindowPN3xpf6WindowEEENS_9allocatorIS7_EEE4sizeB8ue170006Ev, symObjAddr: 0x4C64, symBinAddr: 0x1000090AC, symSize: 0x28 }
  - { offsetInCU: 0x4306E, offset: 0x4306E, size: 0x8, addend: 0x0, symName: __ZNSt3__19allocatorINS_4pairIP10GLFWwindowPN3xpf6WindowEEEE10deallocateB8ue170006EPS7_m, symObjAddr: 0x4C8C, symBinAddr: 0x1000090D4, symSize: 0x40 }
  - { offsetInCU: 0x430B0, offset: 0x430B0, size: 0x8, addend: 0x0, symName: __ZNSt3__117__compressed_pairIPNS_4pairIP10GLFWwindowPN3xpf6WindowEEENS_9allocatorIS7_EEE6secondB8ue170006Ev, symObjAddr: 0x4CCC, symBinAddr: 0x100009114, symSize: 0x24 }
  - { offsetInCU: 0x430D6, offset: 0x430D6, size: 0x8, addend: 0x0, symName: __ZNSt3__122__compressed_pair_elemINS_9allocatorINS_4pairIP10GLFWwindowPN3xpf6WindowEEEEELi1ELb1EE5__getB8ue170006Ev, symObjAddr: 0x4CF0, symBinAddr: 0x100009138, symSize: 0x14 }
  - { offsetInCU: 0x430FC, offset: 0x430FC, size: 0x8, addend: 0x0, symName: __ZNKSt3__16vectorINS_4pairIP10GLFWwindowPN3xpf6WindowEEENS_9allocatorIS7_EEE9__end_capB8ue170006Ev, symObjAddr: 0x4D04, symBinAddr: 0x10000914C, symSize: 0x28 }
  - { offsetInCU: 0x43122, offset: 0x43122, size: 0x8, addend: 0x0, symName: __ZNKSt3__117__compressed_pairIPNS_4pairIP10GLFWwindowPN3xpf6WindowEEENS_9allocatorIS7_EEE5firstB8ue170006Ev, symObjAddr: 0x4D2C, symBinAddr: 0x100009174, symSize: 0x24 }
  - { offsetInCU: 0x43148, offset: 0x43148, size: 0x8, addend: 0x0, symName: __ZNKSt3__122__compressed_pair_elemIPNS_4pairIP10GLFWwindowPN3xpf6WindowEEELi0ELb0EE5__getB8ue170006Ev, symObjAddr: 0x4D50, symBinAddr: 0x100009198, symSize: 0x14 }
  - { offsetInCU: 0x4316E, offset: 0x4316E, size: 0x8, addend: 0x0, symName: __ZN3xpf4v2_tC2Eff, symObjAddr: 0x4D64, symBinAddr: 0x1000091AC, symSize: 0x2C }
  - { offsetInCU: 0x431B4, offset: 0x431B4, size: 0x8, addend: 0x0, symName: __ZNSt3__114numeric_limitsIfE9quiet_NaNB8ue170006Ev, symObjAddr: 0x4D90, symBinAddr: 0x1000091D8, symSize: 0x14 }
  - { offsetInCU: 0x431C7, offset: 0x431C7, size: 0x8, addend: 0x0, symName: __Z3absB8ue170006f, symObjAddr: 0x4DA4, symBinAddr: 0x1000091EC, symSize: 0x18 }
  - { offsetInCU: 0x43211, offset: 0x43211, size: 0x8, addend: 0x0, symName: __ZNSt3__14pairIffEC1B8ue170006IRfS3_LPv0EEEOT_OT0_, symObjAddr: 0x4DBC, symBinAddr: 0x100009204, symSize: 0x3C }
  - { offsetInCU: 0x4326F, offset: 0x4326F, size: 0x8, addend: 0x0, symName: __ZNSt3__123__libcpp_numeric_limitsIfLb1EE9quiet_NaNB8ue170006Ev, symObjAddr: 0x4DF8, symBinAddr: 0x100009240, symSize: 0xC }
  - { offsetInCU: 0x43283, offset: 0x43283, size: 0x8, addend: 0x0, symName: __ZNSt3__14pairIffEC2B8ue170006IRfS3_LPv0EEEOT_OT0_, symObjAddr: 0x4E04, symBinAddr: 0x10000924C, symSize: 0x34 }
  - { offsetInCU: 0x432E7, offset: 0x432E7, size: 0x8, addend: 0x0, symName: __ZNSt3__110__get_pairILm0EE3getB8ue170006IffEEOT_ONS_4pairIS3_T0_EE, symObjAddr: 0x4E38, symBinAddr: 0x100009280, symSize: 0x14 }
  - { offsetInCU: 0x4331E, offset: 0x4331E, size: 0x8, addend: 0x0, symName: __ZNSt3__110__get_pairILm1EE3getB8ue170006IffEEOT0_ONS_4pairIT_S3_EE, symObjAddr: 0x4E4C, symBinAddr: 0x100009294, symSize: 0x18 }
  - { offsetInCU: 0x43355, offset: 0x43355, size: 0x8, addend: 0x0, symName: __ZNSt3__112basic_stringIcNS_11char_traitsIcEENS_9allocatorIcEEE6appendB8ue170006ERKS5_, symObjAddr: 0x4E64, symBinAddr: 0x1000092AC, symSize: 0x4C }
  - { offsetInCU: 0x4338B, offset: 0x4338B, size: 0x8, addend: 0x0, symName: __ZNSt3__112basic_stringIcNS_11char_traitsIcEENS_9allocatorIcEEEC1B8ue170006EOS5_, symObjAddr: 0x4EB0, symBinAddr: 0x1000092F8, symSize: 0x34 }
  - { offsetInCU: 0x433C5, offset: 0x433C5, size: 0x8, addend: 0x0, symName: __ZNKSt3__112basic_stringIcNS_11char_traitsIcEENS_9allocatorIcEEE4dataB8ue170006Ev, symObjAddr: 0x4EE4, symBinAddr: 0x10000932C, symSize: 0x28 }
  - { offsetInCU: 0x433EB, offset: 0x433EB, size: 0x8, addend: 0x0, symName: __ZNKSt3__112basic_stringIcNS_11char_traitsIcEENS_9allocatorIcEEE4sizeB8ue170006Ev, symObjAddr: 0x4F0C, symBinAddr: 0x100009354, symSize: 0x54 }
  - { offsetInCU: 0x43411, offset: 0x43411, size: 0x8, addend: 0x0, symName: __ZNKSt3__112basic_stringIcNS_11char_traitsIcEENS_9allocatorIcEEE13__get_pointerB8ue170006Ev, symObjAddr: 0x4F74, symBinAddr: 0x1000093BC, symSize: 0x54 }
  - { offsetInCU: 0x43437, offset: 0x43437, size: 0x8, addend: 0x0, symName: __ZNKSt3__112basic_stringIcNS_11char_traitsIcEENS_9allocatorIcEEE9__is_longB8ue170006Ev, symObjAddr: 0x4FC8, symBinAddr: 0x100009410, symSize: 0x38 }
  - { offsetInCU: 0x4345D, offset: 0x4345D, size: 0x8, addend: 0x0, symName: __ZNKSt3__112basic_stringIcNS_11char_traitsIcEENS_9allocatorIcEEE18__get_long_pointerB8ue170006Ev, symObjAddr: 0x5000, symBinAddr: 0x100009448, symSize: 0x28 }
  - { offsetInCU: 0x43483, offset: 0x43483, size: 0x8, addend: 0x0, symName: __ZNKSt3__112basic_stringIcNS_11char_traitsIcEENS_9allocatorIcEEE19__get_short_pointerB8ue170006Ev, symObjAddr: 0x5028, symBinAddr: 0x100009470, symSize: 0x28 }
  - { offsetInCU: 0x434A9, offset: 0x434A9, size: 0x8, addend: 0x0, symName: __ZNKSt3__117__compressed_pairINS_12basic_stringIcNS_11char_traitsIcEENS_9allocatorIcEEE5__repES5_E5firstB8ue170006Ev, symObjAddr: 0x5050, symBinAddr: 0x100009498, symSize: 0x24 }
  - { offsetInCU: 0x434CF, offset: 0x434CF, size: 0x8, addend: 0x0, symName: __ZNKSt3__122__compressed_pair_elemINS_12basic_stringIcNS_11char_traitsIcEENS_9allocatorIcEEE5__repELi0ELb0EE5__getB8ue170006Ev, symObjAddr: 0x5074, symBinAddr: 0x1000094BC, symSize: 0x14 }
  - { offsetInCU: 0x434F5, offset: 0x434F5, size: 0x8, addend: 0x0, symName: __ZNSt3__114pointer_traitsIPKcE10pointer_toB8ue170006ERS1_, symObjAddr: 0x5088, symBinAddr: 0x1000094D0, symSize: 0x14 }
  - { offsetInCU: 0x43518, offset: 0x43518, size: 0x8, addend: 0x0, symName: __ZNKSt3__112basic_stringIcNS_11char_traitsIcEENS_9allocatorIcEEE15__get_long_sizeB8ue170006Ev, symObjAddr: 0x509C, symBinAddr: 0x1000094E4, symSize: 0x28 }
  - { offsetInCU: 0x4353E, offset: 0x4353E, size: 0x8, addend: 0x0, symName: __ZNKSt3__112basic_stringIcNS_11char_traitsIcEENS_9allocatorIcEEE16__get_short_sizeB8ue170006Ev, symObjAddr: 0x50C4, symBinAddr: 0x10000950C, symSize: 0x34 }
  - { offsetInCU: 0x43564, offset: 0x43564, size: 0x8, addend: 0x0, symName: __ZNSt3__112basic_stringIcNS_11char_traitsIcEENS_9allocatorIcEEEC2B8ue170006EOS5_, symObjAddr: 0x50F8, symBinAddr: 0x100009540, symSize: 0x50 }
  - { offsetInCU: 0x4359E, offset: 0x4359E, size: 0x8, addend: 0x0, symName: __ZNSt3__112basic_stringIcNS_11char_traitsIcEENS_9allocatorIcEEE14__default_initB8ue170006Ev, symObjAddr: 0x5148, symBinAddr: 0x100009590, symSize: 0x40 }
  - { offsetInCU: 0x435C4, offset: 0x435C4, size: 0x8, addend: 0x0, symName: __ZNSt3__117__compressed_pairINS_12basic_stringIcNS_11char_traitsIcEENS_9allocatorIcEEE5__repES5_E5firstB8ue170006Ev, symObjAddr: 0x5188, symBinAddr: 0x1000095D0, symSize: 0x24 }
  - { offsetInCU: 0x435EA, offset: 0x435EA, size: 0x8, addend: 0x0, symName: __ZNSt3__122__compressed_pair_elemINS_12basic_stringIcNS_11char_traitsIcEENS_9allocatorIcEEE5__repELi0ELb0EE5__getB8ue170006Ev, symObjAddr: 0x51AC, symBinAddr: 0x1000095F4, symSize: 0x14 }
  - { offsetInCU: 0x43610, offset: 0x43610, size: 0x8, addend: 0x0, symName: __ZNSt3__117basic_string_viewIcNS_11char_traitsIcEEEC1B8ue170006EPKcm, symObjAddr: 0x51C0, symBinAddr: 0x100009608, symSize: 0x3C }
  - { offsetInCU: 0x4365A, offset: 0x4365A, size: 0x8, addend: 0x0, symName: __ZNSt3__117basic_string_viewIcNS_11char_traitsIcEEEC2B8ue170006EPKcm, symObjAddr: 0x51FC, symBinAddr: 0x100009644, symSize: 0x2C }
  - { offsetInCU: 0x436A4, offset: 0x436A4, size: 0x8, addend: 0x0, symName: __ZNSt3__117basic_string_viewIcNS_11char_traitsIcEEEC2B8ue170006EPKc, symObjAddr: 0x5228, symBinAddr: 0x100009670, symSize: 0x44 }
  - { offsetInCU: 0x436DE, offset: 0x436DE, size: 0x8, addend: 0x0, symName: __ZNSt3__111char_traitsIcE6lengthB8ue170006EPKc, symObjAddr: 0x5290, symBinAddr: 0x1000096D8, symSize: 0x34 }
  - { offsetInCU: 0x43701, offset: 0x43701, size: 0x8, addend: 0x0, symName: __ZN3xpf8stringexD2Ev, symObjAddr: 0x52E8, symBinAddr: 0x100009730, symSize: 0x2C }
  - { offsetInCU: 0x4372D, offset: 0x4372D, size: 0x8, addend: 0x0, symName: __Z5isnanB8ue170006f, symObjAddr: 0x5314, symBinAddr: 0x10000975C, symSize: 0x20 }
  - { offsetInCU: 0x4375D, offset: 0x4375D, size: 0x8, addend: 0x0, symName: __ZL19IsValidIntersectionfN3xpf4v2_tES0_S0_S0_, symObjAddr: 0x5334, symBinAddr: 0x10000977C, symSize: 0x1A4 }
  - { offsetInCU: 0x437DE, offset: 0x437DE, size: 0x8, addend: 0x0, symName: __ZNK3xpf4v2_tmlEf, symObjAddr: 0x5648, symBinAddr: 0x100009A90, symSize: 0x4C }
  - { offsetInCU: 0x43812, offset: 0x43812, size: 0x8, addend: 0x0, symName: __ZNK3xpf4v2_tplES0_, symObjAddr: 0x5694, symBinAddr: 0x100009ADC, symSize: 0x50 }
  - { offsetInCU: 0x43846, offset: 0x43846, size: 0x8, addend: 0x0, symName: '__ZNSt3__18functionIFN3xpf11RenderBatchEvEEC1IZZ9test_fontRNS1_9IRendererEENK3$_0clES7_EUlvE_vEET_', symObjAddr: 0x5744, symBinAddr: 0x100009B8C, symSize: 0x34 }
  - { offsetInCU: 0x4388C, offset: 0x4388C, size: 0x8, addend: 0x0, symName: __ZNSt3__18functionIFN3xpf11RenderBatchEvEED1Ev, symObjAddr: 0x5778, symBinAddr: 0x100009BC0, symSize: 0x2C }
  - { offsetInCU: 0x438BE, offset: 0x438BE, size: 0x8, addend: 0x0, symName: __ZNSt3__112basic_stringIcNS_11char_traitsIcEENS_9allocatorIcEEEC1B8ue170006ILi0EEEPKc, symObjAddr: 0x57A4, symBinAddr: 0x100009BEC, symSize: 0x34 }
  - { offsetInCU: 0x438FE, offset: 0x438FE, size: 0x8, addend: 0x0, symName: __ZN3xpf10FileSystem8LoadFileENS_13string_viewexE, symObjAddr: 0x57D8, symBinAddr: 0x100009C20, symSize: 0x3E4 }
  - { offsetInCU: 0x4395F, offset: 0x4395F, size: 0x8, addend: 0x0, symName: __ZNSt3__16vectorIhNS_9allocatorIhEEE4dataB8ue170006Ev, symObjAddr: 0x5BBC, symBinAddr: 0x10000A004, symSize: 0x28 }
  - { offsetInCU: 0x43985, offset: 0x43985, size: 0x8, addend: 0x0, symName: __ZNKSt3__112basic_stringIcNS_11char_traitsIcEENS_9allocatorIcEEE6lengthB8ue170006Ev, symObjAddr: 0x5BE4, symBinAddr: 0x10000A02C, symSize: 0x24 }
  - { offsetInCU: 0x439AB, offset: 0x439AB, size: 0x8, addend: 0x0, symName: __Z5floorB8ue170006f, symObjAddr: 0x5C08, symBinAddr: 0x10000A050, symSize: 0x18 }
  - { offsetInCU: 0x439E6, offset: 0x439E6, size: 0x8, addend: 0x0, symName: '__ZZZ9test_fontRN3xpf9IRendererEENK3$_0clES1_ENKUlsE_clEs', symObjAddr: 0x5C20, symBinAddr: 0x10000A068, symSize: 0x38 }
  - { offsetInCU: 0x43A29, offset: 0x43A29, size: 0x8, addend: 0x0, symName: '__ZZZ9test_fontRN3xpf9IRendererEENK3$_0clES1_ENKUlsE0_clEs', symObjAddr: 0x5C58, symBinAddr: 0x10000A0A0, symSize: 0x38 }
  - { offsetInCU: 0x43A61, offset: 0x43A61, size: 0x8, addend: 0x0, symName: '__ZNSt3__18functionIFN3xpf11RenderBatchEvEEC1IZZ9test_fontRNS1_9IRendererEENK3$_0clES7_EUlvE0_vEET_', symObjAddr: 0x5C90, symBinAddr: 0x10000A0D8, symSize: 0x34 }
  - { offsetInCU: 0x43AA8, offset: 0x43AA8, size: 0x8, addend: 0x0, symName: __ZN3xpf6Colors6RandomEv, symObjAddr: 0x5CC4, symBinAddr: 0x10000A10C, symSize: 0x54 }
  - { offsetInCU: 0x43ABC, offset: 0x43ABC, size: 0x8, addend: 0x0, symName: '__ZNSt3__18functionIFN3xpf11RenderBatchEvEEC1IZZ9test_fontRNS1_9IRendererEENK3$_0clES7_EUlvE1_vEET_', symObjAddr: 0x5D18, symBinAddr: 0x10000A160, symSize: 0x34 }
  - { offsetInCU: 0x43B03, offset: 0x43B03, size: 0x8, addend: 0x0, symName: __ZNSt9exceptionC1B8ue170006Ev, symObjAddr: 0x5D4C, symBinAddr: 0x10000A194, symSize: 0x2C }
  - { offsetInCU: 0x43B2D, offset: 0x43B2D, size: 0x8, addend: 0x0, symName: __ZNSt3__16vectorIhNS_9allocatorIhEEED1B8ue170006Ev, symObjAddr: 0x5D78, symBinAddr: 0x10000A1C0, symSize: 0x2C }
  - { offsetInCU: 0x43B57, offset: 0x43B57, size: 0x8, addend: 0x0, symName: __ZN3xpf18RenderBatchBuilderD1Ev, symObjAddr: 0x5DA4, symBinAddr: 0x10000A1EC, symSize: 0x2C }
  - { offsetInCU: 0x43B83, offset: 0x43B83, size: 0x8, addend: 0x0, symName: '__ZNSt3__18functionIFN3xpf11RenderBatchEvEEC2IZZ9test_fontRNS1_9IRendererEENK3$_0clES7_EUlvE_vEET_', symObjAddr: 0x5DD0, symBinAddr: 0x10000A218, symSize: 0x38 }
  - { offsetInCU: 0x43BC9, offset: 0x43BC9, size: 0x8, addend: 0x0, symName: '__ZNSt3__110__function12__value_funcIFN3xpf11RenderBatchEvEEC1B8ue170006IZZ9test_fontRNS2_9IRendererEENK3$_0clES8_EUlvE_vEEOT_', symObjAddr: 0x5E08, symBinAddr: 0x10000A250, symSize: 0x50 }
  - { offsetInCU: 0x43C0D, offset: 0x43C0D, size: 0x8, addend: 0x0, symName: '__ZNSt3__19allocatorIZZ9test_fontRN3xpf9IRendererEENK3$_0clES3_EUlvE_EC1B8ue170006Ev', symObjAddr: 0x5E58, symBinAddr: 0x10000A2A0, symSize: 0x2C }
  - { offsetInCU: 0x43C37, offset: 0x43C37, size: 0x8, addend: 0x0, symName: '__ZNSt3__110__function12__value_funcIFN3xpf11RenderBatchEvEEC1B8ue170006IZZ9test_fontRNS2_9IRendererEENK3$_0clES8_EUlvE_NS_9allocatorISA_EEEEOT_RKT0_', symObjAddr: 0x5E84, symBinAddr: 0x10000A2CC, symSize: 0x3C }
  - { offsetInCU: 0x43C93, offset: 0x43C93, size: 0x8, addend: 0x0, symName: '__ZNSt3__19allocatorIZZ9test_fontRN3xpf9IRendererEENK3$_0clES3_EUlvE_EC2B8ue170006Ev', symObjAddr: 0x5EC0, symBinAddr: 0x10000A308, symSize: 0x2C }
  - { offsetInCU: 0x43CBD, offset: 0x43CBD, size: 0x8, addend: 0x0, symName: '__ZNSt3__116__non_trivial_ifILb1ENS_9allocatorIZZ9test_fontRN3xpf9IRendererEENK3$_0clES4_EUlvE_EEEC2B8ue170006Ev', symObjAddr: 0x5EEC, symBinAddr: 0x10000A334, symSize: 0x14 }
  - { offsetInCU: 0x43CE7, offset: 0x43CE7, size: 0x8, addend: 0x0, symName: '__ZNSt3__110__function12__value_funcIFN3xpf11RenderBatchEvEEC2B8ue170006IZZ9test_fontRNS2_9IRendererEENK3$_0clES8_EUlvE_NS_9allocatorISA_EEEEOT_RKT0_', symObjAddr: 0x5F00, symBinAddr: 0x10000A348, symSize: 0x94 }
  - { offsetInCU: 0x43D79, offset: 0x43D79, size: 0x8, addend: 0x0, symName: '__ZNSt3__19allocatorINS_10__function6__funcIZZ9test_fontRN3xpf9IRendererEENK3$_0clES5_EUlvE_NS0_IS7_EEFNS3_11RenderBatchEvEEEEC1B8ue170006IS7_EERKNS0_IT_EE', symObjAddr: 0x5FAC, symBinAddr: 0x10000A3F4, symSize: 0x34 }
  - { offsetInCU: 0x43DC1, offset: 0x43DC1, size: 0x8, addend: 0x0, symName: '__ZNSt3__19allocatorIZZ9test_fontRN3xpf9IRendererEENK3$_0clES3_EUlvE_EC1B8ue170006INS_10__function6__funcIS5_S6_FNS1_11RenderBatchEvEEEEERKNS0_IT_EE', symObjAddr: 0x5FE0, symBinAddr: 0x10000A428, symSize: 0x34 }
  - { offsetInCU: 0x43DFE, offset: 0x43DFE, size: 0x8, addend: 0x0, symName: '__ZNSt3__110__function6__funcIZZ9test_fontRN3xpf9IRendererEENK3$_0clES4_EUlvE_NS_9allocatorIS6_EEFNS2_11RenderBatchEvEEC1B8ue170006EOS6_OS8_', symObjAddr: 0x6014, symBinAddr: 0x10000A45C, symSize: 0x3C }
  - { offsetInCU: 0x43E48, offset: 0x43E48, size: 0x8, addend: 0x0, symName: '__ZNSt3__19allocatorINS_10__function6__funcIZZ9test_fontRN3xpf9IRendererEENK3$_0clES5_EUlvE_NS0_IS7_EEFNS3_11RenderBatchEvEEEEC2B8ue170006IS7_EERKNS0_IT_EE', symObjAddr: 0x6050, symBinAddr: 0x10000A498, symSize: 0x30 }
  - { offsetInCU: 0x43E85, offset: 0x43E85, size: 0x8, addend: 0x0, symName: '__ZNSt3__116__non_trivial_ifILb1ENS_9allocatorINS_10__function6__funcIZZ9test_fontRN3xpf9IRendererEENK3$_0clES6_EUlvE_NS1_IS8_EEFNS4_11RenderBatchEvEEEEEEC2B8ue170006Ev', symObjAddr: 0x6080, symBinAddr: 0x10000A4C8, symSize: 0x14 }
  - { offsetInCU: 0x43EAF, offset: 0x43EAF, size: 0x8, addend: 0x0, symName: '__ZNSt3__19allocatorIZZ9test_fontRN3xpf9IRendererEENK3$_0clES3_EUlvE_EC2B8ue170006INS_10__function6__funcIS5_S6_FNS1_11RenderBatchEvEEEEERKNS0_IT_EE', symObjAddr: 0x6094, symBinAddr: 0x10000A4DC, symSize: 0x30 }
  - { offsetInCU: 0x43EEC, offset: 0x43EEC, size: 0x8, addend: 0x0, symName: '__ZNSt3__110__function6__funcIZZ9test_fontRN3xpf9IRendererEENK3$_0clES4_EUlvE_NS_9allocatorIS6_EEFNS2_11RenderBatchEvEEC2B8ue170006EOS6_OS8_', symObjAddr: 0x60C4, symBinAddr: 0x10000A50C, symSize: 0x88 }
  - { offsetInCU: 0x43F36, offset: 0x43F36, size: 0x8, addend: 0x0, symName: __ZNSt3__110__function6__baseIFN3xpf11RenderBatchEvEEC2B8ue170006Ev, symObjAddr: 0x614C, symBinAddr: 0x10000A594, symSize: 0x24 }
  - { offsetInCU: 0x43F60, offset: 0x43F60, size: 0x8, addend: 0x0, symName: '__ZNSt3__110__function12__alloc_funcIZZ9test_fontRN3xpf9IRendererEENK3$_0clES4_EUlvE_NS_9allocatorIS6_EEFNS2_11RenderBatchEvEEC1B8ue170006EOS6_OS8_', symObjAddr: 0x6170, symBinAddr: 0x10000A5B8, symSize: 0x3C }
  - { offsetInCU: 0x43FA6, offset: 0x43FA6, size: 0x8, addend: 0x0, symName: __ZNSt3__110__function6__baseIFN3xpf11RenderBatchEvEED2Ev, symObjAddr: 0x61AC, symBinAddr: 0x10000A5F4, symSize: 0x14 }
  - { offsetInCU: 0x43FD0, offset: 0x43FD0, size: 0x8, addend: 0x0, symName: '__ZNSt3__110__function6__funcIZZ9test_fontRN3xpf9IRendererEENK3$_0clES4_EUlvE_NS_9allocatorIS6_EEFNS2_11RenderBatchEvEED1Ev', symObjAddr: 0x61C0, symBinAddr: 0x10000A608, symSize: 0x2C }
  - { offsetInCU: 0x43FFD, offset: 0x43FFD, size: 0x8, addend: 0x0, symName: '__ZNSt3__110__function6__funcIZZ9test_fontRN3xpf9IRendererEENK3$_0clES4_EUlvE_NS_9allocatorIS6_EEFNS2_11RenderBatchEvEED0Ev', symObjAddr: 0x61EC, symBinAddr: 0x10000A634, symSize: 0x30 }
  - { offsetInCU: 0x4402A, offset: 0x4402A, size: 0x8, addend: 0x0, symName: '__ZNKSt3__110__function6__funcIZZ9test_fontRN3xpf9IRendererEENK3$_0clES4_EUlvE_NS_9allocatorIS6_EEFNS2_11RenderBatchEvEE7__cloneEv', symObjAddr: 0x621C, symBinAddr: 0x10000A664, symSize: 0xFC }
  - { offsetInCU: 0x4407E, offset: 0x4407E, size: 0x8, addend: 0x0, symName: '__ZNKSt3__110__function6__funcIZZ9test_fontRN3xpf9IRendererEENK3$_0clES4_EUlvE_NS_9allocatorIS6_EEFNS2_11RenderBatchEvEE7__cloneEPNS0_6__baseISA_EE', symObjAddr: 0x6318, symBinAddr: 0x10000A760, symSize: 0x58 }
  - { offsetInCU: 0x440B6, offset: 0x440B6, size: 0x8, addend: 0x0, symName: '__ZNSt3__110__function6__funcIZZ9test_fontRN3xpf9IRendererEENK3$_0clES4_EUlvE_NS_9allocatorIS6_EEFNS2_11RenderBatchEvEE7destroyEv', symObjAddr: 0x6370, symBinAddr: 0x10000A7B8, symSize: 0x28 }
  - { offsetInCU: 0x440DE, offset: 0x440DE, size: 0x8, addend: 0x0, symName: '__ZNSt3__110__function6__funcIZZ9test_fontRN3xpf9IRendererEENK3$_0clES4_EUlvE_NS_9allocatorIS6_EEFNS2_11RenderBatchEvEE18destroy_deallocateEv', symObjAddr: 0x6398, symBinAddr: 0x10000A7E0, symSize: 0x58 }
  - { offsetInCU: 0x44122, offset: 0x44122, size: 0x8, addend: 0x0, symName: '__ZNSt3__110__function6__funcIZZ9test_fontRN3xpf9IRendererEENK3$_0clES4_EUlvE_NS_9allocatorIS6_EEFNS2_11RenderBatchEvEEclEv', symObjAddr: 0x63F0, symBinAddr: 0x10000A838, symSize: 0x30 }
  - { offsetInCU: 0x4414A, offset: 0x4414A, size: 0x8, addend: 0x0, symName: '__ZNKSt3__110__function6__funcIZZ9test_fontRN3xpf9IRendererEENK3$_0clES4_EUlvE_NS_9allocatorIS6_EEFNS2_11RenderBatchEvEE6targetERKSt9type_info', symObjAddr: 0x6420, symBinAddr: 0x10000A868, symSize: 0x60 }
  - { offsetInCU: 0x44182, offset: 0x44182, size: 0x8, addend: 0x0, symName: '__ZNKSt3__110__function6__funcIZZ9test_fontRN3xpf9IRendererEENK3$_0clES4_EUlvE_NS_9allocatorIS6_EEFNS2_11RenderBatchEvEE11target_typeEv', symObjAddr: 0x6480, symBinAddr: 0x10000A8C8, symSize: 0x18 }
  - { offsetInCU: 0x441AA, offset: 0x441AA, size: 0x8, addend: 0x0, symName: __ZNSt3__110__function6__baseIFN3xpf11RenderBatchEvEED1Ev, symObjAddr: 0x6498, symBinAddr: 0x10000A8E0, symSize: 0x14 }
  - { offsetInCU: 0x441D4, offset: 0x441D4, size: 0x8, addend: 0x0, symName: __ZNSt3__110__function6__baseIFN3xpf11RenderBatchEvEED0Ev, symObjAddr: 0x64AC, symBinAddr: 0x10000A8F4, symSize: 0xC }
  - { offsetInCU: 0x441FE, offset: 0x441FE, size: 0x8, addend: 0x0, symName: '__ZNSt3__110__function12__alloc_funcIZZ9test_fontRN3xpf9IRendererEENK3$_0clES4_EUlvE_NS_9allocatorIS6_EEFNS2_11RenderBatchEvEEC2B8ue170006EOS6_OS8_', symObjAddr: 0x64B8, symBinAddr: 0x10000A900, symSize: 0x5C }
  - { offsetInCU: 0x44244, offset: 0x44244, size: 0x8, addend: 0x0, symName: '__ZNSt3__117__compressed_pairIZZ9test_fontRN3xpf9IRendererEENK3$_0clES3_EUlvE_NS_9allocatorIS5_EEEC1B8ue170006IJOS5_EJOS7_EEENS_21piecewise_construct_tENS_5tupleIJDpT_EEENSD_IJDpT0_EEE', symObjAddr: 0x656C, symBinAddr: 0x10000A9B4, symSize: 0x3C }
  - { offsetInCU: 0x442AE, offset: 0x442AE, size: 0x8, addend: 0x0, symName: '__ZNSt3__15tupleIJOZZ9test_fontRN3xpf9IRendererEENK3$_0clES3_EUlvE_EEC1B8ue170006IJS5_ELi0EEEDpOT_', symObjAddr: 0x65A8, symBinAddr: 0x10000A9F0, symSize: 0x34 }
  - { offsetInCU: 0x442F9, offset: 0x442F9, size: 0x8, addend: 0x0, symName: '__ZNSt3__15tupleIJOZZ9test_fontRN3xpf9IRendererEENK3$_0clES3_EUlvE_EEC2B8ue170006IJS5_ELi0EEEDpOT_', symObjAddr: 0x65DC, symBinAddr: 0x10000AA24, symSize: 0x34 }
  - { offsetInCU: 0x44344, offset: 0x44344, size: 0x8, addend: 0x0, symName: '__ZNSt3__112__tuple_implINS_15__tuple_indicesIJLm0EEEEJOZZ9test_fontRN3xpf9IRendererEENK3$_0clES5_EUlvE_EEC1B8ue170006IJLm0EEJS8_EJEJEJS7_EEENS1_IJXspT_EEEENS_13__tuple_typesIJDpT0_EEENS1_IJXspT1_EEEENSC_IJDpT2_EEEDpOT3_', symObjAddr: 0x6610, symBinAddr: 0x10000AA58, symSize: 0x34 }
  - { offsetInCU: 0x443DC, offset: 0x443DC, size: 0x8, addend: 0x0, symName: '__ZNSt3__112__tuple_implINS_15__tuple_indicesIJLm0EEEEJOZZ9test_fontRN3xpf9IRendererEENK3$_0clES5_EUlvE_EEC2B8ue170006IJLm0EEJS8_EJEJEJS7_EEENS1_IJXspT_EEEENS_13__tuple_typesIJDpT0_EEENS1_IJXspT1_EEEENSC_IJDpT2_EEEDpOT3_', symObjAddr: 0x6644, symBinAddr: 0x10000AA8C, symSize: 0x34 }
  - { offsetInCU: 0x44474, offset: 0x44474, size: 0x8, addend: 0x0, symName: '__ZNSt3__112__tuple_leafILm0EOZZ9test_fontRN3xpf9IRendererEENK3$_0clES3_EUlvE_Lb0EEC2B8ue170006IS5_vEEOT_', symObjAddr: 0x6678, symBinAddr: 0x10000AAC0, symSize: 0x20 }
  - { offsetInCU: 0x444B8, offset: 0x444B8, size: 0x8, addend: 0x0, symName: '__ZNSt3__15tupleIJONS_9allocatorIZZ9test_fontRN3xpf9IRendererEENK3$_0clES4_EUlvE_EEEEC1B8ue170006IJS7_ELi0EEEDpOT_', symObjAddr: 0x6698, symBinAddr: 0x10000AAE0, symSize: 0x34 }
  - { offsetInCU: 0x44503, offset: 0x44503, size: 0x8, addend: 0x0, symName: '__ZNSt3__15tupleIJONS_9allocatorIZZ9test_fontRN3xpf9IRendererEENK3$_0clES4_EUlvE_EEEEC2B8ue170006IJS7_ELi0EEEDpOT_', symObjAddr: 0x66CC, symBinAddr: 0x10000AB14, symSize: 0x34 }
  - { offsetInCU: 0x4454E, offset: 0x4454E, size: 0x8, addend: 0x0, symName: '__ZNSt3__112__tuple_implINS_15__tuple_indicesIJLm0EEEEJONS_9allocatorIZZ9test_fontRN3xpf9IRendererEENK3$_0clES6_EUlvE_EEEEC1B8ue170006IJLm0EEJSA_EJEJEJS9_EEENS1_IJXspT_EEEENS_13__tuple_typesIJDpT0_EEENS1_IJXspT1_EEEENSE_IJDpT2_EEEDpOT3_', symObjAddr: 0x6700, symBinAddr: 0x10000AB48, symSize: 0x34 }
  - { offsetInCU: 0x445E6, offset: 0x445E6, size: 0x8, addend: 0x0, symName: '__ZNSt3__112__tuple_implINS_15__tuple_indicesIJLm0EEEEJONS_9allocatorIZZ9test_fontRN3xpf9IRendererEENK3$_0clES6_EUlvE_EEEEC2B8ue170006IJLm0EEJSA_EJEJEJS9_EEENS1_IJXspT_EEEENS_13__tuple_typesIJDpT0_EEENS1_IJXspT1_EEEENSE_IJDpT2_EEEDpOT3_', symObjAddr: 0x6734, symBinAddr: 0x10000AB7C, symSize: 0x34 }
  - { offsetInCU: 0x4467E, offset: 0x4467E, size: 0x8, addend: 0x0, symName: '__ZNSt3__112__tuple_leafILm0EONS_9allocatorIZZ9test_fontRN3xpf9IRendererEENK3$_0clES4_EUlvE_EELb0EEC2B8ue170006IS7_vEEOT_', symObjAddr: 0x6768, symBinAddr: 0x10000ABB0, symSize: 0x20 }
  - { offsetInCU: 0x446C2, offset: 0x446C2, size: 0x8, addend: 0x0, symName: '__ZNSt3__117__compressed_pairIZZ9test_fontRN3xpf9IRendererEENK3$_0clES3_EUlvE_NS_9allocatorIS5_EEEC2B8ue170006IJOS5_EJOS7_EEENS_21piecewise_construct_tENS_5tupleIJDpT_EEENSD_IJDpT0_EEE', symObjAddr: 0x6788, symBinAddr: 0x10000ABD0, symSize: 0x54 }
  - { offsetInCU: 0x4472C, offset: 0x4472C, size: 0x8, addend: 0x0, symName: '__ZNSt3__122__compressed_pair_elemIZZ9test_fontRN3xpf9IRendererEENK3$_0clES3_EUlvE_Li0ELb0EEC2B8ue170006IJOS5_EJLm0EEEENS_21piecewise_construct_tENS_5tupleIJDpT_EEENS_15__tuple_indicesIJXspT0_EEEE', symObjAddr: 0x67DC, symBinAddr: 0x10000AC24, symSize: 0x44 }
  - { offsetInCU: 0x4478F, offset: 0x4478F, size: 0x8, addend: 0x0, symName: '__ZNSt3__122__compressed_pair_elemINS_9allocatorIZZ9test_fontRN3xpf9IRendererEENK3$_0clES4_EUlvE_EELi1ELb1EEC2B8ue170006IJOS7_EJLm0EEEENS_21piecewise_construct_tENS_5tupleIJDpT_EEENS_15__tuple_indicesIJXspT0_EEEE', symObjAddr: 0x6820, symBinAddr: 0x10000AC68, symSize: 0x38 }
  - { offsetInCU: 0x447F2, offset: 0x447F2, size: 0x8, addend: 0x0, symName: '__ZNSt3__112__tuple_leafILm0EOZZ9test_fontRN3xpf9IRendererEENK3$_0clES3_EUlvE_Lb0EE3getB8ue170006Ev', symObjAddr: 0x687C, symBinAddr: 0x10000ACC4, symSize: 0x18 }
  - { offsetInCU: 0x44818, offset: 0x44818, size: 0x8, addend: 0x0, symName: '__ZNSt3__112__tuple_leafILm0EONS_9allocatorIZZ9test_fontRN3xpf9IRendererEENK3$_0clES4_EUlvE_EELb0EE3getB8ue170006Ev', symObjAddr: 0x68B8, symBinAddr: 0x10000AD00, symSize: 0x18 }
  - { offsetInCU: 0x4483E, offset: 0x4483E, size: 0x8, addend: 0x0, symName: '__ZNSt3__110__function6__funcIZZ9test_fontRN3xpf9IRendererEENK3$_0clES4_EUlvE_NS_9allocatorIS6_EEFNS2_11RenderBatchEvEED2Ev', symObjAddr: 0x68D0, symBinAddr: 0x10000AD18, symSize: 0x2C }
  - { offsetInCU: 0x4486B, offset: 0x4486B, size: 0x8, addend: 0x0, symName: '__ZNKSt3__110__function12__alloc_funcIZZ9test_fontRN3xpf9IRendererEENK3$_0clES4_EUlvE_NS_9allocatorIS6_EEFNS2_11RenderBatchEvEE15__get_allocatorB8ue170006Ev', symObjAddr: 0x68FC, symBinAddr: 0x10000AD44, symSize: 0x24 }
  - { offsetInCU: 0x44891, offset: 0x44891, size: 0x8, addend: 0x0, symName: '__ZNSt3__19allocatorINS_10__function6__funcIZZ9test_fontRN3xpf9IRendererEENK3$_0clES5_EUlvE_NS0_IS7_EEFNS3_11RenderBatchEvEEEE8allocateB8ue170006Em', symObjAddr: 0x6920, symBinAddr: 0x10000AD68, symSize: 0x58 }
  - { offsetInCU: 0x448D7, offset: 0x448D7, size: 0x8, addend: 0x0, symName: '__ZNSt3__122__allocator_destructorINS_9allocatorINS_10__function6__funcIZZ9test_fontRN3xpf9IRendererEENK3$_0clES6_EUlvE_NS1_IS8_EEFNS4_11RenderBatchEvEEEEEEC1B8ue170006ERSD_m', symObjAddr: 0x6978, symBinAddr: 0x10000ADC0, symSize: 0x3C }
  - { offsetInCU: 0x449C4, offset: 0x449C4, size: 0x8, addend: 0x0, symName: '__ZNSt3__110unique_ptrINS_10__function6__funcIZZ9test_fontRN3xpf9IRendererEENK3$_0clES5_EUlvE_NS_9allocatorIS7_EEFNS3_11RenderBatchEvEEENS_22__allocator_destructorINS8_ISC_EEEEEC1B8ue170006ILb1EvEEPSC_NS_16__dependent_typeINS_27__unique_ptr_deleter_sfinaeISF_EEXT_EE20__good_rval_ref_typeE', symObjAddr: 0x69B4, symBinAddr: 0x10000ADFC, symSize: 0x3C }
  - { offsetInCU: 0x44A15, offset: 0x44A15, size: 0x8, addend: 0x0, symName: '__ZNKSt3__110unique_ptrINS_10__function6__funcIZZ9test_fontRN3xpf9IRendererEENK3$_0clES5_EUlvE_NS_9allocatorIS7_EEFNS3_11RenderBatchEvEEENS_22__allocator_destructorINS8_ISC_EEEEE3getB8ue170006Ev', symObjAddr: 0x69F0, symBinAddr: 0x10000AE38, symSize: 0x28 }
  - { offsetInCU: 0x44A3B, offset: 0x44A3B, size: 0x8, addend: 0x0, symName: '__ZNKSt3__110__function12__alloc_funcIZZ9test_fontRN3xpf9IRendererEENK3$_0clES4_EUlvE_NS_9allocatorIS6_EEFNS2_11RenderBatchEvEE8__targetB8ue170006Ev', symObjAddr: 0x6A18, symBinAddr: 0x10000AE60, symSize: 0x24 }
  - { offsetInCU: 0x44A61, offset: 0x44A61, size: 0x8, addend: 0x0, symName: '__ZNSt3__110__function6__funcIZZ9test_fontRN3xpf9IRendererEENK3$_0clES4_EUlvE_NS_9allocatorIS6_EEFNS2_11RenderBatchEvEEC1B8ue170006ERKS6_OS8_', symObjAddr: 0x6A3C, symBinAddr: 0x10000AE84, symSize: 0x3C }
  - { offsetInCU: 0x44AAB, offset: 0x44AAB, size: 0x8, addend: 0x0, symName: '__ZNSt3__110unique_ptrINS_10__function6__funcIZZ9test_fontRN3xpf9IRendererEENK3$_0clES5_EUlvE_NS_9allocatorIS7_EEFNS3_11RenderBatchEvEEENS_22__allocator_destructorINS8_ISC_EEEEE7releaseB8ue170006Ev', symObjAddr: 0x6A78, symBinAddr: 0x10000AEC0, symSize: 0x44 }
  - { offsetInCU: 0x44AE1, offset: 0x44AE1, size: 0x8, addend: 0x0, symName: '__ZNSt3__110unique_ptrINS_10__function6__funcIZZ9test_fontRN3xpf9IRendererEENK3$_0clES5_EUlvE_NS_9allocatorIS7_EEFNS3_11RenderBatchEvEEENS_22__allocator_destructorINS8_ISC_EEEEED1B8ue170006Ev', symObjAddr: 0x6ABC, symBinAddr: 0x10000AF04, symSize: 0x2C }
  - { offsetInCU: 0x44B0B, offset: 0x44B0B, size: 0x8, addend: 0x0, symName: '__ZNKSt3__117__compressed_pairIZZ9test_fontRN3xpf9IRendererEENK3$_0clES3_EUlvE_NS_9allocatorIS5_EEE6secondB8ue170006Ev', symObjAddr: 0x6AE8, symBinAddr: 0x10000AF30, symSize: 0x24 }
  - { offsetInCU: 0x44B31, offset: 0x44B31, size: 0x8, addend: 0x0, symName: '__ZNKSt3__122__compressed_pair_elemINS_9allocatorIZZ9test_fontRN3xpf9IRendererEENK3$_0clES4_EUlvE_EELi1ELb1EE5__getB8ue170006Ev', symObjAddr: 0x6B0C, symBinAddr: 0x10000AF54, symSize: 0x14 }
  - { offsetInCU: 0x44B62, offset: 0x44B62, size: 0x8, addend: 0x0, symName: '__ZNSt3__116allocator_traitsINS_9allocatorINS_10__function6__funcIZZ9test_fontRN3xpf9IRendererEENK3$_0clES6_EUlvE_NS1_IS8_EEFNS4_11RenderBatchEvEEEEEE8max_sizeB8ue170006ISD_vvEEmRKSD_', symObjAddr: 0x6B20, symBinAddr: 0x10000AF68, symSize: 0x28 }
  - { offsetInCU: 0x44B8E, offset: 0x44B8E, size: 0x8, addend: 0x0, symName: '__ZNSt3__122__allocator_destructorINS_9allocatorINS_10__function6__funcIZZ9test_fontRN3xpf9IRendererEENK3$_0clES6_EUlvE_NS1_IS8_EEFNS4_11RenderBatchEvEEEEEEC2B8ue170006ERSD_m', symObjAddr: 0x6B48, symBinAddr: 0x10000AF90, symSize: 0x2C }
  - { offsetInCU: 0x44BD4, offset: 0x44BD4, size: 0x8, addend: 0x0, symName: '__ZNSt3__110unique_ptrINS_10__function6__funcIZZ9test_fontRN3xpf9IRendererEENK3$_0clES5_EUlvE_NS_9allocatorIS7_EEFNS3_11RenderBatchEvEEENS_22__allocator_destructorINS8_ISC_EEEEEC2B8ue170006ILb1EvEEPSC_NS_16__dependent_typeINS_27__unique_ptr_deleter_sfinaeISF_EEXT_EE20__good_rval_ref_typeE', symObjAddr: 0x6B74, symBinAddr: 0x10000AFBC, symSize: 0x48 }
  - { offsetInCU: 0x44C25, offset: 0x44C25, size: 0x8, addend: 0x0, symName: '__ZNSt3__117__compressed_pairIPNS_10__function6__funcIZZ9test_fontRN3xpf9IRendererEENK3$_0clES5_EUlvE_NS_9allocatorIS7_EEFNS3_11RenderBatchEvEEENS_22__allocator_destructorINS8_ISC_EEEEEC1B8ue170006IRSD_SG_EEOT_OT0_', symObjAddr: 0x6BBC, symBinAddr: 0x10000B004, symSize: 0x3C }
  - { offsetInCU: 0x44C7D, offset: 0x44C7D, size: 0x8, addend: 0x0, symName: '__ZNSt3__117__compressed_pairIPNS_10__function6__funcIZZ9test_fontRN3xpf9IRendererEENK3$_0clES5_EUlvE_NS_9allocatorIS7_EEFNS3_11RenderBatchEvEEENS_22__allocator_destructorINS8_ISC_EEEEEC2B8ue170006IRSD_SG_EEOT_OT0_', symObjAddr: 0x6BF8, symBinAddr: 0x10000B040, symSize: 0x48 }
  - { offsetInCU: 0x44CD5, offset: 0x44CD5, size: 0x8, addend: 0x0, symName: '__ZNSt3__122__compressed_pair_elemIPNS_10__function6__funcIZZ9test_fontRN3xpf9IRendererEENK3$_0clES5_EUlvE_NS_9allocatorIS7_EEFNS3_11RenderBatchEvEEELi0ELb0EEC2B8ue170006IRSD_vEEOT_', symObjAddr: 0x6C40, symBinAddr: 0x10000B088, symSize: 0x24 }
  - { offsetInCU: 0x44D17, offset: 0x44D17, size: 0x8, addend: 0x0, symName: '__ZNSt3__122__compressed_pair_elemINS_22__allocator_destructorINS_9allocatorINS_10__function6__funcIZZ9test_fontRN3xpf9IRendererEENK3$_0clES7_EUlvE_NS2_IS9_EEFNS5_11RenderBatchEvEEEEEEELi1ELb0EEC2B8ue170006ISF_vEEOT_', symObjAddr: 0x6C64, symBinAddr: 0x10000B0AC, symSize: 0x24 }
  - { offsetInCU: 0x44D59, offset: 0x44D59, size: 0x8, addend: 0x0, symName: '__ZNKSt3__117__compressed_pairIPNS_10__function6__funcIZZ9test_fontRN3xpf9IRendererEENK3$_0clES5_EUlvE_NS_9allocatorIS7_EEFNS3_11RenderBatchEvEEENS_22__allocator_destructorINS8_ISC_EEEEE5firstB8ue170006Ev', symObjAddr: 0x6C88, symBinAddr: 0x10000B0D0, symSize: 0x24 }
  - { offsetInCU: 0x44D7F, offset: 0x44D7F, size: 0x8, addend: 0x0, symName: '__ZNKSt3__122__compressed_pair_elemIPNS_10__function6__funcIZZ9test_fontRN3xpf9IRendererEENK3$_0clES5_EUlvE_NS_9allocatorIS7_EEFNS3_11RenderBatchEvEEELi0ELb0EE5__getB8ue170006Ev', symObjAddr: 0x6CAC, symBinAddr: 0x10000B0F4, symSize: 0x14 }
  - { offsetInCU: 0x44DA5, offset: 0x44DA5, size: 0x8, addend: 0x0, symName: '__ZNKSt3__117__compressed_pairIZZ9test_fontRN3xpf9IRendererEENK3$_0clES3_EUlvE_NS_9allocatorIS5_EEE5firstB8ue170006Ev', symObjAddr: 0x6CC0, symBinAddr: 0x10000B108, symSize: 0x24 }
  - { offsetInCU: 0x44DCB, offset: 0x44DCB, size: 0x8, addend: 0x0, symName: '__ZNKSt3__122__compressed_pair_elemIZZ9test_fontRN3xpf9IRendererEENK3$_0clES3_EUlvE_Li0ELb0EE5__getB8ue170006Ev', symObjAddr: 0x6CE4, symBinAddr: 0x10000B12C, symSize: 0x14 }
  - { offsetInCU: 0x44DF1, offset: 0x44DF1, size: 0x8, addend: 0x0, symName: '__ZNSt3__110__function6__funcIZZ9test_fontRN3xpf9IRendererEENK3$_0clES4_EUlvE_NS_9allocatorIS6_EEFNS2_11RenderBatchEvEEC2B8ue170006ERKS6_OS8_', symObjAddr: 0x6CF8, symBinAddr: 0x10000B140, symSize: 0x88 }
  - { offsetInCU: 0x44E3B, offset: 0x44E3B, size: 0x8, addend: 0x0, symName: '__ZNSt3__110__function12__alloc_funcIZZ9test_fontRN3xpf9IRendererEENK3$_0clES4_EUlvE_NS_9allocatorIS6_EEFNS2_11RenderBatchEvEEC1B8ue170006ERKS6_OS8_', symObjAddr: 0x6D80, symBinAddr: 0x10000B1C8, symSize: 0x3C }
  - { offsetInCU: 0x44E81, offset: 0x44E81, size: 0x8, addend: 0x0, symName: '__ZNSt3__110__function12__alloc_funcIZZ9test_fontRN3xpf9IRendererEENK3$_0clES4_EUlvE_NS_9allocatorIS6_EEFNS2_11RenderBatchEvEEC2B8ue170006ERKS6_OS8_', symObjAddr: 0x6DBC, symBinAddr: 0x10000B204, symSize: 0x5C }
  - { offsetInCU: 0x44EC7, offset: 0x44EC7, size: 0x8, addend: 0x0, symName: '__ZNSt3__117__compressed_pairIZZ9test_fontRN3xpf9IRendererEENK3$_0clES3_EUlvE_NS_9allocatorIS5_EEEC1B8ue170006IJRKS5_EJOS7_EEENS_21piecewise_construct_tENS_5tupleIJDpT_EEENSE_IJDpT0_EEE', symObjAddr: 0x6E44, symBinAddr: 0x10000B28C, symSize: 0x3C }
  - { offsetInCU: 0x44F31, offset: 0x44F31, size: 0x8, addend: 0x0, symName: '__ZNSt3__15tupleIJRKZZ9test_fontRN3xpf9IRendererEENK3$_0clES3_EUlvE_EEC1B8ue170006INS_4_AndELi0EEES7_', symObjAddr: 0x6E80, symBinAddr: 0x10000B2C8, symSize: 0x34 }
  - { offsetInCU: 0x44F7A, offset: 0x44F7A, size: 0x8, addend: 0x0, symName: '__ZNSt3__15tupleIJRKZZ9test_fontRN3xpf9IRendererEENK3$_0clES3_EUlvE_EEC2B8ue170006INS_4_AndELi0EEES7_', symObjAddr: 0x6EB4, symBinAddr: 0x10000B2FC, symSize: 0x34 }
  - { offsetInCU: 0x44FC3, offset: 0x44FC3, size: 0x8, addend: 0x0, symName: '__ZNSt3__112__tuple_implINS_15__tuple_indicesIJLm0EEEEJRKZZ9test_fontRN3xpf9IRendererEENK3$_0clES5_EUlvE_EEC1B8ue170006IJLm0EEJS9_EJEJEJS9_EEENS1_IJXspT_EEEENS_13__tuple_typesIJDpT0_EEENS1_IJXspT1_EEEENSD_IJDpT2_EEEDpOT3_', symObjAddr: 0x6EE8, symBinAddr: 0x10000B330, symSize: 0x34 }
  - { offsetInCU: 0x4505B, offset: 0x4505B, size: 0x8, addend: 0x0, symName: '__ZNSt3__112__tuple_implINS_15__tuple_indicesIJLm0EEEEJRKZZ9test_fontRN3xpf9IRendererEENK3$_0clES5_EUlvE_EEC2B8ue170006IJLm0EEJS9_EJEJEJS9_EEENS1_IJXspT_EEEENS_13__tuple_typesIJDpT0_EEENS1_IJXspT1_EEEENSD_IJDpT2_EEEDpOT3_', symObjAddr: 0x6F1C, symBinAddr: 0x10000B364, symSize: 0x34 }
  - { offsetInCU: 0x450F3, offset: 0x450F3, size: 0x8, addend: 0x0, symName: '__ZNSt3__112__tuple_leafILm0ERKZZ9test_fontRN3xpf9IRendererEENK3$_0clES3_EUlvE_Lb0EEC2B8ue170006IS7_vEEOT_', symObjAddr: 0x6F50, symBinAddr: 0x10000B398, symSize: 0x20 }
  - { offsetInCU: 0x45137, offset: 0x45137, size: 0x8, addend: 0x0, symName: '__ZNSt3__117__compressed_pairIZZ9test_fontRN3xpf9IRendererEENK3$_0clES3_EUlvE_NS_9allocatorIS5_EEEC2B8ue170006IJRKS5_EJOS7_EEENS_21piecewise_construct_tENS_5tupleIJDpT_EEENSE_IJDpT0_EEE', symObjAddr: 0x6F70, symBinAddr: 0x10000B3B8, symSize: 0x54 }
  - { offsetInCU: 0x451A1, offset: 0x451A1, size: 0x8, addend: 0x0, symName: '__ZNSt3__122__compressed_pair_elemIZZ9test_fontRN3xpf9IRendererEENK3$_0clES3_EUlvE_Li0ELb0EEC2B8ue170006IJRKS5_EJLm0EEEENS_21piecewise_construct_tENS_5tupleIJDpT_EEENS_15__tuple_indicesIJXspT0_EEEE', symObjAddr: 0x6FC4, symBinAddr: 0x10000B40C, symSize: 0x44 }
  - { offsetInCU: 0x45204, offset: 0x45204, size: 0x8, addend: 0x0, symName: '__ZNSt3__112__tuple_leafILm0ERKZZ9test_fontRN3xpf9IRendererEENK3$_0clES3_EUlvE_Lb0EE3getB8ue170006Ev', symObjAddr: 0x702C, symBinAddr: 0x10000B474, symSize: 0x18 }
  - { offsetInCU: 0x4522A, offset: 0x4522A, size: 0x8, addend: 0x0, symName: '__ZNSt3__117__compressed_pairIPNS_10__function6__funcIZZ9test_fontRN3xpf9IRendererEENK3$_0clES5_EUlvE_NS_9allocatorIS7_EEFNS3_11RenderBatchEvEEENS_22__allocator_destructorINS8_ISC_EEEEE5firstB8ue170006Ev', symObjAddr: 0x7044, symBinAddr: 0x10000B48C, symSize: 0x24 }
  - { offsetInCU: 0x45250, offset: 0x45250, size: 0x8, addend: 0x0, symName: '__ZNSt3__122__compressed_pair_elemIPNS_10__function6__funcIZZ9test_fontRN3xpf9IRendererEENK3$_0clES5_EUlvE_NS_9allocatorIS7_EEFNS3_11RenderBatchEvEEELi0ELb0EE5__getB8ue170006Ev', symObjAddr: 0x7068, symBinAddr: 0x10000B4B0, symSize: 0x14 }
  - { offsetInCU: 0x45276, offset: 0x45276, size: 0x8, addend: 0x0, symName: '__ZNSt3__110unique_ptrINS_10__function6__funcIZZ9test_fontRN3xpf9IRendererEENK3$_0clES5_EUlvE_NS_9allocatorIS7_EEFNS3_11RenderBatchEvEEENS_22__allocator_destructorINS8_ISC_EEEEED2B8ue170006Ev', symObjAddr: 0x707C, symBinAddr: 0x10000B4C4, symSize: 0x30 }
  - { offsetInCU: 0x452A0, offset: 0x452A0, size: 0x8, addend: 0x0, symName: '__ZNSt3__110unique_ptrINS_10__function6__funcIZZ9test_fontRN3xpf9IRendererEENK3$_0clES5_EUlvE_NS_9allocatorIS7_EEFNS3_11RenderBatchEvEEENS_22__allocator_destructorINS8_ISC_EEEEE5resetB8ue170006EPSC_', symObjAddr: 0x70AC, symBinAddr: 0x10000B4F4, symSize: 0x78 }
  - { offsetInCU: 0x452E6, offset: 0x452E6, size: 0x8, addend: 0x0, symName: '__ZNSt3__117__compressed_pairIPNS_10__function6__funcIZZ9test_fontRN3xpf9IRendererEENK3$_0clES5_EUlvE_NS_9allocatorIS7_EEFNS3_11RenderBatchEvEEENS_22__allocator_destructorINS8_ISC_EEEEE6secondB8ue170006Ev', symObjAddr: 0x7124, symBinAddr: 0x10000B56C, symSize: 0x28 }
  - { offsetInCU: 0x4530C, offset: 0x4530C, size: 0x8, addend: 0x0, symName: '__ZNSt3__122__allocator_destructorINS_9allocatorINS_10__function6__funcIZZ9test_fontRN3xpf9IRendererEENK3$_0clES6_EUlvE_NS1_IS8_EEFNS4_11RenderBatchEvEEEEEEclB8ue170006EPSC_', symObjAddr: 0x714C, symBinAddr: 0x10000B594, symSize: 0x34 }
  - { offsetInCU: 0x45340, offset: 0x45340, size: 0x8, addend: 0x0, symName: '__ZNSt3__122__compressed_pair_elemINS_22__allocator_destructorINS_9allocatorINS_10__function6__funcIZZ9test_fontRN3xpf9IRendererEENK3$_0clES7_EUlvE_NS2_IS9_EEFNS5_11RenderBatchEvEEEEEEELi1ELb0EE5__getB8ue170006Ev', symObjAddr: 0x7180, symBinAddr: 0x10000B5C8, symSize: 0x14 }
  - { offsetInCU: 0x45366, offset: 0x45366, size: 0x8, addend: 0x0, symName: '__ZNSt3__116allocator_traitsINS_9allocatorINS_10__function6__funcIZZ9test_fontRN3xpf9IRendererEENK3$_0clES6_EUlvE_NS1_IS8_EEFNS4_11RenderBatchEvEEEEEE10deallocateB8ue170006ERSD_PSC_m', symObjAddr: 0x7194, symBinAddr: 0x10000B5DC, symSize: 0x34 }
  - { offsetInCU: 0x453AB, offset: 0x453AB, size: 0x8, addend: 0x0, symName: '__ZNSt3__19allocatorINS_10__function6__funcIZZ9test_fontRN3xpf9IRendererEENK3$_0clES5_EUlvE_NS0_IS7_EEFNS3_11RenderBatchEvEEEE10deallocateB8ue170006EPSB_m', symObjAddr: 0x71C8, symBinAddr: 0x10000B610, symSize: 0x40 }
  - { offsetInCU: 0x453ED, offset: 0x453ED, size: 0x8, addend: 0x0, symName: '__ZNSt3__110__function6__funcIZZ9test_fontRN3xpf9IRendererEENK3$_0clES4_EUlvE_NS_9allocatorIS6_EEFNS2_11RenderBatchEvEEC1B8ue170006ERKS6_RKS8_', symObjAddr: 0x7208, symBinAddr: 0x10000B650, symSize: 0x3C }
  - { offsetInCU: 0x45437, offset: 0x45437, size: 0x8, addend: 0x0, symName: '__ZNSt3__110__function6__funcIZZ9test_fontRN3xpf9IRendererEENK3$_0clES4_EUlvE_NS_9allocatorIS6_EEFNS2_11RenderBatchEvEEC2B8ue170006ERKS6_RKS8_', symObjAddr: 0x7244, symBinAddr: 0x10000B68C, symSize: 0x88 }
  - { offsetInCU: 0x45481, offset: 0x45481, size: 0x8, addend: 0x0, symName: '__ZNSt3__110__function12__alloc_funcIZZ9test_fontRN3xpf9IRendererEENK3$_0clES4_EUlvE_NS_9allocatorIS6_EEFNS2_11RenderBatchEvEEC1B8ue170006ERKS6_RKS8_', symObjAddr: 0x72CC, symBinAddr: 0x10000B714, symSize: 0x3C }
  - { offsetInCU: 0x454C7, offset: 0x454C7, size: 0x8, addend: 0x0, symName: '__ZNSt3__110__function12__alloc_funcIZZ9test_fontRN3xpf9IRendererEENK3$_0clES4_EUlvE_NS_9allocatorIS6_EEFNS2_11RenderBatchEvEEC2B8ue170006ERKS6_RKS8_', symObjAddr: 0x7308, symBinAddr: 0x10000B750, symSize: 0x5C }
  - { offsetInCU: 0x4550D, offset: 0x4550D, size: 0x8, addend: 0x0, symName: '__ZNSt3__117__compressed_pairIZZ9test_fontRN3xpf9IRendererEENK3$_0clES3_EUlvE_NS_9allocatorIS5_EEEC1B8ue170006IJRKS5_EJRKS7_EEENS_21piecewise_construct_tENS_5tupleIJDpT_EEENSF_IJDpT0_EEE', symObjAddr: 0x7390, symBinAddr: 0x10000B7D8, symSize: 0x3C }
  - { offsetInCU: 0x45577, offset: 0x45577, size: 0x8, addend: 0x0, symName: '__ZNSt3__15tupleIJRKNS_9allocatorIZZ9test_fontRN3xpf9IRendererEENK3$_0clES4_EUlvE_EEEEC1B8ue170006INS_4_AndELi0EEES9_', symObjAddr: 0x73CC, symBinAddr: 0x10000B814, symSize: 0x34 }
  - { offsetInCU: 0x455C0, offset: 0x455C0, size: 0x8, addend: 0x0, symName: '__ZNSt3__15tupleIJRKNS_9allocatorIZZ9test_fontRN3xpf9IRendererEENK3$_0clES4_EUlvE_EEEEC2B8ue170006INS_4_AndELi0EEES9_', symObjAddr: 0x7400, symBinAddr: 0x10000B848, symSize: 0x34 }
  - { offsetInCU: 0x45609, offset: 0x45609, size: 0x8, addend: 0x0, symName: '__ZNSt3__112__tuple_implINS_15__tuple_indicesIJLm0EEEEJRKNS_9allocatorIZZ9test_fontRN3xpf9IRendererEENK3$_0clES6_EUlvE_EEEEC1B8ue170006IJLm0EEJSB_EJEJEJSB_EEENS1_IJXspT_EEEENS_13__tuple_typesIJDpT0_EEENS1_IJXspT1_EEEENSF_IJDpT2_EEEDpOT3_', symObjAddr: 0x7434, symBinAddr: 0x10000B87C, symSize: 0x34 }
  - { offsetInCU: 0x456A1, offset: 0x456A1, size: 0x8, addend: 0x0, symName: '__ZNSt3__112__tuple_implINS_15__tuple_indicesIJLm0EEEEJRKNS_9allocatorIZZ9test_fontRN3xpf9IRendererEENK3$_0clES6_EUlvE_EEEEC2B8ue170006IJLm0EEJSB_EJEJEJSB_EEENS1_IJXspT_EEEENS_13__tuple_typesIJDpT0_EEENS1_IJXspT1_EEEENSF_IJDpT2_EEEDpOT3_', symObjAddr: 0x7468, symBinAddr: 0x10000B8B0, symSize: 0x34 }
  - { offsetInCU: 0x45739, offset: 0x45739, size: 0x8, addend: 0x0, symName: '__ZNSt3__112__tuple_leafILm0ERKNS_9allocatorIZZ9test_fontRN3xpf9IRendererEENK3$_0clES4_EUlvE_EELb0EEC2B8ue170006IS9_vEEOT_', symObjAddr: 0x749C, symBinAddr: 0x10000B8E4, symSize: 0x20 }
  - { offsetInCU: 0x4577D, offset: 0x4577D, size: 0x8, addend: 0x0, symName: '__ZNSt3__117__compressed_pairIZZ9test_fontRN3xpf9IRendererEENK3$_0clES3_EUlvE_NS_9allocatorIS5_EEEC2B8ue170006IJRKS5_EJRKS7_EEENS_21piecewise_construct_tENS_5tupleIJDpT_EEENSF_IJDpT0_EEE', symObjAddr: 0x74BC, symBinAddr: 0x10000B904, symSize: 0x54 }
  - { offsetInCU: 0x457E7, offset: 0x457E7, size: 0x8, addend: 0x0, symName: '__ZNSt3__122__compressed_pair_elemINS_9allocatorIZZ9test_fontRN3xpf9IRendererEENK3$_0clES4_EUlvE_EELi1ELb1EEC2B8ue170006IJRKS7_EJLm0EEEENS_21piecewise_construct_tENS_5tupleIJDpT_EEENS_15__tuple_indicesIJXspT0_EEEE', symObjAddr: 0x7510, symBinAddr: 0x10000B958, symSize: 0x38 }
  - { offsetInCU: 0x4584A, offset: 0x4584A, size: 0x8, addend: 0x0, symName: '__ZNSt3__112__tuple_leafILm0ERKNS_9allocatorIZZ9test_fontRN3xpf9IRendererEENK3$_0clES4_EUlvE_EELb0EE3getB8ue170006Ev', symObjAddr: 0x756C, symBinAddr: 0x10000B9B4, symSize: 0x18 }
  - { offsetInCU: 0x45870, offset: 0x45870, size: 0x8, addend: 0x0, symName: '__ZNSt3__110__function12__alloc_funcIZZ9test_fontRN3xpf9IRendererEENK3$_0clES4_EUlvE_NS_9allocatorIS6_EEFNS2_11RenderBatchEvEE7destroyB8ue170006Ev', symObjAddr: 0x7584, symBinAddr: 0x10000B9CC, symSize: 0x10 }
  - { offsetInCU: 0x45896, offset: 0x45896, size: 0x8, addend: 0x0, symName: '__ZNSt3__110__function12__alloc_funcIZZ9test_fontRN3xpf9IRendererEENK3$_0clES4_EUlvE_NS_9allocatorIS6_EEFNS2_11RenderBatchEvEEclB8ue170006Ev', symObjAddr: 0x7594, symBinAddr: 0x10000B9DC, symSize: 0x34 }
  - { offsetInCU: 0x458BC, offset: 0x458BC, size: 0x8, addend: 0x0, symName: '__ZNSt3__128__invoke_void_return_wrapperIN3xpf11RenderBatchELb0EE6__callB8ue170006IJRZZ9test_fontRNS1_9IRendererEENK3$_0clES6_EUlvE_EEES2_DpOT_', symObjAddr: 0x75C8, symBinAddr: 0x10000BA10, symSize: 0x2C }
  - { offsetInCU: 0x458EC, offset: 0x458EC, size: 0x8, addend: 0x0, symName: '__ZNSt3__117__compressed_pairIZZ9test_fontRN3xpf9IRendererEENK3$_0clES3_EUlvE_NS_9allocatorIS5_EEE5firstB8ue170006Ev', symObjAddr: 0x75F4, symBinAddr: 0x10000BA3C, symSize: 0x24 }
  - { offsetInCU: 0x45918, offset: 0x45918, size: 0x8, addend: 0x0, symName: '__ZZZ9test_fontRN3xpf9IRendererEENK3$_0clES1_ENKUlvE_clEv', symObjAddr: 0x7644, symBinAddr: 0x10000BA8C, symSize: 0xDC }
  - { offsetInCU: 0x4595E, offset: 0x4595E, size: 0x8, addend: 0x0, symName: '__ZNSt3__122__compressed_pair_elemIZZ9test_fontRN3xpf9IRendererEENK3$_0clES3_EUlvE_Li0ELb0EE5__getB8ue170006Ev', symObjAddr: 0x7720, symBinAddr: 0x10000BB68, symSize: 0x14 }
  - { offsetInCU: 0x459BA, offset: 0x459BA, size: 0x8, addend: 0x0, symName: __ZNKSt9type_infoeqB8ue170006ERKS_, symObjAddr: 0x7734, symBinAddr: 0x10000BB7C, symSize: 0xDC }
  - { offsetInCU: 0x45A59, offset: 0x45A59, size: 0x8, addend: 0x0, symName: __ZNSt27__type_info_implementations30__non_unique_arm_rtti_bit_impl21__is_type_name_uniqueB8ue170006Em, symObjAddr: 0x7810, symBinAddr: 0x10000BC58, symSize: 0x20 }
  - { offsetInCU: 0x45A7E, offset: 0x45A7E, size: 0x8, addend: 0x0, symName: __ZNSt3__18functionIFN3xpf11RenderBatchEvEED2Ev, symObjAddr: 0x7830, symBinAddr: 0x10000BC78, symSize: 0x2C }
  - { offsetInCU: 0x45AAA, offset: 0x45AAA, size: 0x8, addend: 0x0, symName: __ZNSt3__110__function12__value_funcIFN3xpf11RenderBatchEvEED1B8ue170006Ev, symObjAddr: 0x785C, symBinAddr: 0x10000BCA4, symSize: 0x2C }
  - { offsetInCU: 0x45AD4, offset: 0x45AD4, size: 0x8, addend: 0x0, symName: __ZNSt3__110__function12__value_funcIFN3xpf11RenderBatchEvEED2B8ue170006Ev, symObjAddr: 0x7888, symBinAddr: 0x10000BCD0, symSize: 0x90 }
  - { offsetInCU: 0x45AFE, offset: 0x45AFE, size: 0x8, addend: 0x0, symName: __ZNSt3__112basic_stringIcNS_11char_traitsIcEENS_9allocatorIcEEEC2B8ue170006ILi0EEEPKc, symObjAddr: 0x7918, symBinAddr: 0x10000BD60, symSize: 0x58 }
  - { offsetInCU: 0x45B3E, offset: 0x45B3E, size: 0x8, addend: 0x0, symName: __ZNSt3__117__compressed_pairINS_12basic_stringIcNS_11char_traitsIcEENS_9allocatorIcEEE5__repES5_EC1B8ue170006INS_18__default_init_tagESA_EEOT_OT0_, symObjAddr: 0x7970, symBinAddr: 0x10000BDB8, symSize: 0x3C }
  - { offsetInCU: 0x45B96, offset: 0x45B96, size: 0x8, addend: 0x0, symName: __ZNSt3__117__compressed_pairINS_12basic_stringIcNS_11char_traitsIcEENS_9allocatorIcEEE5__repES5_EC2B8ue170006INS_18__default_init_tagESA_EEOT_OT0_, symObjAddr: 0x79AC, symBinAddr: 0x10000BDF4, symSize: 0x3C }
  - { offsetInCU: 0x45BEE, offset: 0x45BEE, size: 0x8, addend: 0x0, symName: __ZNSt3__122__compressed_pair_elemINS_12basic_stringIcNS_11char_traitsIcEENS_9allocatorIcEEE5__repELi0ELb0EEC2B8ue170006ENS_18__default_init_tagE, symObjAddr: 0x79E8, symBinAddr: 0x10000BE30, symSize: 0x14 }
  - { offsetInCU: 0x45C22, offset: 0x45C22, size: 0x8, addend: 0x0, symName: __ZNSt3__122__compressed_pair_elemINS_9allocatorIcEELi1ELb1EEC2B8ue170006ENS_18__default_init_tagE, symObjAddr: 0x79FC, symBinAddr: 0x10000BE44, symSize: 0x2C }
  - { offsetInCU: 0x45C56, offset: 0x45C56, size: 0x8, addend: 0x0, symName: __ZNSt3__19allocatorIcEC2B8ue170006Ev, symObjAddr: 0x7A28, symBinAddr: 0x10000BE70, symSize: 0x2C }
  - { offsetInCU: 0x45C80, offset: 0x45C80, size: 0x8, addend: 0x0, symName: __ZNSt3__116__non_trivial_ifILb1ENS_9allocatorIcEEEC2B8ue170006Ev, symObjAddr: 0x7A54, symBinAddr: 0x10000BE9C, symSize: 0x14 }
  - { offsetInCU: 0x45CAA, offset: 0x45CAA, size: 0x8, addend: 0x0, symName: __ZN3xpf3Log4infoENSt3__117basic_string_viewIcNS1_11char_traitsIcEEEE, symObjAddr: 0x7A68, symBinAddr: 0x10000BEB0, symSize: 0x80 }
  - { offsetInCU: 0x45CCD, offset: 0x45CCD, size: 0x8, addend: 0x0, symName: __ZNKSt3__18functionIFNS_6vectorIhNS_9allocatorIhEEEEN3xpf13string_viewexEEEclES6_, symObjAddr: 0x7BA8, symBinAddr: 0x10000BFF0, symSize: 0x3C }
  - { offsetInCU: 0x45D05, offset: 0x45D05, size: 0x8, addend: 0x0, symName: __ZNKSt3__117basic_string_viewIcNS_11char_traitsIcEEE4dataB8ue170006Ev, symObjAddr: 0x7BE4, symBinAddr: 0x10000C02C, symSize: 0x18 }
  - { offsetInCU: 0x45E65, offset: 0x45E65, size: 0x8, addend: 0x0, symName: __ZNSt3__114basic_ifstreamIcNS_11char_traitsIcEEEC1EPKcj, symObjAddr: 0x7BFC, symBinAddr: 0x10000C044, symSize: 0x16C }
  - { offsetInCU: 0x45EB1, offset: 0x45EB1, size: 0x8, addend: 0x0, symName: __ZNSt3__19basic_iosIcNS_11char_traitsIcEEE10exceptionsB8ue170006Ej, symObjAddr: 0x7D68, symBinAddr: 0x10000C1B0, symSize: 0x2C }
  - { offsetInCU: 0x45EE7, offset: 0x45EE7, size: 0x8, addend: 0x0, symName: __ZNKSt3__114basic_ifstreamIcNS_11char_traitsIcEEE7is_openEv, symObjAddr: 0x7D94, symBinAddr: 0x10000C1DC, symSize: 0x2C }
  - { offsetInCU: 0x45F0F, offset: 0x45F0F, size: 0x8, addend: 0x0, symName: __ZNSt3__16vectorIhNS_9allocatorIhEEEC1B8ue170006Ev, symObjAddr: 0x7DC0, symBinAddr: 0x10000C208, symSize: 0x2C }
  - { offsetInCU: 0x45F39, offset: 0x45F39, size: 0x8, addend: 0x0, symName: __ZNSt3__15arrayIhLm4096EE4dataB8ue170006Ev, symObjAddr: 0x7DEC, symBinAddr: 0x10000C234, symSize: 0x14 }
  - { offsetInCU: 0x45F5F, offset: 0x45F5F, size: 0x8, addend: 0x0, symName: __ZNKSt3__19basic_iosIcNS_11char_traitsIcEEEcvbB8ue170006Ev, symObjAddr: 0x7E00, symBinAddr: 0x10000C248, symSize: 0x2C }
  - { offsetInCU: 0x45F85, offset: 0x45F85, size: 0x8, addend: 0x0, symName: __ZNSt3__16vectorIhNS_9allocatorIhEEE6insertIPhLi0EEENS_11__wrap_iterIS5_EENS6_IPKhEET_SB_, symObjAddr: 0x7E2C, symBinAddr: 0x10000C274, symSize: 0x74 }
  - { offsetInCU: 0x45FEC, offset: 0x45FEC, size: 0x8, addend: 0x0, symName: __ZNSt3__16vectorIhNS_9allocatorIhEEE3endB8ue170006Ev, symObjAddr: 0x7EA0, symBinAddr: 0x10000C2E8, symSize: 0x30 }
  - { offsetInCU: 0x46020, offset: 0x46020, size: 0x8, addend: 0x0, symName: __ZNSt3__111__wrap_iterIPKhEC1B8ue170006IPhEERKNS0_IT_EEPNS_9enable_ifIXsr14is_convertibleIS6_S2_EE5valueEvE4typeE, symObjAddr: 0x7ED0, symBinAddr: 0x10000C318, symSize: 0x3C }
  - { offsetInCU: 0x4606B, offset: 0x4606B, size: 0x8, addend: 0x0, symName: __ZNKSt3__113basic_istreamIcNS_11char_traitsIcEEE6gcountB8ue170006Ev, symObjAddr: 0x7F30, symBinAddr: 0x10000C378, symSize: 0x18 }
  - { offsetInCU: 0x46097, offset: 0x46097, size: 0x8, addend: 0x0, symName: __ZNSt3__114basic_ifstreamIcNS_11char_traitsIcEEED1Ev, symObjAddr: 0x7F48, symBinAddr: 0x10000C390, symSize: 0x40 }
  - { offsetInCU: 0x460CA, offset: 0x460CA, size: 0x8, addend: 0x0, symName: __ZNSt3__16vectorINS_12basic_stringIcNS_11char_traitsIcEENS_9allocatorIcEEEENS4_IS6_EEE12emplace_backIJRNS_17basic_string_viewIcS3_EEEEERS6_DpOT_, symObjAddr: 0x7F88, symBinAddr: 0x10000C3D0, symSize: 0x74 }
  - { offsetInCU: 0x4610D, offset: 0x4610D, size: 0x8, addend: 0x0, symName: __ZNSt3__113basic_ostreamIcNS_11char_traitsIcEEElsB8ue170006EPFRS3_S4_E, symObjAddr: 0x80A0, symBinAddr: 0x10000C4E8, symSize: 0x2C }
  - { offsetInCU: 0x46141, offset: 0x46141, size: 0x8, addend: 0x0, symName: __ZNSt3__16vectorINS_12basic_stringIcNS_11char_traitsIcEENS_9allocatorIcEEEENS4_IS6_EEE9__end_capB8ue170006Ev, symObjAddr: 0x8124, symBinAddr: 0x10000C56C, symSize: 0x28 }
  - { offsetInCU: 0x46167, offset: 0x46167, size: 0x8, addend: 0x0, symName: __ZNSt3__16vectorINS_12basic_stringIcNS_11char_traitsIcEENS_9allocatorIcEEEENS4_IS6_EEE22__construct_one_at_endB8ue170006IJRNS_17basic_string_viewIcS3_EEEEEvDpOT_, symObjAddr: 0x814C, symBinAddr: 0x10000C594, symSize: 0x90 }
  - { offsetInCU: 0x461B8, offset: 0x461B8, size: 0x8, addend: 0x0, symName: __ZNSt3__16vectorINS_12basic_stringIcNS_11char_traitsIcEENS_9allocatorIcEEEENS4_IS6_EEE24__emplace_back_slow_pathIJRNS_17basic_string_viewIcS3_EEEEEvDpOT_, symObjAddr: 0x81DC, symBinAddr: 0x10000C624, symSize: 0xD8 }
  - { offsetInCU: 0x4621B, offset: 0x4621B, size: 0x8, addend: 0x0, symName: __ZNSt3__16vectorINS_12basic_stringIcNS_11char_traitsIcEENS_9allocatorIcEEEENS4_IS6_EEE4backB8ue170006Ev, symObjAddr: 0x82B4, symBinAddr: 0x10000C6FC, symSize: 0x1C }
  - { offsetInCU: 0x46241, offset: 0x46241, size: 0x8, addend: 0x0, symName: __ZNSt3__117__compressed_pairIPNS_12basic_stringIcNS_11char_traitsIcEENS_9allocatorIcEEEENS4_IS6_EEE5firstB8ue170006Ev, symObjAddr: 0x82D0, symBinAddr: 0x10000C718, symSize: 0x24 }
  - { offsetInCU: 0x46267, offset: 0x46267, size: 0x8, addend: 0x0, symName: __ZNSt3__122__compressed_pair_elemIPNS_12basic_stringIcNS_11char_traitsIcEENS_9allocatorIcEEEELi0ELb0EE5__getB8ue170006Ev, symObjAddr: 0x82F4, symBinAddr: 0x10000C73C, symSize: 0x14 }
  - { offsetInCU: 0x462A9, offset: 0x462A9, size: 0x8, addend: 0x0, symName: __ZNSt3__16vectorINS_12basic_stringIcNS_11char_traitsIcEENS_9allocatorIcEEEENS4_IS6_EEE21_ConstructTransactionC1B8ue170006ERS8_m, symObjAddr: 0x8308, symBinAddr: 0x10000C750, symSize: 0x3C }
  - { offsetInCU: 0x462F3, offset: 0x462F3, size: 0x8, addend: 0x0, symName: __ZNSt3__116allocator_traitsINS_9allocatorINS_12basic_stringIcNS_11char_traitsIcEENS1_IcEEEEEEE9constructB8ue170006IS6_JRNS_17basic_string_viewIcS4_EEEvvEEvRS7_PT_DpOT0_, symObjAddr: 0x8344, symBinAddr: 0x10000C78C, symSize: 0x30 }
  - { offsetInCU: 0x4634A, offset: 0x4634A, size: 0x8, addend: 0x0, symName: __ZNSt3__16vectorINS_12basic_stringIcNS_11char_traitsIcEENS_9allocatorIcEEEENS4_IS6_EEE21_ConstructTransactionD1B8ue170006Ev, symObjAddr: 0x8374, symBinAddr: 0x10000C7BC, symSize: 0x2C }
  - { offsetInCU: 0x46374, offset: 0x46374, size: 0x8, addend: 0x0, symName: __ZNSt3__16vectorINS_12basic_stringIcNS_11char_traitsIcEENS_9allocatorIcEEEENS4_IS6_EEE21_ConstructTransactionC2B8ue170006ERS8_m, symObjAddr: 0x83A0, symBinAddr: 0x10000C7E8, symSize: 0x4C }
  - { offsetInCU: 0x463BE, offset: 0x463BE, size: 0x8, addend: 0x0, symName: __ZNSt3__112basic_stringIcNS_11char_traitsIcEENS_9allocatorIcEEEC1INS_17basic_string_viewIcS2_EELi0EEERKT_, symObjAddr: 0x8428, symBinAddr: 0x10000C870, symSize: 0x34 }
  - { offsetInCU: 0x46407, offset: 0x46407, size: 0x8, addend: 0x0, symName: __ZNSt3__112basic_stringIcNS_11char_traitsIcEENS_9allocatorIcEEEC2INS_17basic_string_viewIcS2_EELi0EEERKT_, symObjAddr: 0x845C, symBinAddr: 0x10000C8A4, symSize: 0x70 }
  - { offsetInCU: 0x4646E, offset: 0x4646E, size: 0x8, addend: 0x0, symName: __ZNKSt3__117basic_string_viewIcNS_11char_traitsIcEEE4sizeB8ue170006Ev, symObjAddr: 0x84CC, symBinAddr: 0x10000C914, symSize: 0x18 }
  - { offsetInCU: 0x46494, offset: 0x46494, size: 0x8, addend: 0x0, symName: __ZNSt3__16vectorINS_12basic_stringIcNS_11char_traitsIcEENS_9allocatorIcEEEENS4_IS6_EEE21_ConstructTransactionD2B8ue170006Ev, symObjAddr: 0x84E4, symBinAddr: 0x10000C92C, symSize: 0x20 }
  - { offsetInCU: 0x464BE, offset: 0x464BE, size: 0x8, addend: 0x0, symName: __ZNKSt3__16vectorINS_12basic_stringIcNS_11char_traitsIcEENS_9allocatorIcEEEENS4_IS6_EEE11__recommendB8ue170006Em, symObjAddr: 0x8504, symBinAddr: 0x10000C94C, symSize: 0xB4 }
  - { offsetInCU: 0x46516, offset: 0x46516, size: 0x8, addend: 0x0, symName: __ZNSt3__114__split_bufferINS_12basic_stringIcNS_11char_traitsIcEENS_9allocatorIcEEEERNS4_IS6_EEEC1EmmS8_, symObjAddr: 0x85B8, symBinAddr: 0x10000CA00, symSize: 0x44 }
  - { offsetInCU: 0x4656C, offset: 0x4656C, size: 0x8, addend: 0x0, symName: __ZNSt3__114__split_bufferINS_12basic_stringIcNS_11char_traitsIcEENS_9allocatorIcEEEERNS4_IS6_EEED1Ev, symObjAddr: 0x870C, symBinAddr: 0x10000CB54, symSize: 0x2C }
  - { offsetInCU: 0x46598, offset: 0x46598, size: 0x8, addend: 0x0, symName: __ZNKSt3__16vectorINS_12basic_stringIcNS_11char_traitsIcEENS_9allocatorIcEEEENS4_IS6_EEE8max_sizeEv, symObjAddr: 0x8738, symBinAddr: 0x10000CB80, symSize: 0x60 }
  - { offsetInCU: 0x465C0, offset: 0x465C0, size: 0x8, addend: 0x0, symName: __ZNKSt3__16vectorINS_12basic_stringIcNS_11char_traitsIcEENS_9allocatorIcEEEENS4_IS6_EEE20__throw_length_errorB8ue170006Ev, symObjAddr: 0x8798, symBinAddr: 0x10000CBE0, symSize: 0x1C }
  - { offsetInCU: 0x465F1, offset: 0x465F1, size: 0x8, addend: 0x0, symName: __ZNSt3__116allocator_traitsINS_9allocatorINS_12basic_stringIcNS_11char_traitsIcEENS1_IcEEEEEEE8max_sizeB8ue170006IS7_vvEEmRKS7_, symObjAddr: 0x87B4, symBinAddr: 0x10000CBFC, symSize: 0x28 }
  - { offsetInCU: 0x4661D, offset: 0x4661D, size: 0x8, addend: 0x0, symName: __ZNKSt3__16vectorINS_12basic_stringIcNS_11char_traitsIcEENS_9allocatorIcEEEENS4_IS6_EEE7__allocB8ue170006Ev, symObjAddr: 0x87DC, symBinAddr: 0x10000CC24, symSize: 0x28 }
  - { offsetInCU: 0x46643, offset: 0x46643, size: 0x8, addend: 0x0, symName: __ZNKSt3__117__compressed_pairIPNS_12basic_stringIcNS_11char_traitsIcEENS_9allocatorIcEEEENS4_IS6_EEE6secondB8ue170006Ev, symObjAddr: 0x8804, symBinAddr: 0x10000CC4C, symSize: 0x24 }
  - { offsetInCU: 0x46669, offset: 0x46669, size: 0x8, addend: 0x0, symName: __ZNKSt3__122__compressed_pair_elemINS_9allocatorINS_12basic_stringIcNS_11char_traitsIcEENS1_IcEEEEEELi1ELb1EE5__getB8ue170006Ev, symObjAddr: 0x8828, symBinAddr: 0x10000CC70, symSize: 0x14 }
  - { offsetInCU: 0x4668F, offset: 0x4668F, size: 0x8, addend: 0x0, symName: __ZNSt3__114__split_bufferINS_12basic_stringIcNS_11char_traitsIcEENS_9allocatorIcEEEERNS4_IS6_EEEC2EmmS8_, symObjAddr: 0x883C, symBinAddr: 0x10000CC84, symSize: 0xE0 }
  - { offsetInCU: 0x46703, offset: 0x46703, size: 0x8, addend: 0x0, symName: __ZNSt3__117__compressed_pairIPNS_12basic_stringIcNS_11char_traitsIcEENS_9allocatorIcEEEERNS4_IS6_EEEC1B8ue170006IDnS9_EEOT_OT0_, symObjAddr: 0x891C, symBinAddr: 0x10000CD64, symSize: 0x3C }
  - { offsetInCU: 0x4675B, offset: 0x4675B, size: 0x8, addend: 0x0, symName: __ZNSt3__114__split_bufferINS_12basic_stringIcNS_11char_traitsIcEENS_9allocatorIcEEEERNS4_IS6_EEE7__allocB8ue170006Ev, symObjAddr: 0x8998, symBinAddr: 0x10000CDE0, symSize: 0x28 }
  - { offsetInCU: 0x46781, offset: 0x46781, size: 0x8, addend: 0x0, symName: __ZNSt3__114__split_bufferINS_12basic_stringIcNS_11char_traitsIcEENS_9allocatorIcEEEERNS4_IS6_EEE9__end_capB8ue170006Ev, symObjAddr: 0x89C0, symBinAddr: 0x10000CE08, symSize: 0x28 }
  - { offsetInCU: 0x467A7, offset: 0x467A7, size: 0x8, addend: 0x0, symName: __ZNSt3__117__compressed_pairIPNS_12basic_stringIcNS_11char_traitsIcEENS_9allocatorIcEEEERNS4_IS6_EEEC2B8ue170006IDnS9_EEOT_OT0_, symObjAddr: 0x89E8, symBinAddr: 0x10000CE30, symSize: 0x48 }
  - { offsetInCU: 0x467FF, offset: 0x467FF, size: 0x8, addend: 0x0, symName: __ZNSt3__122__compressed_pair_elemIPNS_12basic_stringIcNS_11char_traitsIcEENS_9allocatorIcEEEELi0ELb0EEC2B8ue170006IDnvEEOT_, symObjAddr: 0x8A30, symBinAddr: 0x10000CE78, symSize: 0x1C }
  - { offsetInCU: 0x46841, offset: 0x46841, size: 0x8, addend: 0x0, symName: __ZNSt3__122__compressed_pair_elemIRNS_9allocatorINS_12basic_stringIcNS_11char_traitsIcEENS1_IcEEEEEELi1ELb0EEC2B8ue170006IS8_vEEOT_, symObjAddr: 0x8A4C, symBinAddr: 0x10000CE94, symSize: 0x20 }
  - { offsetInCU: 0x46883, offset: 0x46883, size: 0x8, addend: 0x0, symName: __ZNSt3__19allocatorINS_12basic_stringIcNS_11char_traitsIcEENS0_IcEEEEE8allocateB8ue170006Em, symObjAddr: 0x8A6C, symBinAddr: 0x10000CEB4, symSize: 0x5C }
  - { offsetInCU: 0x468B7, offset: 0x468B7, size: 0x8, addend: 0x0, symName: __ZNSt3__117__compressed_pairIPNS_12basic_stringIcNS_11char_traitsIcEENS_9allocatorIcEEEERNS4_IS6_EEE6secondB8ue170006Ev, symObjAddr: 0x8AC8, symBinAddr: 0x10000CF10, symSize: 0x28 }
  - { offsetInCU: 0x468DD, offset: 0x468DD, size: 0x8, addend: 0x0, symName: __ZNSt3__122__compressed_pair_elemIRNS_9allocatorINS_12basic_stringIcNS_11char_traitsIcEENS1_IcEEEEEELi1ELb0EE5__getB8ue170006Ev, symObjAddr: 0x8AF0, symBinAddr: 0x10000CF38, symSize: 0x18 }
  - { offsetInCU: 0x46903, offset: 0x46903, size: 0x8, addend: 0x0, symName: __ZNSt3__117__compressed_pairIPNS_12basic_stringIcNS_11char_traitsIcEENS_9allocatorIcEEEERNS4_IS6_EEE5firstB8ue170006Ev, symObjAddr: 0x8B08, symBinAddr: 0x10000CF50, symSize: 0x24 }
  - { offsetInCU: 0x46929, offset: 0x46929, size: 0x8, addend: 0x0, symName: __ZNSt3__116reverse_iteratorIPNS_12basic_stringIcNS_11char_traitsIcEENS_9allocatorIcEEEEEC1B8ue170006ES7_, symObjAddr: 0x8C58, symBinAddr: 0x10000D0A0, symSize: 0x34 }
  - { offsetInCU: 0x46961, offset: 0x46961, size: 0x8, addend: 0x0, symName: __ZNKSt3__116reverse_iteratorIPNS_12basic_stringIcNS_11char_traitsIcEENS_9allocatorIcEEEEE4baseB8ue170006Ev, symObjAddr: 0x8C8C, symBinAddr: 0x10000D0D4, symSize: 0x18 }
  - { offsetInCU: 0x46987, offset: 0x46987, size: 0x8, addend: 0x0, symName: __ZNKSt3__16vectorINS_12basic_stringIcNS_11char_traitsIcEENS_9allocatorIcEEEENS4_IS6_EEE14__annotate_newB8ue170006Em, symObjAddr: 0x8CE0, symBinAddr: 0x10000D128, symSize: 0xC8 }
  - { offsetInCU: 0x469BD, offset: 0x469BD, size: 0x8, addend: 0x0, symName: __ZNSt3__129_AllocatorDestroyRangeReverseINS_9allocatorINS_12basic_stringIcNS_11char_traitsIcEENS1_IcEEEEEENS_16reverse_iteratorIPS6_EEEC1B8ue170006ERS7_RSA_SD_, symObjAddr: 0x8DF4, symBinAddr: 0x10000D23C, symSize: 0x44 }
  - { offsetInCU: 0x46A17, offset: 0x46A17, size: 0x8, addend: 0x0, symName: __ZNSt3__116allocator_traitsINS_9allocatorINS_12basic_stringIcNS_11char_traitsIcEENS1_IcEEEEEEE9constructB8ue170006IS6_JS6_EvvEEvRS7_PT_DpOT0_, symObjAddr: 0x8E80, symBinAddr: 0x10000D2C8, symSize: 0x30 }
  - { offsetInCU: 0x46A6E, offset: 0x46A6E, size: 0x8, addend: 0x0, symName: __ZNKSt3__116reverse_iteratorIPNS_12basic_stringIcNS_11char_traitsIcEENS_9allocatorIcEEEEEdeB8ue170006Ev, symObjAddr: 0x8ED4, symBinAddr: 0x10000D31C, symSize: 0x28 }
  - { offsetInCU: 0x46AA2, offset: 0x46AA2, size: 0x8, addend: 0x0, symName: __ZNSt3__116reverse_iteratorIPNS_12basic_stringIcNS_11char_traitsIcEENS_9allocatorIcEEEEEppB8ue170006Ev, symObjAddr: 0x8EFC, symBinAddr: 0x10000D344, symSize: 0x20 }
  - { offsetInCU: 0x46AC8, offset: 0x46AC8, size: 0x8, addend: 0x0, symName: __ZNSt3__128__exception_guard_exceptionsINS_29_AllocatorDestroyRangeReverseINS_9allocatorINS_12basic_stringIcNS_11char_traitsIcEENS2_IcEEEEEENS_16reverse_iteratorIPS7_EEEEE10__completeB8ue170006Ev, symObjAddr: 0x8F1C, symBinAddr: 0x10000D364, symSize: 0x1C }
  - { offsetInCU: 0x46AEE, offset: 0x46AEE, size: 0x8, addend: 0x0, symName: __ZNSt3__128__exception_guard_exceptionsINS_29_AllocatorDestroyRangeReverseINS_9allocatorINS_12basic_stringIcNS_11char_traitsIcEENS2_IcEEEEEENS_16reverse_iteratorIPS7_EEEEED1B8ue170006Ev, symObjAddr: 0x8F38, symBinAddr: 0x10000D380, symSize: 0x2C }
  - { offsetInCU: 0x46B18, offset: 0x46B18, size: 0x8, addend: 0x0, symName: __ZNSt3__128__exception_guard_exceptionsINS_29_AllocatorDestroyRangeReverseINS_9allocatorINS_12basic_stringIcNS_11char_traitsIcEENS2_IcEEEEEENS_16reverse_iteratorIPS7_EEEEEC1B8ue170006ESC_, symObjAddr: 0x8F64, symBinAddr: 0x10000D3AC, symSize: 0x34 }
  - { offsetInCU: 0x46B51, offset: 0x46B51, size: 0x8, addend: 0x0, symName: __ZNSt3__128__exception_guard_exceptionsINS_29_AllocatorDestroyRangeReverseINS_9allocatorINS_12basic_stringIcNS_11char_traitsIcEENS2_IcEEEEEENS_16reverse_iteratorIPS7_EEEEEC2B8ue170006ESC_, symObjAddr: 0x8F98, symBinAddr: 0x10000D3E0, symSize: 0x30 }
  - { offsetInCU: 0x46B8A, offset: 0x46B8A, size: 0x8, addend: 0x0, symName: __ZNSt3__129_AllocatorDestroyRangeReverseINS_9allocatorINS_12basic_stringIcNS_11char_traitsIcEENS1_IcEEEEEENS_16reverse_iteratorIPS6_EEEC2B8ue170006ERS7_RSA_SD_, symObjAddr: 0x8FC8, symBinAddr: 0x10000D410, symSize: 0x38 }
  - { offsetInCU: 0x46BEA, offset: 0x46BEA, size: 0x8, addend: 0x0, symName: __ZNSt3__119__to_address_helperINS_16reverse_iteratorIPNS_12basic_stringIcNS_11char_traitsIcEENS_9allocatorIcEEEEEEvE6__callB8ue170006ERKS9_, symObjAddr: 0x903C, symBinAddr: 0x10000D484, symSize: 0x38 }
  - { offsetInCU: 0x46C0D, offset: 0x46C0D, size: 0x8, addend: 0x0, symName: __ZNKSt3__116reverse_iteratorIPNS_12basic_stringIcNS_11char_traitsIcEENS_9allocatorIcEEEEEptB8ue170006Ev, symObjAddr: 0x9074, symBinAddr: 0x10000D4BC, symSize: 0x2C }
  - { offsetInCU: 0x46C33, offset: 0x46C33, size: 0x8, addend: 0x0, symName: __ZNSt3__128__exception_guard_exceptionsINS_29_AllocatorDestroyRangeReverseINS_9allocatorINS_12basic_stringIcNS_11char_traitsIcEENS2_IcEEEEEENS_16reverse_iteratorIPS7_EEEEED2B8ue170006Ev, symObjAddr: 0x9158, symBinAddr: 0x10000D5A0, symSize: 0x50 }
  - { offsetInCU: 0x46C5D, offset: 0x46C5D, size: 0x8, addend: 0x0, symName: __ZNKSt3__129_AllocatorDestroyRangeReverseINS_9allocatorINS_12basic_stringIcNS_11char_traitsIcEENS1_IcEEEEEENS_16reverse_iteratorIPS6_EEEclB8ue170006Ev, symObjAddr: 0x91A8, symBinAddr: 0x10000D5F0, symSize: 0xB4 }
  - { offsetInCU: 0x46C84, offset: 0x46C84, size: 0x8, addend: 0x0, symName: __ZNSt3__116reverse_iteratorINS0_IPNS_12basic_stringIcNS_11char_traitsIcEENS_9allocatorIcEEEEEEEC1B8ue170006ES8_, symObjAddr: 0x92CC, symBinAddr: 0x10000D714, symSize: 0x3C }
  - { offsetInCU: 0x46CBC, offset: 0x46CBC, size: 0x8, addend: 0x0, symName: __ZNSt3__116reverse_iteratorINS0_IPNS_12basic_stringIcNS_11char_traitsIcEENS_9allocatorIcEEEEEEEppB8ue170006Ev, symObjAddr: 0x938C, symBinAddr: 0x10000D7D4, symSize: 0x30 }
  - { offsetInCU: 0x46CE2, offset: 0x46CE2, size: 0x8, addend: 0x0, symName: __ZNKSt3__116reverse_iteratorINS0_IPNS_12basic_stringIcNS_11char_traitsIcEENS_9allocatorIcEEEEEEE4baseB8ue170006Ev, symObjAddr: 0x93BC, symBinAddr: 0x10000D804, symSize: 0x24 }
  - { offsetInCU: 0x46D0E, offset: 0x46D0E, size: 0x8, addend: 0x0, symName: __ZNSt3__119__to_address_helperINS_16reverse_iteratorINS1_IPNS_12basic_stringIcNS_11char_traitsIcEENS_9allocatorIcEEEEEEEEvE6__callB8ue170006ERKSA_, symObjAddr: 0x93E0, symBinAddr: 0x10000D828, symSize: 0x38 }
  - { offsetInCU: 0x46D31, offset: 0x46D31, size: 0x8, addend: 0x0, symName: __ZNKSt3__116reverse_iteratorINS0_IPNS_12basic_stringIcNS_11char_traitsIcEENS_9allocatorIcEEEEEEEptB8ue170006Ev, symObjAddr: 0x9418, symBinAddr: 0x10000D860, symSize: 0x4C }
  - { offsetInCU: 0x46D57, offset: 0x46D57, size: 0x8, addend: 0x0, symName: __ZNSt3__116reverse_iteratorIPNS_12basic_stringIcNS_11char_traitsIcEENS_9allocatorIcEEEEEpLB8ue170006El, symObjAddr: 0x9514, symBinAddr: 0x10000D95C, symSize: 0x30 }
  - { offsetInCU: 0x46D8B, offset: 0x46D8B, size: 0x8, addend: 0x0, symName: __ZNSt3__116reverse_iteratorIPNS_12basic_stringIcNS_11char_traitsIcEENS_9allocatorIcEEEEEmmB8ue170006Ev, symObjAddr: 0x9544, symBinAddr: 0x10000D98C, symSize: 0x20 }
  - { offsetInCU: 0x46DB1, offset: 0x46DB1, size: 0x8, addend: 0x0, symName: __ZNSt3__116reverse_iteratorINS0_IPNS_12basic_stringIcNS_11char_traitsIcEENS_9allocatorIcEEEEEEEC2B8ue170006ES8_, symObjAddr: 0x9564, symBinAddr: 0x10000D9AC, symSize: 0x2C }
  - { offsetInCU: 0x46DE9, offset: 0x46DE9, size: 0x8, addend: 0x0, symName: __ZNSt3__116reverse_iteratorIPNS_12basic_stringIcNS_11char_traitsIcEENS_9allocatorIcEEEEEC2B8ue170006ES7_, symObjAddr: 0x9590, symBinAddr: 0x10000D9D8, symSize: 0x28 }
  - { offsetInCU: 0x46E21, offset: 0x46E21, size: 0x8, addend: 0x0, symName: __ZNSt3__114__split_bufferINS_12basic_stringIcNS_11char_traitsIcEENS_9allocatorIcEEEERNS4_IS6_EEED2Ev, symObjAddr: 0x95B8, symBinAddr: 0x10000DA00, symSize: 0x8C }
  - { offsetInCU: 0x46E4D, offset: 0x46E4D, size: 0x8, addend: 0x0, symName: __ZNSt3__114__split_bufferINS_12basic_stringIcNS_11char_traitsIcEENS_9allocatorIcEEEERNS4_IS6_EEE5clearB8ue170006Ev, symObjAddr: 0x9644, symBinAddr: 0x10000DA8C, symSize: 0x28 }
  - { offsetInCU: 0x46E73, offset: 0x46E73, size: 0x8, addend: 0x0, symName: __ZNKSt3__114__split_bufferINS_12basic_stringIcNS_11char_traitsIcEENS_9allocatorIcEEEERNS4_IS6_EEE8capacityB8ue170006Ev, symObjAddr: 0x966C, symBinAddr: 0x10000DAB4, symSize: 0x40 }
  - { offsetInCU: 0x46E99, offset: 0x46E99, size: 0x8, addend: 0x0, symName: __ZNSt3__114__split_bufferINS_12basic_stringIcNS_11char_traitsIcEENS_9allocatorIcEEEERNS4_IS6_EEE17__destruct_at_endB8ue170006EPS6_, symObjAddr: 0x96AC, symBinAddr: 0x10000DAF4, symSize: 0x2C }
  - { offsetInCU: 0x46ECD, offset: 0x46ECD, size: 0x8, addend: 0x0, symName: __ZNSt3__114__split_bufferINS_12basic_stringIcNS_11char_traitsIcEENS_9allocatorIcEEEERNS4_IS6_EEE17__destruct_at_endB8ue170006EPS6_NS_17integral_constantIbLb0EEE, symObjAddr: 0x96D8, symBinAddr: 0x10000DB20, symSize: 0x80 }
  - { offsetInCU: 0x46F0D, offset: 0x46F0D, size: 0x8, addend: 0x0, symName: __ZNKSt3__114__split_bufferINS_12basic_stringIcNS_11char_traitsIcEENS_9allocatorIcEEEERNS4_IS6_EEE9__end_capB8ue170006Ev, symObjAddr: 0x9758, symBinAddr: 0x10000DBA0, symSize: 0x28 }
  - { offsetInCU: 0x46F33, offset: 0x46F33, size: 0x8, addend: 0x0, symName: __ZNKSt3__117__compressed_pairIPNS_12basic_stringIcNS_11char_traitsIcEENS_9allocatorIcEEEERNS4_IS6_EEE5firstB8ue170006Ev, symObjAddr: 0x9780, symBinAddr: 0x10000DBC8, symSize: 0x24 }
  - { offsetInCU: 0x46F7C, offset: 0x46F7C, size: 0x8, addend: 0x0, symName: __ZNKSt3__113basic_ostreamIcNS_11char_traitsIcEEE6sentrycvbB8ue170006Ev, symObjAddr: 0x9990, symBinAddr: 0x10000DDD8, symSize: 0x1C }
  - { offsetInCU: 0x46FA2, offset: 0x46FA2, size: 0x8, addend: 0x0, symName: __ZNSt3__119ostreambuf_iteratorIcNS_11char_traitsIcEEEC1B8ue170006ERNS_13basic_ostreamIcS2_EE, symObjAddr: 0x9BEC, symBinAddr: 0x10000E034, symSize: 0x34 }
  - { offsetInCU: 0x46FDA, offset: 0x46FDA, size: 0x8, addend: 0x0, symName: __ZNKSt3__18ios_base5flagsB8ue170006Ev, symObjAddr: 0x9C20, symBinAddr: 0x10000E068, symSize: 0x18 }
  - { offsetInCU: 0x47002, offset: 0x47002, size: 0x8, addend: 0x0, symName: __ZNKSt3__19basic_iosIcNS_11char_traitsIcEEE4fillB8ue170006Ev, symObjAddr: 0x9C38, symBinAddr: 0x10000E080, symSize: 0x64 }
  - { offsetInCU: 0x4702A, offset: 0x4702A, size: 0x8, addend: 0x0, symName: __ZNKSt3__119ostreambuf_iteratorIcNS_11char_traitsIcEEE6failedB8ue170006Ev, symObjAddr: 0x9C9C, symBinAddr: 0x10000E0E4, symSize: 0x24 }
  - { offsetInCU: 0x47050, offset: 0x47050, size: 0x8, addend: 0x0, symName: __ZNSt3__19basic_iosIcNS_11char_traitsIcEEE8setstateB8ue170006Ej, symObjAddr: 0x9CC0, symBinAddr: 0x10000E108, symSize: 0x2C }
  - { offsetInCU: 0x47086, offset: 0x47086, size: 0x8, addend: 0x0, symName: __ZNKSt3__18ios_base5widthB8ue170006Ev, symObjAddr: 0x9CEC, symBinAddr: 0x10000E134, symSize: 0x18 }
  - { offsetInCU: 0x470AE, offset: 0x470AE, size: 0x8, addend: 0x0, symName: __ZNSt3__115basic_streambufIcNS_11char_traitsIcEEE5sputnB8ue170006EPKcl, symObjAddr: 0x9D04, symBinAddr: 0x10000E14C, symSize: 0x3C }
  - { offsetInCU: 0x470F0, offset: 0x470F0, size: 0x8, addend: 0x0, symName: __ZNSt3__112basic_stringIcNS_11char_traitsIcEENS_9allocatorIcEEEC1B8ue170006Emc, symObjAddr: 0x9D40, symBinAddr: 0x10000E188, symSize: 0x3C }
  - { offsetInCU: 0x4713A, offset: 0x4713A, size: 0x8, addend: 0x0, symName: __ZNSt3__112basic_stringIcNS_11char_traitsIcEENS_9allocatorIcEEE4dataB8ue170006Ev, symObjAddr: 0x9D7C, symBinAddr: 0x10000E1C4, symSize: 0x28 }
  - { offsetInCU: 0x47160, offset: 0x47160, size: 0x8, addend: 0x0, symName: __ZNSt3__18ios_base5widthB8ue170006El, symObjAddr: 0x9DA4, symBinAddr: 0x10000E1EC, symSize: 0x2C }
  - { offsetInCU: 0x471A8, offset: 0x471A8, size: 0x8, addend: 0x0, symName: __ZNSt3__112basic_stringIcNS_11char_traitsIcEENS_9allocatorIcEEEC2B8ue170006Emc, symObjAddr: 0x9DD0, symBinAddr: 0x10000E218, symSize: 0x4C }
  - { offsetInCU: 0x471F2, offset: 0x471F2, size: 0x8, addend: 0x0, symName: __ZNSt3__112basic_stringIcNS_11char_traitsIcEENS_9allocatorIcEEE13__get_pointerB8ue170006Ev, symObjAddr: 0x9E30, symBinAddr: 0x10000E278, symSize: 0x54 }
  - { offsetInCU: 0x47218, offset: 0x47218, size: 0x8, addend: 0x0, symName: __ZNSt3__112basic_stringIcNS_11char_traitsIcEENS_9allocatorIcEEE18__get_long_pointerB8ue170006Ev, symObjAddr: 0x9E84, symBinAddr: 0x10000E2CC, symSize: 0x28 }
  - { offsetInCU: 0x4723E, offset: 0x4723E, size: 0x8, addend: 0x0, symName: __ZNSt3__112basic_stringIcNS_11char_traitsIcEENS_9allocatorIcEEE19__get_short_pointerB8ue170006Ev, symObjAddr: 0x9EAC, symBinAddr: 0x10000E2F4, symSize: 0x28 }
  - { offsetInCU: 0x47264, offset: 0x47264, size: 0x8, addend: 0x0, symName: __ZNSt3__114pointer_traitsIPcE10pointer_toB8ue170006ERc, symObjAddr: 0x9ED4, symBinAddr: 0x10000E31C, symSize: 0x14 }
  - { offsetInCU: 0x47287, offset: 0x47287, size: 0x8, addend: 0x0, symName: __ZNSt3__119ostreambuf_iteratorIcNS_11char_traitsIcEEEC2B8ue170006ERNS_13basic_ostreamIcS2_EE, symObjAddr: 0x9EE8, symBinAddr: 0x10000E330, symSize: 0x54 }
  - { offsetInCU: 0x472BF, offset: 0x472BF, size: 0x8, addend: 0x0, symName: __ZNKSt3__19basic_iosIcNS_11char_traitsIcEEE5rdbufB8ue170006Ev, symObjAddr: 0x9F3C, symBinAddr: 0x10000E384, symSize: 0x24 }
  - { offsetInCU: 0x472E7, offset: 0x472E7, size: 0x8, addend: 0x0, symName: __ZNKSt3__18ios_base5rdbufB8ue170006Ev, symObjAddr: 0x9F60, symBinAddr: 0x10000E3A8, symSize: 0x18 }
  - { offsetInCU: 0x4730D, offset: 0x4730D, size: 0x8, addend: 0x0, symName: __ZNSt3__111char_traitsIcE11eq_int_typeB8ue170006Eii, symObjAddr: 0x9F78, symBinAddr: 0x10000E3C0, symSize: 0x28 }
  - { offsetInCU: 0x47342, offset: 0x47342, size: 0x8, addend: 0x0, symName: __ZNSt3__111char_traitsIcE3eofB8ue170006Ev, symObjAddr: 0x9FA0, symBinAddr: 0x10000E3E8, symSize: 0x8 }
  - { offsetInCU: 0x47356, offset: 0x47356, size: 0x8, addend: 0x0, symName: __ZNKSt3__19basic_iosIcNS_11char_traitsIcEEE5widenB8ue170006Ec, symObjAddr: 0x9FA8, symBinAddr: 0x10000E3F0, symSize: 0x84 }
  - { offsetInCU: 0x473C7, offset: 0x473C7, size: 0x8, addend: 0x0, symName: __ZNKSt3__15ctypeIcE5widenB8ue170006Ec, symObjAddr: 0xA058, symBinAddr: 0x10000E4A0, symSize: 0x38 }
  - { offsetInCU: 0x473FD, offset: 0x473FD, size: 0x8, addend: 0x0, symName: __ZNSt3__18ios_base8setstateB8ue170006Ej, symObjAddr: 0xA090, symBinAddr: 0x10000E4D8, symSize: 0x34 }
  - { offsetInCU: 0x47435, offset: 0x47435, size: 0x8, addend: 0x0, symName: __ZNSt3__112basic_stringIcNS_11char_traitsIcEENS_9allocatorIcEEE6appendINS_17basic_string_viewIcS2_EELi0EEERS5_RKT_, symObjAddr: 0xA0C4, symBinAddr: 0x10000E50C, symSize: 0x60 }
  - { offsetInCU: 0x4748A, offset: 0x4748A, size: 0x8, addend: 0x0, symName: __ZNKSt3__18functionIFNS_6vectorIhNS_9allocatorIhEEEEN3xpf13string_viewexEEEcvbB8ue170006Ev, symObjAddr: 0xA124, symBinAddr: 0x10000E56C, symSize: 0x28 }
  - { offsetInCU: 0x474B0, offset: 0x474B0, size: 0x8, addend: 0x0, symName: __ZNKSt3__110__function12__value_funcIFNS_6vectorIhNS_9allocatorIhEEEEN3xpf13string_viewexEEEcvbB8ue170006Ev, symObjAddr: 0xA14C, symBinAddr: 0x10000E594, symSize: 0x24 }
  - { offsetInCU: 0x474D6, offset: 0x474D6, size: 0x8, addend: 0x0, symName: __ZNKSt3__110__function12__value_funcIFNS_6vectorIhNS_9allocatorIhEEEEN3xpf13string_viewexEEEclB8ue170006EOS7_, symObjAddr: 0xA170, symBinAddr: 0x10000E5B8, symSize: 0x64 }
  - { offsetInCU: 0x47512, offset: 0x47512, size: 0x8, addend: 0x0, symName: __ZNSt3__117bad_function_callC1Ev, symObjAddr: 0xA20C, symBinAddr: 0x10000E654, symSize: 0x2C }
  - { offsetInCU: 0x4753E, offset: 0x4753E, size: 0x8, addend: 0x0, symName: __ZNSt3__117bad_function_callD1Ev, symObjAddr: 0xA238, symBinAddr: 0x10000E680, symSize: 0x2C }
  - { offsetInCU: 0x47568, offset: 0x47568, size: 0x8, addend: 0x0, symName: __ZNSt3__117bad_function_callC2Ev, symObjAddr: 0xA264, symBinAddr: 0x10000E6AC, symSize: 0x44 }
  - { offsetInCU: 0x47594, offset: 0x47594, size: 0x8, addend: 0x0, symName: __ZNSt9exceptionC2B8ue170006Ev, symObjAddr: 0xA2A8, symBinAddr: 0x10000E6F0, symSize: 0x24 }
  - { offsetInCU: 0x475BE, offset: 0x475BE, size: 0x8, addend: 0x0, symName: __ZNSt3__117bad_function_callD0Ev, symObjAddr: 0xA2CC, symBinAddr: 0x10000E714, symSize: 0x30 }
  - { offsetInCU: 0x475E8, offset: 0x475E8, size: 0x8, addend: 0x0, symName: __ZNSt3__117bad_function_callD2Ev, symObjAddr: 0xA2FC, symBinAddr: 0x10000E744, symSize: 0x2C }
  - { offsetInCU: 0x47612, offset: 0x47612, size: 0x8, addend: 0x0, symName: __ZNSt3__19basic_iosIcNS_11char_traitsIcEEEC2B8ue170006Ev, symObjAddr: 0xA328, symBinAddr: 0x10000E770, symSize: 0x44 }
  - { offsetInCU: 0x4763C, offset: 0x4763C, size: 0x8, addend: 0x0, symName: __ZNSt3__113basic_istreamIcNS_11char_traitsIcEEEC2B8ue170006EPNS_15basic_streambufIcS2_EE, symObjAddr: 0xA36C, symBinAddr: 0x10000E7B4, symSize: 0x64 }
  - { offsetInCU: 0x47681, offset: 0x47681, size: 0x8, addend: 0x0, symName: __ZNSt3__18ios_baseC2B8ue170006Ev, symObjAddr: 0xA3D0, symBinAddr: 0x10000E818, symSize: 0x24 }
  - { offsetInCU: 0x476AB, offset: 0x476AB, size: 0x8, addend: 0x0, symName: __ZNSt3__19basic_iosIcNS_11char_traitsIcEEE4initB8ue170006EPNS_15basic_streambufIcS2_EE, symObjAddr: 0xA3F4, symBinAddr: 0x10000E83C, symSize: 0x44 }
  - { offsetInCU: 0x476E3, offset: 0x476E3, size: 0x8, addend: 0x0, symName: __ZNSt3__18ios_base10exceptionsB8ue170006Ej, symObjAddr: 0xA438, symBinAddr: 0x10000E880, symSize: 0x34 }
  - { offsetInCU: 0x4771B, offset: 0x4771B, size: 0x8, addend: 0x0, symName: __ZNKSt3__113basic_filebufIcNS_11char_traitsIcEEE7is_openEv, symObjAddr: 0xA46C, symBinAddr: 0x10000E8B4, symSize: 0x24 }
  - { offsetInCU: 0x47743, offset: 0x47743, size: 0x8, addend: 0x0, symName: __ZNSt3__16vectorIhNS_9allocatorIhEEEC2B8ue170006Ev, symObjAddr: 0xA490, symBinAddr: 0x10000E8D8, symSize: 0x4C }
  - { offsetInCU: 0x4776D, offset: 0x4776D, size: 0x8, addend: 0x0, symName: __ZNSt3__117__compressed_pairIPhNS_9allocatorIhEEEC1B8ue170006IDnNS_18__default_init_tagEEEOT_OT0_, symObjAddr: 0xA4DC, symBinAddr: 0x10000E924, symSize: 0x3C }
  - { offsetInCU: 0x477C5, offset: 0x477C5, size: 0x8, addend: 0x0, symName: __ZNSt3__117__compressed_pairIPhNS_9allocatorIhEEEC2B8ue170006IDnNS_18__default_init_tagEEEOT_OT0_, symObjAddr: 0xA518, symBinAddr: 0x10000E960, symSize: 0x40 }
  - { offsetInCU: 0x4781D, offset: 0x4781D, size: 0x8, addend: 0x0, symName: __ZNSt3__122__compressed_pair_elemIPhLi0ELb0EEC2B8ue170006IDnvEEOT_, symObjAddr: 0xA558, symBinAddr: 0x10000E9A0, symSize: 0x1C }
  - { offsetInCU: 0x4785F, offset: 0x4785F, size: 0x8, addend: 0x0, symName: __ZNSt3__122__compressed_pair_elemINS_9allocatorIhEELi1ELb1EEC2B8ue170006ENS_18__default_init_tagE, symObjAddr: 0xA574, symBinAddr: 0x10000E9BC, symSize: 0x2C }
  - { offsetInCU: 0x47893, offset: 0x47893, size: 0x8, addend: 0x0, symName: __ZNSt3__19allocatorIhEC2B8ue170006Ev, symObjAddr: 0xA5A0, symBinAddr: 0x10000E9E8, symSize: 0x2C }
  - { offsetInCU: 0x478BD, offset: 0x478BD, size: 0x8, addend: 0x0, symName: __ZNSt3__116__non_trivial_ifILb1ENS_9allocatorIhEEEC2B8ue170006Ev, symObjAddr: 0xA5CC, symBinAddr: 0x10000EA14, symSize: 0x14 }
  - { offsetInCU: 0x478E7, offset: 0x478E7, size: 0x8, addend: 0x0, symName: __ZNKSt3__19basic_iosIcNS_11char_traitsIcEEE4failB8ue170006Ev, symObjAddr: 0xA5E0, symBinAddr: 0x10000EA28, symSize: 0x28 }
  - { offsetInCU: 0x4790D, offset: 0x4790D, size: 0x8, addend: 0x0, symName: __ZNKSt3__18ios_base4failB8ue170006Ev, symObjAddr: 0xA608, symBinAddr: 0x10000EA50, symSize: 0x28 }
  - { offsetInCU: 0x47935, offset: 0x47935, size: 0x8, addend: 0x0, symName: __ZNSt3__16vectorIhNS_9allocatorIhEEE18__insert_with_sizeB8ue170006IPhS5_EENS_11__wrap_iterIS5_EENS6_IPKhEET_T0_l, symObjAddr: 0xA630, symBinAddr: 0x10000EA78, symSize: 0x290 }
  - { offsetInCU: 0x47A6B, offset: 0x47A6B, size: 0x8, addend: 0x0, symName: __ZNSt3__16vectorIhNS_9allocatorIhEEE5beginB8ue170006Ev, symObjAddr: 0xA92C, symBinAddr: 0x10000ED74, symSize: 0x30 }
  - { offsetInCU: 0x47A93, offset: 0x47A93, size: 0x8, addend: 0x0, symName: __ZNSt3__16vectorIhNS_9allocatorIhEEE9__end_capB8ue170006Ev, symObjAddr: 0xA95C, symBinAddr: 0x10000EDA4, symSize: 0x28 }
  - { offsetInCU: 0x47AB9, offset: 0x47AB9, size: 0x8, addend: 0x0, symName: __ZNSt3__16vectorIhNS_9allocatorIhEEE18__construct_at_endIPhS5_EEvT_T0_m, symObjAddr: 0xA9F0, symBinAddr: 0x10000EE38, symSize: 0x8C }
  - { offsetInCU: 0x47B33, offset: 0x47B33, size: 0x8, addend: 0x0, symName: __ZNSt3__16vectorIhNS_9allocatorIhEEE12__move_rangeEPhS4_S4_, symObjAddr: 0xAA7C, symBinAddr: 0x10000EEC4, symSize: 0x120 }
  - { offsetInCU: 0x47BF7, offset: 0x47BF7, size: 0x8, addend: 0x0, symName: __ZNSt3__16vectorIhNS_9allocatorIhEEE7__allocB8ue170006Ev, symObjAddr: 0xABDC, symBinAddr: 0x10000F024, symSize: 0x28 }
  - { offsetInCU: 0x47C1D, offset: 0x47C1D, size: 0x8, addend: 0x0, symName: __ZNKSt3__16vectorIhNS_9allocatorIhEEE11__recommendB8ue170006Em, symObjAddr: 0xAC04, symBinAddr: 0x10000F04C, symSize: 0xB4 }
  - { offsetInCU: 0x47C75, offset: 0x47C75, size: 0x8, addend: 0x0, symName: __ZNKSt3__16vectorIhNS_9allocatorIhEEE4sizeB8ue170006Ev, symObjAddr: 0xACB8, symBinAddr: 0x10000F100, symSize: 0x20 }
  - { offsetInCU: 0x47C9B, offset: 0x47C9B, size: 0x8, addend: 0x0, symName: __ZNSt3__114__split_bufferIhRNS_9allocatorIhEEEC1EmmS3_, symObjAddr: 0xACD8, symBinAddr: 0x10000F120, symSize: 0x44 }
  - { offsetInCU: 0x47CF1, offset: 0x47CF1, size: 0x8, addend: 0x0, symName: __ZNSt3__114__split_bufferIhRNS_9allocatorIhEEE28__construct_at_end_with_sizeIPhEEvT_m, symObjAddr: 0xAD1C, symBinAddr: 0x10000F164, symSize: 0xC8 }
  - { offsetInCU: 0x47D4E, offset: 0x47D4E, size: 0x8, addend: 0x0, symName: __ZNSt3__114__split_bufferIhRNS_9allocatorIhEEED1Ev, symObjAddr: 0xAF30, symBinAddr: 0x10000F378, symSize: 0x2C }
  - { offsetInCU: 0x47D7A, offset: 0x47D7A, size: 0x8, addend: 0x0, symName: __ZNSt3__16vectorIhNS_9allocatorIhEEE11__make_iterB8ue170006EPh, symObjAddr: 0xAF5C, symBinAddr: 0x10000F3A4, symSize: 0x30 }
  - { offsetInCU: 0x47DB0, offset: 0x47DB0, size: 0x8, addend: 0x0, symName: __ZNKSt3__111__wrap_iterIPKhE4baseB8ue170006Ev, symObjAddr: 0xAF8C, symBinAddr: 0x10000F3D4, symSize: 0x18 }
  - { offsetInCU: 0x47DD6, offset: 0x47DD6, size: 0x8, addend: 0x0, symName: __ZNKSt3__111__wrap_iterIPhE4baseB8ue170006Ev, symObjAddr: 0xAFA4, symBinAddr: 0x10000F3EC, symSize: 0x18 }
  - { offsetInCU: 0x47DFC, offset: 0x47DFC, size: 0x8, addend: 0x0, symName: __ZNSt3__117__compressed_pairIPhNS_9allocatorIhEEE5firstB8ue170006Ev, symObjAddr: 0xAFBC, symBinAddr: 0x10000F404, symSize: 0x24 }
  - { offsetInCU: 0x47E22, offset: 0x47E22, size: 0x8, addend: 0x0, symName: __ZNSt3__122__compressed_pair_elemIPhLi0ELb0EE5__getB8ue170006Ev, symObjAddr: 0xAFE0, symBinAddr: 0x10000F428, symSize: 0x14 }
  - { offsetInCU: 0x47E64, offset: 0x47E64, size: 0x8, addend: 0x0, symName: __ZNSt3__16vectorIhNS_9allocatorIhEEE21_ConstructTransactionC1B8ue170006ERS3_m, symObjAddr: 0xB01C, symBinAddr: 0x10000F464, symSize: 0x3C }
  - { offsetInCU: 0x47EAE, offset: 0x47EAE, size: 0x8, addend: 0x0, symName: __ZNSt3__16vectorIhNS_9allocatorIhEEE21_ConstructTransactionD1B8ue170006Ev, symObjAddr: 0xB0D8, symBinAddr: 0x10000F520, symSize: 0x2C }
  - { offsetInCU: 0x47ED8, offset: 0x47ED8, size: 0x8, addend: 0x0, symName: __ZNSt3__16vectorIhNS_9allocatorIhEEE21_ConstructTransactionC2B8ue170006ERS3_m, symObjAddr: 0xB104, symBinAddr: 0x10000F54C, symSize: 0x44 }
  - { offsetInCU: 0x47F3F, offset: 0x47F3F, size: 0x8, addend: 0x0, symName: __ZNSt3__119__unwrap_range_implIPhS1_E8__unwrapB8ue170006ES1_S1_, symObjAddr: 0xB21C, symBinAddr: 0x10000F664, symSize: 0x58 }
  - { offsetInCU: 0x47F76, offset: 0x47F76, size: 0x8, addend: 0x0, symName: __ZNSt3__14pairIPhS1_EC1B8ue170006IS1_S1_LPv0EEEOT_OT0_, symObjAddr: 0xB274, symBinAddr: 0x10000F6BC, symSize: 0x3C }
  - { offsetInCU: 0x47FD4, offset: 0x47FD4, size: 0x8, addend: 0x0, symName: __ZNSt3__14pairIPhS1_EC2B8ue170006IS1_S1_LPv0EEEOT_OT0_, symObjAddr: 0xB2B0, symBinAddr: 0x10000F6F8, symSize: 0x34 }
  - { offsetInCU: 0x48032, offset: 0x48032, size: 0x8, addend: 0x0, symName: __ZNSt3__118__unwrap_iter_implIPhLb1EE8__unwrapB8ue170006ES1_, symObjAddr: 0xB2E4, symBinAddr: 0x10000F72C, symSize: 0x24 }
  - { offsetInCU: 0x48055, offset: 0x48055, size: 0x8, addend: 0x0, symName: __ZNSt3__118__unwrap_iter_implIPhLb1EE8__rewrapB8ue170006ES1_S1_, symObjAddr: 0xB31C, symBinAddr: 0x10000F764, symSize: 0x48 }
  - { offsetInCU: 0x48086, offset: 0x48086, size: 0x8, addend: 0x0, symName: __ZNSt3__16vectorIhNS_9allocatorIhEEE21_ConstructTransactionD2B8ue170006Ev, symObjAddr: 0xB364, symBinAddr: 0x10000F7AC, symSize: 0x20 }
  - { offsetInCU: 0x480B6, offset: 0x480B6, size: 0x8, addend: 0x0, symName: __ZNSt3__116allocator_traitsINS_9allocatorIhEEE9constructB8ue170006IhJhEvvEEvRS2_PT_DpOT0_, symObjAddr: 0xB384, symBinAddr: 0x10000F7CC, symSize: 0x30 }
  - { offsetInCU: 0x48118, offset: 0x48118, size: 0x8, addend: 0x0, symName: __ZNKSt3__123__move_backward_trivialclB8ue170006IhhLi0EEENS_4pairIPT_PT0_EES4_S4_S6_, symObjAddr: 0xB55C, symBinAddr: 0x10000F9A4, symSize: 0x48 }
  - { offsetInCU: 0x48180, offset: 0x48180, size: 0x8, addend: 0x0, symName: __ZNSt3__14pairIPhS1_EC1B8ue170006IRS1_S4_LPv0EEEOT_OT0_, symObjAddr: 0xB724, symBinAddr: 0x10000FB6C, symSize: 0x3C }
  - { offsetInCU: 0x481DE, offset: 0x481DE, size: 0x8, addend: 0x0, symName: __ZNSt3__14pairIPhS1_EC2B8ue170006IRS1_S4_LPv0EEEOT_OT0_, symObjAddr: 0xB760, symBinAddr: 0x10000FBA8, symSize: 0x34 }
  - { offsetInCU: 0x4823C, offset: 0x4823C, size: 0x8, addend: 0x0, symName: __ZNSt3__119__unwrap_range_implIPhS1_E8__rewrapB8ue170006ES1_S1_, symObjAddr: 0xB794, symBinAddr: 0x10000FBDC, symSize: 0x2C }
  - { offsetInCU: 0x48278, offset: 0x48278, size: 0x8, addend: 0x0, symName: __ZNKSt3__114__copy_trivialclB8ue170006IhhLi0EEENS_4pairIPT_PT0_EES4_S4_S6_, symObjAddr: 0xB8FC, symBinAddr: 0x10000FD44, symSize: 0x48 }
  - { offsetInCU: 0x482E0, offset: 0x482E0, size: 0x8, addend: 0x0, symName: __ZNSt3__14pairIPhS1_EC1B8ue170006IRS1_S1_LPv0EEEOT_OT0_, symObjAddr: 0xB9F4, symBinAddr: 0x10000FE3C, symSize: 0x3C }
  - { offsetInCU: 0x4833E, offset: 0x4833E, size: 0x8, addend: 0x0, symName: __ZNSt3__14pairIPhS1_EC2B8ue170006IRS1_S1_LPv0EEEOT_OT0_, symObjAddr: 0xBA30, symBinAddr: 0x10000FE78, symSize: 0x34 }
  - { offsetInCU: 0x4839C, offset: 0x4839C, size: 0x8, addend: 0x0, symName: __ZNSt3__117__compressed_pairIPhNS_9allocatorIhEEE6secondB8ue170006Ev, symObjAddr: 0xBA64, symBinAddr: 0x10000FEAC, symSize: 0x24 }
  - { offsetInCU: 0x483C2, offset: 0x483C2, size: 0x8, addend: 0x0, symName: __ZNSt3__122__compressed_pair_elemINS_9allocatorIhEELi1ELb1EE5__getB8ue170006Ev, symObjAddr: 0xBA88, symBinAddr: 0x10000FED0, symSize: 0x14 }
  - { offsetInCU: 0x483E8, offset: 0x483E8, size: 0x8, addend: 0x0, symName: __ZNKSt3__16vectorIhNS_9allocatorIhEEE8max_sizeEv, symObjAddr: 0xBA9C, symBinAddr: 0x10000FEE4, symSize: 0x60 }
  - { offsetInCU: 0x48410, offset: 0x48410, size: 0x8, addend: 0x0, symName: __ZNKSt3__16vectorIhNS_9allocatorIhEEE20__throw_length_errorB8ue170006Ev, symObjAddr: 0xBAFC, symBinAddr: 0x10000FF44, symSize: 0x1C }
  - { offsetInCU: 0x48436, offset: 0x48436, size: 0x8, addend: 0x0, symName: __ZNKSt3__16vectorIhNS_9allocatorIhEEE8capacityB8ue170006Ev, symObjAddr: 0xBB18, symBinAddr: 0x10000FF60, symSize: 0x38 }
  - { offsetInCU: 0x48467, offset: 0x48467, size: 0x8, addend: 0x0, symName: __ZNSt3__116allocator_traitsINS_9allocatorIhEEE8max_sizeB8ue170006IS2_vvEEmRKS2_, symObjAddr: 0xBB50, symBinAddr: 0x10000FF98, symSize: 0x28 }
  - { offsetInCU: 0x48493, offset: 0x48493, size: 0x8, addend: 0x0, symName: __ZNKSt3__16vectorIhNS_9allocatorIhEEE7__allocB8ue170006Ev, symObjAddr: 0xBB78, symBinAddr: 0x10000FFC0, symSize: 0x28 }
  - { offsetInCU: 0x484B9, offset: 0x484B9, size: 0x8, addend: 0x0, symName: __ZNKSt3__117__compressed_pairIPhNS_9allocatorIhEEE6secondB8ue170006Ev, symObjAddr: 0xBBA0, symBinAddr: 0x10000FFE8, symSize: 0x24 }
  - { offsetInCU: 0x484DF, offset: 0x484DF, size: 0x8, addend: 0x0, symName: __ZNKSt3__122__compressed_pair_elemINS_9allocatorIhEELi1ELb1EE5__getB8ue170006Ev, symObjAddr: 0xBBC4, symBinAddr: 0x10001000C, symSize: 0x14 }
  - { offsetInCU: 0x48505, offset: 0x48505, size: 0x8, addend: 0x0, symName: __ZNKSt3__16vectorIhNS_9allocatorIhEEE9__end_capB8ue170006Ev, symObjAddr: 0xBBD8, symBinAddr: 0x100010020, symSize: 0x28 }
  - { offsetInCU: 0x4852B, offset: 0x4852B, size: 0x8, addend: 0x0, symName: __ZNKSt3__117__compressed_pairIPhNS_9allocatorIhEEE5firstB8ue170006Ev, symObjAddr: 0xBC00, symBinAddr: 0x100010048, symSize: 0x24 }
  - { offsetInCU: 0x48551, offset: 0x48551, size: 0x8, addend: 0x0, symName: __ZNKSt3__122__compressed_pair_elemIPhLi0ELb0EE5__getB8ue170006Ev, symObjAddr: 0xBC24, symBinAddr: 0x10001006C, symSize: 0x14 }
  - { offsetInCU: 0x48577, offset: 0x48577, size: 0x8, addend: 0x0, symName: __ZNSt3__114__split_bufferIhRNS_9allocatorIhEEEC2EmmS3_, symObjAddr: 0xBC38, symBinAddr: 0x100010080, symSize: 0xD4 }
  - { offsetInCU: 0x485EB, offset: 0x485EB, size: 0x8, addend: 0x0, symName: __ZNSt3__117__compressed_pairIPhRNS_9allocatorIhEEEC1B8ue170006IDnS4_EEOT_OT0_, symObjAddr: 0xBD0C, symBinAddr: 0x100010154, symSize: 0x3C }
  - { offsetInCU: 0x48643, offset: 0x48643, size: 0x8, addend: 0x0, symName: __ZNSt3__114__split_bufferIhRNS_9allocatorIhEEE7__allocB8ue170006Ev, symObjAddr: 0xBD88, symBinAddr: 0x1000101D0, symSize: 0x28 }
  - { offsetInCU: 0x48669, offset: 0x48669, size: 0x8, addend: 0x0, symName: __ZNSt3__114__split_bufferIhRNS_9allocatorIhEEE9__end_capB8ue170006Ev, symObjAddr: 0xBDB0, symBinAddr: 0x1000101F8, symSize: 0x28 }
  - { offsetInCU: 0x4868F, offset: 0x4868F, size: 0x8, addend: 0x0, symName: __ZNSt3__117__compressed_pairIPhRNS_9allocatorIhEEEC2B8ue170006IDnS4_EEOT_OT0_, symObjAddr: 0xBDD8, symBinAddr: 0x100010220, symSize: 0x48 }
  - { offsetInCU: 0x486E7, offset: 0x486E7, size: 0x8, addend: 0x0, symName: __ZNSt3__122__compressed_pair_elemIRNS_9allocatorIhEELi1ELb0EEC2B8ue170006IS3_vEEOT_, symObjAddr: 0xBE20, symBinAddr: 0x100010268, symSize: 0x20 }
  - { offsetInCU: 0x48729, offset: 0x48729, size: 0x8, addend: 0x0, symName: __ZNSt3__19allocatorIhE8allocateB8ue170006Em, symObjAddr: 0xBE40, symBinAddr: 0x100010288, symSize: 0x58 }
  - { offsetInCU: 0x4875D, offset: 0x4875D, size: 0x8, addend: 0x0, symName: __ZNSt3__117__compressed_pairIPhRNS_9allocatorIhEEE6secondB8ue170006Ev, symObjAddr: 0xBE98, symBinAddr: 0x1000102E0, symSize: 0x28 }
  - { offsetInCU: 0x48783, offset: 0x48783, size: 0x8, addend: 0x0, symName: __ZNSt3__122__compressed_pair_elemIRNS_9allocatorIhEELi1ELb0EE5__getB8ue170006Ev, symObjAddr: 0xBEC0, symBinAddr: 0x100010308, symSize: 0x18 }
  - { offsetInCU: 0x487A9, offset: 0x487A9, size: 0x8, addend: 0x0, symName: __ZNSt3__117__compressed_pairIPhRNS_9allocatorIhEEE5firstB8ue170006Ev, symObjAddr: 0xBED8, symBinAddr: 0x100010320, symSize: 0x24 }
  - { offsetInCU: 0x487DB, offset: 0x487DB, size: 0x8, addend: 0x0, symName: __ZNSt3__114__split_bufferIhRNS_9allocatorIhEEE21_ConstructTransactionC1B8ue170006EPPhm, symObjAddr: 0xBEFC, symBinAddr: 0x100010344, symSize: 0x3C }
  - { offsetInCU: 0x48821, offset: 0x48821, size: 0x8, addend: 0x0, symName: __ZNSt3__116allocator_traitsINS_9allocatorIhEEE9constructB8ue170006IhJRhEvvEEvRS2_PT_DpOT0_, symObjAddr: 0xBF38, symBinAddr: 0x100010380, symSize: 0x30 }
  - { offsetInCU: 0x48878, offset: 0x48878, size: 0x8, addend: 0x0, symName: __ZNSt3__114__split_bufferIhRNS_9allocatorIhEEE21_ConstructTransactionD1B8ue170006Ev, symObjAddr: 0xBF68, symBinAddr: 0x1000103B0, symSize: 0x2C }
  - { offsetInCU: 0x488A2, offset: 0x488A2, size: 0x8, addend: 0x0, symName: __ZNSt3__114__split_bufferIhRNS_9allocatorIhEEE21_ConstructTransactionC2B8ue170006EPPhm, symObjAddr: 0xBF94, symBinAddr: 0x1000103DC, symSize: 0x44 }
  - { offsetInCU: 0x488E8, offset: 0x488E8, size: 0x8, addend: 0x0, symName: __ZNSt3__114__split_bufferIhRNS_9allocatorIhEEE21_ConstructTransactionD2B8ue170006Ev, symObjAddr: 0xC004, symBinAddr: 0x10001044C, symSize: 0x20 }
  - { offsetInCU: 0x48912, offset: 0x48912, size: 0x8, addend: 0x0, symName: __ZNKSt3__16vectorIhNS_9allocatorIhEEE17__annotate_deleteB8ue170006Ev, symObjAddr: 0xC024, symBinAddr: 0x10001046C, symSize: 0xB8 }
  - { offsetInCU: 0x48938, offset: 0x48938, size: 0x8, addend: 0x0, symName: __ZNSt3__116reverse_iteratorIPhEC1B8ue170006ES1_, symObjAddr: 0xC154, symBinAddr: 0x10001059C, symSize: 0x34 }
  - { offsetInCU: 0x48970, offset: 0x48970, size: 0x8, addend: 0x0, symName: __ZNKSt3__116reverse_iteratorIPhE4baseB8ue170006Ev, symObjAddr: 0xC188, symBinAddr: 0x1000105D0, symSize: 0x18 }
  - { offsetInCU: 0x48996, offset: 0x48996, size: 0x8, addend: 0x0, symName: __ZNKSt3__16vectorIhNS_9allocatorIhEEE14__annotate_newB8ue170006Em, symObjAddr: 0xC214, symBinAddr: 0x10001065C, symSize: 0xAC }
  - { offsetInCU: 0x489CC, offset: 0x489CC, size: 0x8, addend: 0x0, symName: __ZNKSt3__16vectorIhNS_9allocatorIhEEE31__annotate_contiguous_containerB8ue170006EPKvS5_S5_S5_, symObjAddr: 0xC2C0, symBinAddr: 0x100010708, symSize: 0x20 }
  - { offsetInCU: 0x48A22, offset: 0x48A22, size: 0x8, addend: 0x0, symName: __ZNKSt3__16vectorIhNS_9allocatorIhEEE4dataB8ue170006Ev, symObjAddr: 0xC2E0, symBinAddr: 0x100010728, symSize: 0x28 }
  - { offsetInCU: 0x48A65, offset: 0x48A65, size: 0x8, addend: 0x0, symName: __ZNKSt3__111__move_loopINS_17_ClassicAlgPolicyEEclB8ue170006INS_16reverse_iteratorIPhEES6_S6_EENS_4pairIT_T1_EES8_T0_S9_, symObjAddr: 0xC5C0, symBinAddr: 0x100010A08, symSize: 0xA0 }
  - { offsetInCU: 0x48AD0, offset: 0x48AD0, size: 0x8, addend: 0x0, symName: __ZNSt3__119__unwrap_range_implINS_16reverse_iteratorIPhEES3_E8__unwrapB8ue170006ES3_S3_, symObjAddr: 0xC7AC, symBinAddr: 0x100010BF4, symSize: 0x84 }
  - { offsetInCU: 0x48B07, offset: 0x48B07, size: 0x8, addend: 0x0, symName: __ZNSt3__14pairINS_16reverse_iteratorIPhEES3_EC1B8ue170006IS3_S3_LPv0EEEOT_OT0_, symObjAddr: 0xC830, symBinAddr: 0x100010C78, symSize: 0x3C }
  - { offsetInCU: 0x48B65, offset: 0x48B65, size: 0x8, addend: 0x0, symName: __ZNSt3__14pairINS_16reverse_iteratorIPhEES3_EC2B8ue170006IS3_S3_LPv0EEEOT_OT0_, symObjAddr: 0xC86C, symBinAddr: 0x100010CB4, symSize: 0x34 }
  - { offsetInCU: 0x48BC3, offset: 0x48BC3, size: 0x8, addend: 0x0, symName: __ZNSt3__18_IterOpsINS_17_ClassicAlgPolicyEE11__iter_moveB8ue170006IRNS_16reverse_iteratorIPhEEEENS_9enable_ifIXsr12is_referenceIDTdeclsr3stdE7declvalIRT_EEEEE5valueEDTclsr3stdE4movedeclsr3stdE7declvalISA_EEEEE4typeEOS9_, symObjAddr: 0xC8E8, symBinAddr: 0x100010D30, symSize: 0x28 }
  - { offsetInCU: 0x48BEF, offset: 0x48BEF, size: 0x8, addend: 0x0, symName: __ZNKSt3__116reverse_iteratorIPhEdeB8ue170006Ev, symObjAddr: 0xC910, symBinAddr: 0x100010D58, symSize: 0x28 }
  - { offsetInCU: 0x48C23, offset: 0x48C23, size: 0x8, addend: 0x0, symName: __ZNSt3__116reverse_iteratorIPhEppB8ue170006Ev, symObjAddr: 0xC938, symBinAddr: 0x100010D80, symSize: 0x20 }
  - { offsetInCU: 0x48C49, offset: 0x48C49, size: 0x8, addend: 0x0, symName: __ZNSt3__18_IterOpsINS_17_ClassicAlgPolicyEE25__validate_iter_referenceB8ue170006IRNS_16reverse_iteratorIPhEEEEvv, symObjAddr: 0xC958, symBinAddr: 0x100010DA0, symSize: 0x4 }
  - { offsetInCU: 0x48C67, offset: 0x48C67, size: 0x8, addend: 0x0, symName: __ZNSt3__118__unwrap_iter_implINS_16reverse_iteratorIPhEELb0EE8__unwrapB8ue170006ES3_, symObjAddr: 0xC95C, symBinAddr: 0x100010DA4, symSize: 0x24 }
  - { offsetInCU: 0x48C8A, offset: 0x48C8A, size: 0x8, addend: 0x0, symName: __ZNSt3__119__unwrap_range_implINS_16reverse_iteratorIPhEES3_E8__rewrapB8ue170006ES3_S3_, symObjAddr: 0xC980, symBinAddr: 0x100010DC8, symSize: 0x5C }
  - { offsetInCU: 0x48CBB, offset: 0x48CBB, size: 0x8, addend: 0x0, symName: __ZNSt3__118__unwrap_iter_implINS_16reverse_iteratorIPhEELb0EE8__rewrapB8ue170006ES3_S3_, symObjAddr: 0xC9DC, symBinAddr: 0x100010E24, symSize: 0x2C }
  - { offsetInCU: 0x48CE8, offset: 0x48CE8, size: 0x8, addend: 0x0, symName: __ZNSt3__116reverse_iteratorIPhEC2B8ue170006ES1_, symObjAddr: 0xCA08, symBinAddr: 0x100010E50, symSize: 0x28 }
  - { offsetInCU: 0x48D2B, offset: 0x48D2B, size: 0x8, addend: 0x0, symName: __ZNKSt3__114__move_trivialclB8ue170006IhhLi0EEENS_4pairIPT_PT0_EES4_S4_S6_, symObjAddr: 0xCBAC, symBinAddr: 0x100010FF4, symSize: 0x48 }
  - { offsetInCU: 0x48D93, offset: 0x48D93, size: 0x8, addend: 0x0, symName: __ZNSt3__114__split_bufferIhRNS_9allocatorIhEEED2Ev, symObjAddr: 0xCBF4, symBinAddr: 0x10001103C, symSize: 0x8C }
  - { offsetInCU: 0x48DBF, offset: 0x48DBF, size: 0x8, addend: 0x0, symName: __ZNSt3__114__split_bufferIhRNS_9allocatorIhEEE5clearB8ue170006Ev, symObjAddr: 0xCC80, symBinAddr: 0x1000110C8, symSize: 0x28 }
  - { offsetInCU: 0x48DE5, offset: 0x48DE5, size: 0x8, addend: 0x0, symName: __ZNSt3__116allocator_traitsINS_9allocatorIhEEE10deallocateB8ue170006ERS2_Phm, symObjAddr: 0xCCA8, symBinAddr: 0x1000110F0, symSize: 0x34 }
  - { offsetInCU: 0x48E2A, offset: 0x48E2A, size: 0x8, addend: 0x0, symName: __ZNKSt3__114__split_bufferIhRNS_9allocatorIhEEE8capacityB8ue170006Ev, symObjAddr: 0xCCDC, symBinAddr: 0x100011124, symSize: 0x38 }
  - { offsetInCU: 0x48E50, offset: 0x48E50, size: 0x8, addend: 0x0, symName: __ZNSt3__114__split_bufferIhRNS_9allocatorIhEEE17__destruct_at_endB8ue170006EPh, symObjAddr: 0xCD14, symBinAddr: 0x10001115C, symSize: 0x2C }
  - { offsetInCU: 0x48E84, offset: 0x48E84, size: 0x8, addend: 0x0, symName: __ZNSt3__114__split_bufferIhRNS_9allocatorIhEEE17__destruct_at_endB8ue170006EPhNS_17integral_constantIbLb0EEE, symObjAddr: 0xCD40, symBinAddr: 0x100011188, symSize: 0x80 }
  - { offsetInCU: 0x48EC4, offset: 0x48EC4, size: 0x8, addend: 0x0, symName: __ZNSt3__116allocator_traitsINS_9allocatorIhEEE7destroyB8ue170006IhvvEEvRS2_PT_, symObjAddr: 0xCDC0, symBinAddr: 0x100011208, symSize: 0x28 }
  - { offsetInCU: 0x48F00, offset: 0x48F00, size: 0x8, addend: 0x0, symName: __ZNSt3__19allocatorIhE10deallocateB8ue170006EPhm, symObjAddr: 0xCE1C, symBinAddr: 0x100011264, symSize: 0x40 }
  - { offsetInCU: 0x48F42, offset: 0x48F42, size: 0x8, addend: 0x0, symName: __ZNKSt3__114__split_bufferIhRNS_9allocatorIhEEE9__end_capB8ue170006Ev, symObjAddr: 0xCE5C, symBinAddr: 0x1000112A4, symSize: 0x28 }
  - { offsetInCU: 0x48F68, offset: 0x48F68, size: 0x8, addend: 0x0, symName: __ZNKSt3__117__compressed_pairIPhRNS_9allocatorIhEEE5firstB8ue170006Ev, symObjAddr: 0xCE84, symBinAddr: 0x1000112CC, symSize: 0x24 }
  - { offsetInCU: 0x48F8E, offset: 0x48F8E, size: 0x8, addend: 0x0, symName: __ZNSt3__111__wrap_iterIPhEC1B8ue170006ES1_, symObjAddr: 0xCEA8, symBinAddr: 0x1000112F0, symSize: 0x34 }
  - { offsetInCU: 0x48FC6, offset: 0x48FC6, size: 0x8, addend: 0x0, symName: __ZNSt3__111__wrap_iterIPhEC2B8ue170006ES1_, symObjAddr: 0xCEDC, symBinAddr: 0x100011324, symSize: 0x20 }
  - { offsetInCU: 0x48FFE, offset: 0x48FFE, size: 0x8, addend: 0x0, symName: __ZNSt3__111__wrap_iterIPKhEC2B8ue170006IPhEERKNS0_IT_EEPNS_9enable_ifIXsr14is_convertibleIS6_S2_EE5valueEvE4typeE, symObjAddr: 0xCF1C, symBinAddr: 0x100011364, symSize: 0x40 }
  - { offsetInCU: 0x49049, offset: 0x49049, size: 0x8, addend: 0x0, symName: __ZNSt3__15arrayIhLm4096EE5beginB8ue170006Ev, symObjAddr: 0xCF5C, symBinAddr: 0x1000113A4, symSize: 0x24 }
  - { offsetInCU: 0x4906F, offset: 0x4906F, size: 0x8, addend: 0x0, symName: __ZNSt3__114basic_ifstreamIcNS_11char_traitsIcEEED2Ev, symObjAddr: 0xCF80, symBinAddr: 0x1000113C8, symSize: 0x64 }
  - { offsetInCU: 0x490A9, offset: 0x490A9, size: 0x8, addend: 0x0, symName: __ZTv0_n24_NSt3__114basic_ifstreamIcNS_11char_traitsIcEEED1Ev, symObjAddr: 0xCFE4, symBinAddr: 0x10001142C, symSize: 0x28 }
  - { offsetInCU: 0x490C0, offset: 0x490C0, size: 0x8, addend: 0x0, symName: '__ZNSt3__18functionIFN3xpf11RenderBatchEvEEC2IZZ9test_fontRNS1_9IRendererEENK3$_0clES7_EUlvE0_vEET_', symObjAddr: 0xD00C, symBinAddr: 0x100011454, symSize: 0x34 }
  - { offsetInCU: 0x49107, offset: 0x49107, size: 0x8, addend: 0x0, symName: '__ZNSt3__110__function12__value_funcIFN3xpf11RenderBatchEvEEC1B8ue170006IZZ9test_fontRNS2_9IRendererEENK3$_0clES8_EUlvE0_vEEOT_', symObjAddr: 0xD040, symBinAddr: 0x100011488, symSize: 0x50 }
  - { offsetInCU: 0x4914B, offset: 0x4914B, size: 0x8, addend: 0x0, symName: '__ZNSt3__19allocatorIZZ9test_fontRN3xpf9IRendererEENK3$_0clES3_EUlvE0_EC1B8ue170006Ev', symObjAddr: 0xD090, symBinAddr: 0x1000114D8, symSize: 0x2C }
  - { offsetInCU: 0x49175, offset: 0x49175, size: 0x8, addend: 0x0, symName: '__ZNSt3__110__function12__value_funcIFN3xpf11RenderBatchEvEEC1B8ue170006IZZ9test_fontRNS2_9IRendererEENK3$_0clES8_EUlvE0_NS_9allocatorISA_EEEEOT_RKT0_', symObjAddr: 0xD0BC, symBinAddr: 0x100011504, symSize: 0x3C }
  - { offsetInCU: 0x491D1, offset: 0x491D1, size: 0x8, addend: 0x0, symName: '__ZNSt3__19allocatorIZZ9test_fontRN3xpf9IRendererEENK3$_0clES3_EUlvE0_EC2B8ue170006Ev', symObjAddr: 0xD0F8, symBinAddr: 0x100011540, symSize: 0x2C }
  - { offsetInCU: 0x491FB, offset: 0x491FB, size: 0x8, addend: 0x0, symName: '__ZNSt3__116__non_trivial_ifILb1ENS_9allocatorIZZ9test_fontRN3xpf9IRendererEENK3$_0clES4_EUlvE0_EEEC2B8ue170006Ev', symObjAddr: 0xD124, symBinAddr: 0x10001156C, symSize: 0x14 }
  - { offsetInCU: 0x49225, offset: 0x49225, size: 0x8, addend: 0x0, symName: '__ZNSt3__110__function12__value_funcIFN3xpf11RenderBatchEvEEC2B8ue170006IZZ9test_fontRNS2_9IRendererEENK3$_0clES8_EUlvE0_NS_9allocatorISA_EEEEOT_RKT0_', symObjAddr: 0xD138, symBinAddr: 0x100011580, symSize: 0xF4 }
  - { offsetInCU: 0x492C7, offset: 0x492C7, size: 0x8, addend: 0x0, symName: '__ZNSt3__19allocatorINS_10__function6__funcIZZ9test_fontRN3xpf9IRendererEENK3$_0clES5_EUlvE0_NS0_IS7_EEFNS3_11RenderBatchEvEEEEC1B8ue170006IS7_EERKNS0_IT_EE', symObjAddr: 0xD244, symBinAddr: 0x10001168C, symSize: 0x34 }
  - { offsetInCU: 0x49304, offset: 0x49304, size: 0x8, addend: 0x0, symName: '__ZNSt3__19allocatorINS_10__function6__funcIZZ9test_fontRN3xpf9IRendererEENK3$_0clES5_EUlvE0_NS0_IS7_EEFNS3_11RenderBatchEvEEEE8allocateB8ue170006Em', symObjAddr: 0xD278, symBinAddr: 0x1000116C0, symSize: 0x58 }
  - { offsetInCU: 0x4934A, offset: 0x4934A, size: 0x8, addend: 0x0, symName: '__ZNSt3__122__allocator_destructorINS_9allocatorINS_10__function6__funcIZZ9test_fontRN3xpf9IRendererEENK3$_0clES6_EUlvE0_NS1_IS8_EEFNS4_11RenderBatchEvEEEEEEC1B8ue170006ERSD_m', symObjAddr: 0xD2D0, symBinAddr: 0x100011718, symSize: 0x3C }
  - { offsetInCU: 0x49431, offset: 0x49431, size: 0x8, addend: 0x0, symName: '__ZNSt3__110unique_ptrINS_10__function6__baseIFN3xpf11RenderBatchEvEEENS_22__allocator_destructorINS_9allocatorINS1_6__funcIZZ9test_fontRNS3_9IRendererEENK3$_0clESB_EUlvE0_NS8_ISD_EES5_EEEEEEEC1B8ue170006ILb1EvEEPSF_NS_16__dependent_typeINS_27__unique_ptr_deleter_sfinaeISH_EEXT_EE20__good_rval_ref_typeE', symObjAddr: 0xD30C, symBinAddr: 0x100011754, symSize: 0x3C }
  - { offsetInCU: 0x49482, offset: 0x49482, size: 0x8, addend: 0x0, symName: '__ZNKSt3__110unique_ptrINS_10__function6__baseIFN3xpf11RenderBatchEvEEENS_22__allocator_destructorINS_9allocatorINS1_6__funcIZZ9test_fontRNS3_9IRendererEENK3$_0clESB_EUlvE0_NS8_ISD_EES5_EEEEEEE3getB8ue170006Ev', symObjAddr: 0xD348, symBinAddr: 0x100011790, symSize: 0x28 }
  - { offsetInCU: 0x494A8, offset: 0x494A8, size: 0x8, addend: 0x0, symName: '__ZNSt3__110__function6__funcIZZ9test_fontRN3xpf9IRendererEENK3$_0clES4_EUlvE0_NS_9allocatorIS6_EEFNS2_11RenderBatchEvEEC1B8ue170006EOS6_OS8_', symObjAddr: 0xD370, symBinAddr: 0x1000117B8, symSize: 0x3C }
  - { offsetInCU: 0x494F2, offset: 0x494F2, size: 0x8, addend: 0x0, symName: '__ZNSt3__110unique_ptrINS_10__function6__baseIFN3xpf11RenderBatchEvEEENS_22__allocator_destructorINS_9allocatorINS1_6__funcIZZ9test_fontRNS3_9IRendererEENK3$_0clESB_EUlvE0_NS8_ISD_EES5_EEEEEEE7releaseB8ue170006Ev', symObjAddr: 0xD3AC, symBinAddr: 0x1000117F4, symSize: 0x44 }
  - { offsetInCU: 0x49528, offset: 0x49528, size: 0x8, addend: 0x0, symName: '__ZNSt3__110unique_ptrINS_10__function6__baseIFN3xpf11RenderBatchEvEEENS_22__allocator_destructorINS_9allocatorINS1_6__funcIZZ9test_fontRNS3_9IRendererEENK3$_0clESB_EUlvE0_NS8_ISD_EES5_EEEEEEED1B8ue170006Ev', symObjAddr: 0xD3F0, symBinAddr: 0x100011838, symSize: 0x2C }
  - { offsetInCU: 0x49552, offset: 0x49552, size: 0x8, addend: 0x0, symName: '__ZNSt3__19allocatorINS_10__function6__funcIZZ9test_fontRN3xpf9IRendererEENK3$_0clES5_EUlvE0_NS0_IS7_EEFNS3_11RenderBatchEvEEEEC2B8ue170006IS7_EERKNS0_IT_EE', symObjAddr: 0xD41C, symBinAddr: 0x100011864, symSize: 0x30 }
  - { offsetInCU: 0x4958F, offset: 0x4958F, size: 0x8, addend: 0x0, symName: '__ZNSt3__116__non_trivial_ifILb1ENS_9allocatorINS_10__function6__funcIZZ9test_fontRN3xpf9IRendererEENK3$_0clES6_EUlvE0_NS1_IS8_EEFNS4_11RenderBatchEvEEEEEEC2B8ue170006Ev', symObjAddr: 0xD44C, symBinAddr: 0x100011894, symSize: 0x14 }
  - { offsetInCU: 0x495C4, offset: 0x495C4, size: 0x8, addend: 0x0, symName: '__ZNSt3__116allocator_traitsINS_9allocatorINS_10__function6__funcIZZ9test_fontRN3xpf9IRendererEENK3$_0clES6_EUlvE0_NS1_IS8_EEFNS4_11RenderBatchEvEEEEEE8max_sizeB8ue170006ISD_vvEEmRKSD_', symObjAddr: 0xD460, symBinAddr: 0x1000118A8, symSize: 0x28 }
  - { offsetInCU: 0x495F0, offset: 0x495F0, size: 0x8, addend: 0x0, symName: '__ZNSt3__122__allocator_destructorINS_9allocatorINS_10__function6__funcIZZ9test_fontRN3xpf9IRendererEENK3$_0clES6_EUlvE0_NS1_IS8_EEFNS4_11RenderBatchEvEEEEEEC2B8ue170006ERSD_m', symObjAddr: 0xD488, symBinAddr: 0x1000118D0, symSize: 0x2C }
  - { offsetInCU: 0x49636, offset: 0x49636, size: 0x8, addend: 0x0, symName: '__ZNSt3__110unique_ptrINS_10__function6__baseIFN3xpf11RenderBatchEvEEENS_22__allocator_destructorINS_9allocatorINS1_6__funcIZZ9test_fontRNS3_9IRendererEENK3$_0clESB_EUlvE0_NS8_ISD_EES5_EEEEEEEC2B8ue170006ILb1EvEEPSF_NS_16__dependent_typeINS_27__unique_ptr_deleter_sfinaeISH_EEXT_EE20__good_rval_ref_typeE', symObjAddr: 0xD4B4, symBinAddr: 0x1000118FC, symSize: 0x48 }
  - { offsetInCU: 0x49687, offset: 0x49687, size: 0x8, addend: 0x0, symName: '__ZNSt3__117__compressed_pairIPNS_10__function6__funcIZZ9test_fontRN3xpf9IRendererEENK3$_0clES5_EUlvE0_NS_9allocatorIS7_EEFNS3_11RenderBatchEvEEENS_22__allocator_destructorINS8_ISC_EEEEEC1B8ue170006IRSD_SG_EEOT_OT0_', symObjAddr: 0xD4FC, symBinAddr: 0x100011944, symSize: 0x3C }
  - { offsetInCU: 0x496DF, offset: 0x496DF, size: 0x8, addend: 0x0, symName: '__ZNSt3__117__compressed_pairIPNS_10__function6__funcIZZ9test_fontRN3xpf9IRendererEENK3$_0clES5_EUlvE0_NS_9allocatorIS7_EEFNS3_11RenderBatchEvEEENS_22__allocator_destructorINS8_ISC_EEEEEC2B8ue170006IRSD_SG_EEOT_OT0_', symObjAddr: 0xD538, symBinAddr: 0x100011980, symSize: 0x48 }
  - { offsetInCU: 0x49737, offset: 0x49737, size: 0x8, addend: 0x0, symName: '__ZNSt3__122__compressed_pair_elemIPNS_10__function6__funcIZZ9test_fontRN3xpf9IRendererEENK3$_0clES5_EUlvE0_NS_9allocatorIS7_EEFNS3_11RenderBatchEvEEELi0ELb0EEC2B8ue170006IRSD_vEEOT_', symObjAddr: 0xD580, symBinAddr: 0x1000119C8, symSize: 0x24 }
  - { offsetInCU: 0x49779, offset: 0x49779, size: 0x8, addend: 0x0, symName: '__ZNSt3__122__compressed_pair_elemINS_22__allocator_destructorINS_9allocatorINS_10__function6__funcIZZ9test_fontRN3xpf9IRendererEENK3$_0clES7_EUlvE0_NS2_IS9_EEFNS5_11RenderBatchEvEEEEEEELi1ELb0EEC2B8ue170006ISF_vEEOT_', symObjAddr: 0xD5A4, symBinAddr: 0x1000119EC, symSize: 0x24 }
  - { offsetInCU: 0x497BB, offset: 0x497BB, size: 0x8, addend: 0x0, symName: '__ZNKSt3__117__compressed_pairIPNS_10__function6__funcIZZ9test_fontRN3xpf9IRendererEENK3$_0clES5_EUlvE0_NS_9allocatorIS7_EEFNS3_11RenderBatchEvEEENS_22__allocator_destructorINS8_ISC_EEEEE5firstB8ue170006Ev', symObjAddr: 0xD5C8, symBinAddr: 0x100011A10, symSize: 0x24 }
  - { offsetInCU: 0x497E1, offset: 0x497E1, size: 0x8, addend: 0x0, symName: '__ZNKSt3__122__compressed_pair_elemIPNS_10__function6__funcIZZ9test_fontRN3xpf9IRendererEENK3$_0clES5_EUlvE0_NS_9allocatorIS7_EEFNS3_11RenderBatchEvEEELi0ELb0EE5__getB8ue170006Ev', symObjAddr: 0xD5EC, symBinAddr: 0x100011A34, symSize: 0x14 }
  - { offsetInCU: 0x49807, offset: 0x49807, size: 0x8, addend: 0x0, symName: '__ZNSt3__110__function6__funcIZZ9test_fontRN3xpf9IRendererEENK3$_0clES4_EUlvE0_NS_9allocatorIS6_EEFNS2_11RenderBatchEvEEC2B8ue170006EOS6_OS8_', symObjAddr: 0xD600, symBinAddr: 0x100011A48, symSize: 0x88 }
  - { offsetInCU: 0x49851, offset: 0x49851, size: 0x8, addend: 0x0, symName: '__ZNSt3__110__function12__alloc_funcIZZ9test_fontRN3xpf9IRendererEENK3$_0clES4_EUlvE0_NS_9allocatorIS6_EEFNS2_11RenderBatchEvEEC1B8ue170006EOS6_OS8_', symObjAddr: 0xD688, symBinAddr: 0x100011AD0, symSize: 0x3C }
  - { offsetInCU: 0x49897, offset: 0x49897, size: 0x8, addend: 0x0, symName: '__ZNSt3__110__function6__funcIZZ9test_fontRN3xpf9IRendererEENK3$_0clES4_EUlvE0_NS_9allocatorIS6_EEFNS2_11RenderBatchEvEED1Ev', symObjAddr: 0xD6C4, symBinAddr: 0x100011B0C, symSize: 0x2C }
  - { offsetInCU: 0x498C4, offset: 0x498C4, size: 0x8, addend: 0x0, symName: '__ZNSt3__110__function6__funcIZZ9test_fontRN3xpf9IRendererEENK3$_0clES4_EUlvE0_NS_9allocatorIS6_EEFNS2_11RenderBatchEvEED0Ev', symObjAddr: 0xD6F0, symBinAddr: 0x100011B38, symSize: 0x30 }
  - { offsetInCU: 0x498F1, offset: 0x498F1, size: 0x8, addend: 0x0, symName: '__ZNKSt3__110__function6__funcIZZ9test_fontRN3xpf9IRendererEENK3$_0clES4_EUlvE0_NS_9allocatorIS6_EEFNS2_11RenderBatchEvEE7__cloneEv', symObjAddr: 0xD720, symBinAddr: 0x100011B68, symSize: 0xFC }
  - { offsetInCU: 0x49945, offset: 0x49945, size: 0x8, addend: 0x0, symName: '__ZNKSt3__110__function6__funcIZZ9test_fontRN3xpf9IRendererEENK3$_0clES4_EUlvE0_NS_9allocatorIS6_EEFNS2_11RenderBatchEvEE7__cloneEPNS0_6__baseISA_EE', symObjAddr: 0xD81C, symBinAddr: 0x100011C64, symSize: 0x58 }
  - { offsetInCU: 0x4997D, offset: 0x4997D, size: 0x8, addend: 0x0, symName: '__ZNSt3__110__function6__funcIZZ9test_fontRN3xpf9IRendererEENK3$_0clES4_EUlvE0_NS_9allocatorIS6_EEFNS2_11RenderBatchEvEE7destroyEv', symObjAddr: 0xD874, symBinAddr: 0x100011CBC, symSize: 0x28 }
  - { offsetInCU: 0x499A5, offset: 0x499A5, size: 0x8, addend: 0x0, symName: '__ZNSt3__110__function6__funcIZZ9test_fontRN3xpf9IRendererEENK3$_0clES4_EUlvE0_NS_9allocatorIS6_EEFNS2_11RenderBatchEvEE18destroy_deallocateEv', symObjAddr: 0xD89C, symBinAddr: 0x100011CE4, symSize: 0x58 }
  - { offsetInCU: 0x499E9, offset: 0x499E9, size: 0x8, addend: 0x0, symName: '__ZNSt3__110__function6__funcIZZ9test_fontRN3xpf9IRendererEENK3$_0clES4_EUlvE0_NS_9allocatorIS6_EEFNS2_11RenderBatchEvEEclEv', symObjAddr: 0xD8F4, symBinAddr: 0x100011D3C, symSize: 0x30 }
  - { offsetInCU: 0x49A11, offset: 0x49A11, size: 0x8, addend: 0x0, symName: '__ZNKSt3__110__function6__funcIZZ9test_fontRN3xpf9IRendererEENK3$_0clES4_EUlvE0_NS_9allocatorIS6_EEFNS2_11RenderBatchEvEE6targetERKSt9type_info', symObjAddr: 0xD924, symBinAddr: 0x100011D6C, symSize: 0x60 }
  - { offsetInCU: 0x49A49, offset: 0x49A49, size: 0x8, addend: 0x0, symName: '__ZNKSt3__110__function6__funcIZZ9test_fontRN3xpf9IRendererEENK3$_0clES4_EUlvE0_NS_9allocatorIS6_EEFNS2_11RenderBatchEvEE11target_typeEv', symObjAddr: 0xD984, symBinAddr: 0x100011DCC, symSize: 0x18 }
  - { offsetInCU: 0x49A71, offset: 0x49A71, size: 0x8, addend: 0x0, symName: '__ZNSt3__110__function12__alloc_funcIZZ9test_fontRN3xpf9IRendererEENK3$_0clES4_EUlvE0_NS_9allocatorIS6_EEFNS2_11RenderBatchEvEEC2B8ue170006EOS6_OS8_', symObjAddr: 0xD99C, symBinAddr: 0x100011DE4, symSize: 0x5C }
  - { offsetInCU: 0x49AB7, offset: 0x49AB7, size: 0x8, addend: 0x0, symName: '__ZNSt3__117__compressed_pairIZZ9test_fontRN3xpf9IRendererEENK3$_0clES3_EUlvE0_NS_9allocatorIS5_EEEC1B8ue170006IJOS5_EJOS7_EEENS_21piecewise_construct_tENS_5tupleIJDpT_EEENSD_IJDpT0_EEE', symObjAddr: 0xDA50, symBinAddr: 0x100011E98, symSize: 0x3C }
  - { offsetInCU: 0x49B21, offset: 0x49B21, size: 0x8, addend: 0x0, symName: '__ZNSt3__15tupleIJOZZ9test_fontRN3xpf9IRendererEENK3$_0clES3_EUlvE0_EEC1B8ue170006IJS5_ELi0EEEDpOT_', symObjAddr: 0xDA8C, symBinAddr: 0x100011ED4, symSize: 0x34 }
  - { offsetInCU: 0x49B6C, offset: 0x49B6C, size: 0x8, addend: 0x0, symName: '__ZNSt3__15tupleIJOZZ9test_fontRN3xpf9IRendererEENK3$_0clES3_EUlvE0_EEC2B8ue170006IJS5_ELi0EEEDpOT_', symObjAddr: 0xDAC0, symBinAddr: 0x100011F08, symSize: 0x34 }
  - { offsetInCU: 0x49BB7, offset: 0x49BB7, size: 0x8, addend: 0x0, symName: '__ZNSt3__112__tuple_implINS_15__tuple_indicesIJLm0EEEEJOZZ9test_fontRN3xpf9IRendererEENK3$_0clES5_EUlvE0_EEC1B8ue170006IJLm0EEJS8_EJEJEJS7_EEENS1_IJXspT_EEEENS_13__tuple_typesIJDpT0_EEENS1_IJXspT1_EEEENSC_IJDpT2_EEEDpOT3_', symObjAddr: 0xDAF4, symBinAddr: 0x100011F3C, symSize: 0x34 }
  - { offsetInCU: 0x49C4F, offset: 0x49C4F, size: 0x8, addend: 0x0, symName: '__ZNSt3__112__tuple_implINS_15__tuple_indicesIJLm0EEEEJOZZ9test_fontRN3xpf9IRendererEENK3$_0clES5_EUlvE0_EEC2B8ue170006IJLm0EEJS8_EJEJEJS7_EEENS1_IJXspT_EEEENS_13__tuple_typesIJDpT0_EEENS1_IJXspT1_EEEENSC_IJDpT2_EEEDpOT3_', symObjAddr: 0xDB28, symBinAddr: 0x100011F70, symSize: 0x34 }
  - { offsetInCU: 0x49CE7, offset: 0x49CE7, size: 0x8, addend: 0x0, symName: '__ZNSt3__112__tuple_leafILm0EOZZ9test_fontRN3xpf9IRendererEENK3$_0clES3_EUlvE0_Lb0EEC2B8ue170006IS5_vEEOT_', symObjAddr: 0xDB5C, symBinAddr: 0x100011FA4, symSize: 0x20 }
  - { offsetInCU: 0x49D2B, offset: 0x49D2B, size: 0x8, addend: 0x0, symName: '__ZNSt3__15tupleIJONS_9allocatorIZZ9test_fontRN3xpf9IRendererEENK3$_0clES4_EUlvE0_EEEEC1B8ue170006IJS7_ELi0EEEDpOT_', symObjAddr: 0xDB7C, symBinAddr: 0x100011FC4, symSize: 0x34 }
  - { offsetInCU: 0x49D76, offset: 0x49D76, size: 0x8, addend: 0x0, symName: '__ZNSt3__15tupleIJONS_9allocatorIZZ9test_fontRN3xpf9IRendererEENK3$_0clES4_EUlvE0_EEEEC2B8ue170006IJS7_ELi0EEEDpOT_', symObjAddr: 0xDBB0, symBinAddr: 0x100011FF8, symSize: 0x34 }
  - { offsetInCU: 0x49DC1, offset: 0x49DC1, size: 0x8, addend: 0x0, symName: '__ZNSt3__112__tuple_implINS_15__tuple_indicesIJLm0EEEEJONS_9allocatorIZZ9test_fontRN3xpf9IRendererEENK3$_0clES6_EUlvE0_EEEEC1B8ue170006IJLm0EEJSA_EJEJEJS9_EEENS1_IJXspT_EEEENS_13__tuple_typesIJDpT0_EEENS1_IJXspT1_EEEENSE_IJDpT2_EEEDpOT3_', symObjAddr: 0xDBE4, symBinAddr: 0x10001202C, symSize: 0x34 }
  - { offsetInCU: 0x49E59, offset: 0x49E59, size: 0x8, addend: 0x0, symName: '__ZNSt3__112__tuple_implINS_15__tuple_indicesIJLm0EEEEJONS_9allocatorIZZ9test_fontRN3xpf9IRendererEENK3$_0clES6_EUlvE0_EEEEC2B8ue170006IJLm0EEJSA_EJEJEJS9_EEENS1_IJXspT_EEEENS_13__tuple_typesIJDpT0_EEENS1_IJXspT1_EEEENSE_IJDpT2_EEEDpOT3_', symObjAddr: 0xDC18, symBinAddr: 0x100012060, symSize: 0x34 }
  - { offsetInCU: 0x49EF1, offset: 0x49EF1, size: 0x8, addend: 0x0, symName: '__ZNSt3__112__tuple_leafILm0EONS_9allocatorIZZ9test_fontRN3xpf9IRendererEENK3$_0clES4_EUlvE0_EELb0EEC2B8ue170006IS7_vEEOT_', symObjAddr: 0xDC4C, symBinAddr: 0x100012094, symSize: 0x20 }
  - { offsetInCU: 0x49F35, offset: 0x49F35, size: 0x8, addend: 0x0, symName: '__ZNSt3__117__compressed_pairIZZ9test_fontRN3xpf9IRendererEENK3$_0clES3_EUlvE0_NS_9allocatorIS5_EEEC2B8ue170006IJOS5_EJOS7_EEENS_21piecewise_construct_tENS_5tupleIJDpT_EEENSD_IJDpT0_EEE', symObjAddr: 0xDC6C, symBinAddr: 0x1000120B4, symSize: 0x54 }
  - { offsetInCU: 0x49F9F, offset: 0x49F9F, size: 0x8, addend: 0x0, symName: '__ZNSt3__122__compressed_pair_elemIZZ9test_fontRN3xpf9IRendererEENK3$_0clES3_EUlvE0_Li0ELb0EEC2B8ue170006IJOS5_EJLm0EEEENS_21piecewise_construct_tENS_5tupleIJDpT_EEENS_15__tuple_indicesIJXspT0_EEEE', symObjAddr: 0xDCC0, symBinAddr: 0x100012108, symSize: 0x4C }
  - { offsetInCU: 0x4A002, offset: 0x4A002, size: 0x8, addend: 0x0, symName: '__ZNSt3__122__compressed_pair_elemINS_9allocatorIZZ9test_fontRN3xpf9IRendererEENK3$_0clES4_EUlvE0_EELi1ELb1EEC2B8ue170006IJOS7_EJLm0EEEENS_21piecewise_construct_tENS_5tupleIJDpT_EEENS_15__tuple_indicesIJXspT0_EEEE', symObjAddr: 0xDD0C, symBinAddr: 0x100012154, symSize: 0x38 }
  - { offsetInCU: 0x4A065, offset: 0x4A065, size: 0x8, addend: 0x0, symName: '__ZNSt3__112__tuple_leafILm0EOZZ9test_fontRN3xpf9IRendererEENK3$_0clES3_EUlvE0_Lb0EE3getB8ue170006Ev', symObjAddr: 0xDD68, symBinAddr: 0x1000121B0, symSize: 0x18 }
  - { offsetInCU: 0x4A08B, offset: 0x4A08B, size: 0x8, addend: 0x0, symName: '__ZNSt3__112__tuple_leafILm0EONS_9allocatorIZZ9test_fontRN3xpf9IRendererEENK3$_0clES4_EUlvE0_EELb0EE3getB8ue170006Ev', symObjAddr: 0xDDA4, symBinAddr: 0x1000121EC, symSize: 0x18 }
  - { offsetInCU: 0x4A0B1, offset: 0x4A0B1, size: 0x8, addend: 0x0, symName: '__ZNSt3__110__function6__funcIZZ9test_fontRN3xpf9IRendererEENK3$_0clES4_EUlvE0_NS_9allocatorIS6_EEFNS2_11RenderBatchEvEED2Ev', symObjAddr: 0xDDBC, symBinAddr: 0x100012204, symSize: 0x2C }
  - { offsetInCU: 0x4A0DE, offset: 0x4A0DE, size: 0x8, addend: 0x0, symName: '__ZNKSt3__110__function12__alloc_funcIZZ9test_fontRN3xpf9IRendererEENK3$_0clES4_EUlvE0_NS_9allocatorIS6_EEFNS2_11RenderBatchEvEE15__get_allocatorB8ue170006Ev', symObjAddr: 0xDDE8, symBinAddr: 0x100012230, symSize: 0x24 }
  - { offsetInCU: 0x4A138, offset: 0x4A138, size: 0x8, addend: 0x0, symName: '__ZNSt3__110unique_ptrINS_10__function6__funcIZZ9test_fontRN3xpf9IRendererEENK3$_0clES5_EUlvE0_NS_9allocatorIS7_EEFNS3_11RenderBatchEvEEENS_22__allocator_destructorINS8_ISC_EEEEEC1B8ue170006ILb1EvEEPSC_NS_16__dependent_typeINS_27__unique_ptr_deleter_sfinaeISF_EEXT_EE20__good_rval_ref_typeE', symObjAddr: 0xDE0C, symBinAddr: 0x100012254, symSize: 0x3C }
  - { offsetInCU: 0x4A189, offset: 0x4A189, size: 0x8, addend: 0x0, symName: '__ZNKSt3__110unique_ptrINS_10__function6__funcIZZ9test_fontRN3xpf9IRendererEENK3$_0clES5_EUlvE0_NS_9allocatorIS7_EEFNS3_11RenderBatchEvEEENS_22__allocator_destructorINS8_ISC_EEEEE3getB8ue170006Ev', symObjAddr: 0xDE48, symBinAddr: 0x100012290, symSize: 0x28 }
  - { offsetInCU: 0x4A1AF, offset: 0x4A1AF, size: 0x8, addend: 0x0, symName: '__ZNKSt3__110__function12__alloc_funcIZZ9test_fontRN3xpf9IRendererEENK3$_0clES4_EUlvE0_NS_9allocatorIS6_EEFNS2_11RenderBatchEvEE8__targetB8ue170006Ev', symObjAddr: 0xDE70, symBinAddr: 0x1000122B8, symSize: 0x24 }
  - { offsetInCU: 0x4A1E0, offset: 0x4A1E0, size: 0x8, addend: 0x0, symName: '__ZNSt3__19allocatorIZZ9test_fontRN3xpf9IRendererEENK3$_0clES3_EUlvE0_EC1B8ue170006INS_10__function6__funcIS5_S6_FNS1_11RenderBatchEvEEEEERKNS0_IT_EE', symObjAddr: 0xDE94, symBinAddr: 0x1000122DC, symSize: 0x34 }
  - { offsetInCU: 0x4A21D, offset: 0x4A21D, size: 0x8, addend: 0x0, symName: '__ZNSt3__110__function6__funcIZZ9test_fontRN3xpf9IRendererEENK3$_0clES4_EUlvE0_NS_9allocatorIS6_EEFNS2_11RenderBatchEvEEC1B8ue170006ERKS6_OS8_', symObjAddr: 0xDEC8, symBinAddr: 0x100012310, symSize: 0x3C }
  - { offsetInCU: 0x4A267, offset: 0x4A267, size: 0x8, addend: 0x0, symName: '__ZNSt3__110unique_ptrINS_10__function6__funcIZZ9test_fontRN3xpf9IRendererEENK3$_0clES5_EUlvE0_NS_9allocatorIS7_EEFNS3_11RenderBatchEvEEENS_22__allocator_destructorINS8_ISC_EEEEE7releaseB8ue170006Ev', symObjAddr: 0xDF04, symBinAddr: 0x10001234C, symSize: 0x44 }
  - { offsetInCU: 0x4A29D, offset: 0x4A29D, size: 0x8, addend: 0x0, symName: '__ZNSt3__110unique_ptrINS_10__function6__funcIZZ9test_fontRN3xpf9IRendererEENK3$_0clES5_EUlvE0_NS_9allocatorIS7_EEFNS3_11RenderBatchEvEEENS_22__allocator_destructorINS8_ISC_EEEEED1B8ue170006Ev', symObjAddr: 0xDF48, symBinAddr: 0x100012390, symSize: 0x2C }
  - { offsetInCU: 0x4A2C7, offset: 0x4A2C7, size: 0x8, addend: 0x0, symName: '__ZNKSt3__117__compressed_pairIZZ9test_fontRN3xpf9IRendererEENK3$_0clES3_EUlvE0_NS_9allocatorIS5_EEE6secondB8ue170006Ev', symObjAddr: 0xDF74, symBinAddr: 0x1000123BC, symSize: 0x24 }
  - { offsetInCU: 0x4A2ED, offset: 0x4A2ED, size: 0x8, addend: 0x0, symName: '__ZNKSt3__122__compressed_pair_elemINS_9allocatorIZZ9test_fontRN3xpf9IRendererEENK3$_0clES4_EUlvE0_EELi1ELb1EE5__getB8ue170006Ev', symObjAddr: 0xDF98, symBinAddr: 0x1000123E0, symSize: 0x14 }
  - { offsetInCU: 0x4A313, offset: 0x4A313, size: 0x8, addend: 0x0, symName: '__ZNSt3__110unique_ptrINS_10__function6__funcIZZ9test_fontRN3xpf9IRendererEENK3$_0clES5_EUlvE0_NS_9allocatorIS7_EEFNS3_11RenderBatchEvEEENS_22__allocator_destructorINS8_ISC_EEEEEC2B8ue170006ILb1EvEEPSC_NS_16__dependent_typeINS_27__unique_ptr_deleter_sfinaeISF_EEXT_EE20__good_rval_ref_typeE', symObjAddr: 0xDFAC, symBinAddr: 0x1000123F4, symSize: 0x48 }
  - { offsetInCU: 0x4A364, offset: 0x4A364, size: 0x8, addend: 0x0, symName: '__ZNKSt3__117__compressed_pairIZZ9test_fontRN3xpf9IRendererEENK3$_0clES3_EUlvE0_NS_9allocatorIS5_EEE5firstB8ue170006Ev', symObjAddr: 0xDFF4, symBinAddr: 0x10001243C, symSize: 0x24 }
  - { offsetInCU: 0x4A38A, offset: 0x4A38A, size: 0x8, addend: 0x0, symName: '__ZNKSt3__122__compressed_pair_elemIZZ9test_fontRN3xpf9IRendererEENK3$_0clES3_EUlvE0_Li0ELb0EE5__getB8ue170006Ev', symObjAddr: 0xE018, symBinAddr: 0x100012460, symSize: 0x14 }
  - { offsetInCU: 0x4A3B0, offset: 0x4A3B0, size: 0x8, addend: 0x0, symName: '__ZNSt3__19allocatorIZZ9test_fontRN3xpf9IRendererEENK3$_0clES3_EUlvE0_EC2B8ue170006INS_10__function6__funcIS5_S6_FNS1_11RenderBatchEvEEEEERKNS0_IT_EE', symObjAddr: 0xE02C, symBinAddr: 0x100012474, symSize: 0x30 }
  - { offsetInCU: 0x4A3ED, offset: 0x4A3ED, size: 0x8, addend: 0x0, symName: '__ZNSt3__110__function6__funcIZZ9test_fontRN3xpf9IRendererEENK3$_0clES4_EUlvE0_NS_9allocatorIS6_EEFNS2_11RenderBatchEvEEC2B8ue170006ERKS6_OS8_', symObjAddr: 0xE05C, symBinAddr: 0x1000124A4, symSize: 0x88 }
  - { offsetInCU: 0x4A437, offset: 0x4A437, size: 0x8, addend: 0x0, symName: '__ZNSt3__110__function12__alloc_funcIZZ9test_fontRN3xpf9IRendererEENK3$_0clES4_EUlvE0_NS_9allocatorIS6_EEFNS2_11RenderBatchEvEEC1B8ue170006ERKS6_OS8_', symObjAddr: 0xE0E4, symBinAddr: 0x10001252C, symSize: 0x3C }
  - { offsetInCU: 0x4A47D, offset: 0x4A47D, size: 0x8, addend: 0x0, symName: '__ZNSt3__110__function12__alloc_funcIZZ9test_fontRN3xpf9IRendererEENK3$_0clES4_EUlvE0_NS_9allocatorIS6_EEFNS2_11RenderBatchEvEEC2B8ue170006ERKS6_OS8_', symObjAddr: 0xE120, symBinAddr: 0x100012568, symSize: 0x5C }
  - { offsetInCU: 0x4A4C3, offset: 0x4A4C3, size: 0x8, addend: 0x0, symName: '__ZNSt3__117__compressed_pairIZZ9test_fontRN3xpf9IRendererEENK3$_0clES3_EUlvE0_NS_9allocatorIS5_EEEC1B8ue170006IJRKS5_EJOS7_EEENS_21piecewise_construct_tENS_5tupleIJDpT_EEENSE_IJDpT0_EEE', symObjAddr: 0xE1A8, symBinAddr: 0x1000125F0, symSize: 0x3C }
  - { offsetInCU: 0x4A52D, offset: 0x4A52D, size: 0x8, addend: 0x0, symName: '__ZNSt3__15tupleIJRKZZ9test_fontRN3xpf9IRendererEENK3$_0clES3_EUlvE0_EEC1B8ue170006INS_4_AndELi0EEES7_', symObjAddr: 0xE1E4, symBinAddr: 0x10001262C, symSize: 0x34 }
  - { offsetInCU: 0x4A576, offset: 0x4A576, size: 0x8, addend: 0x0, symName: '__ZNSt3__15tupleIJRKZZ9test_fontRN3xpf9IRendererEENK3$_0clES3_EUlvE0_EEC2B8ue170006INS_4_AndELi0EEES7_', symObjAddr: 0xE218, symBinAddr: 0x100012660, symSize: 0x34 }
  - { offsetInCU: 0x4A5BF, offset: 0x4A5BF, size: 0x8, addend: 0x0, symName: '__ZNSt3__112__tuple_implINS_15__tuple_indicesIJLm0EEEEJRKZZ9test_fontRN3xpf9IRendererEENK3$_0clES5_EUlvE0_EEC1B8ue170006IJLm0EEJS9_EJEJEJS9_EEENS1_IJXspT_EEEENS_13__tuple_typesIJDpT0_EEENS1_IJXspT1_EEEENSD_IJDpT2_EEEDpOT3_', symObjAddr: 0xE24C, symBinAddr: 0x100012694, symSize: 0x34 }
  - { offsetInCU: 0x4A657, offset: 0x4A657, size: 0x8, addend: 0x0, symName: '__ZNSt3__112__tuple_implINS_15__tuple_indicesIJLm0EEEEJRKZZ9test_fontRN3xpf9IRendererEENK3$_0clES5_EUlvE0_EEC2B8ue170006IJLm0EEJS9_EJEJEJS9_EEENS1_IJXspT_EEEENS_13__tuple_typesIJDpT0_EEENS1_IJXspT1_EEEENSD_IJDpT2_EEEDpOT3_', symObjAddr: 0xE280, symBinAddr: 0x1000126C8, symSize: 0x34 }
  - { offsetInCU: 0x4A6EF, offset: 0x4A6EF, size: 0x8, addend: 0x0, symName: '__ZNSt3__112__tuple_leafILm0ERKZZ9test_fontRN3xpf9IRendererEENK3$_0clES3_EUlvE0_Lb0EEC2B8ue170006IS7_vEEOT_', symObjAddr: 0xE2B4, symBinAddr: 0x1000126FC, symSize: 0x20 }
  - { offsetInCU: 0x4A733, offset: 0x4A733, size: 0x8, addend: 0x0, symName: '__ZNSt3__117__compressed_pairIZZ9test_fontRN3xpf9IRendererEENK3$_0clES3_EUlvE0_NS_9allocatorIS5_EEEC2B8ue170006IJRKS5_EJOS7_EEENS_21piecewise_construct_tENS_5tupleIJDpT_EEENSE_IJDpT0_EEE', symObjAddr: 0xE2D4, symBinAddr: 0x10001271C, symSize: 0x54 }
  - { offsetInCU: 0x4A79D, offset: 0x4A79D, size: 0x8, addend: 0x0, symName: '__ZNSt3__122__compressed_pair_elemIZZ9test_fontRN3xpf9IRendererEENK3$_0clES3_EUlvE0_Li0ELb0EEC2B8ue170006IJRKS5_EJLm0EEEENS_21piecewise_construct_tENS_5tupleIJDpT_EEENS_15__tuple_indicesIJXspT0_EEEE', symObjAddr: 0xE328, symBinAddr: 0x100012770, symSize: 0x4C }
  - { offsetInCU: 0x4A800, offset: 0x4A800, size: 0x8, addend: 0x0, symName: '__ZNSt3__112__tuple_leafILm0ERKZZ9test_fontRN3xpf9IRendererEENK3$_0clES3_EUlvE0_Lb0EE3getB8ue170006Ev', symObjAddr: 0xE398, symBinAddr: 0x1000127E0, symSize: 0x18 }
  - { offsetInCU: 0x4A826, offset: 0x4A826, size: 0x8, addend: 0x0, symName: '__ZNSt3__117__compressed_pairIPNS_10__function6__funcIZZ9test_fontRN3xpf9IRendererEENK3$_0clES5_EUlvE0_NS_9allocatorIS7_EEFNS3_11RenderBatchEvEEENS_22__allocator_destructorINS8_ISC_EEEEE5firstB8ue170006Ev', symObjAddr: 0xE3B0, symBinAddr: 0x1000127F8, symSize: 0x24 }
  - { offsetInCU: 0x4A84C, offset: 0x4A84C, size: 0x8, addend: 0x0, symName: '__ZNSt3__122__compressed_pair_elemIPNS_10__function6__funcIZZ9test_fontRN3xpf9IRendererEENK3$_0clES5_EUlvE0_NS_9allocatorIS7_EEFNS3_11RenderBatchEvEEELi0ELb0EE5__getB8ue170006Ev', symObjAddr: 0xE3D4, symBinAddr: 0x10001281C, symSize: 0x14 }
  - { offsetInCU: 0x4A872, offset: 0x4A872, size: 0x8, addend: 0x0, symName: '__ZNSt3__110unique_ptrINS_10__function6__funcIZZ9test_fontRN3xpf9IRendererEENK3$_0clES5_EUlvE0_NS_9allocatorIS7_EEFNS3_11RenderBatchEvEEENS_22__allocator_destructorINS8_ISC_EEEEED2B8ue170006Ev', symObjAddr: 0xE3E8, symBinAddr: 0x100012830, symSize: 0x30 }
  - { offsetInCU: 0x4A89C, offset: 0x4A89C, size: 0x8, addend: 0x0, symName: '__ZNSt3__110unique_ptrINS_10__function6__funcIZZ9test_fontRN3xpf9IRendererEENK3$_0clES5_EUlvE0_NS_9allocatorIS7_EEFNS3_11RenderBatchEvEEENS_22__allocator_destructorINS8_ISC_EEEEE5resetB8ue170006EPSC_', symObjAddr: 0xE418, symBinAddr: 0x100012860, symSize: 0x78 }
  - { offsetInCU: 0x4A8E2, offset: 0x4A8E2, size: 0x8, addend: 0x0, symName: '__ZNSt3__117__compressed_pairIPNS_10__function6__funcIZZ9test_fontRN3xpf9IRendererEENK3$_0clES5_EUlvE0_NS_9allocatorIS7_EEFNS3_11RenderBatchEvEEENS_22__allocator_destructorINS8_ISC_EEEEE6secondB8ue170006Ev', symObjAddr: 0xE490, symBinAddr: 0x1000128D8, symSize: 0x28 }
  - { offsetInCU: 0x4A908, offset: 0x4A908, size: 0x8, addend: 0x0, symName: '__ZNSt3__122__allocator_destructorINS_9allocatorINS_10__function6__funcIZZ9test_fontRN3xpf9IRendererEENK3$_0clES6_EUlvE0_NS1_IS8_EEFNS4_11RenderBatchEvEEEEEEclB8ue170006EPSC_', symObjAddr: 0xE4B8, symBinAddr: 0x100012900, symSize: 0x34 }
  - { offsetInCU: 0x4A93C, offset: 0x4A93C, size: 0x8, addend: 0x0, symName: '__ZNSt3__122__compressed_pair_elemINS_22__allocator_destructorINS_9allocatorINS_10__function6__funcIZZ9test_fontRN3xpf9IRendererEENK3$_0clES7_EUlvE0_NS2_IS9_EEFNS5_11RenderBatchEvEEEEEEELi1ELb0EE5__getB8ue170006Ev', symObjAddr: 0xE4EC, symBinAddr: 0x100012934, symSize: 0x14 }
  - { offsetInCU: 0x4A962, offset: 0x4A962, size: 0x8, addend: 0x0, symName: '__ZNSt3__116allocator_traitsINS_9allocatorINS_10__function6__funcIZZ9test_fontRN3xpf9IRendererEENK3$_0clES6_EUlvE0_NS1_IS8_EEFNS4_11RenderBatchEvEEEEEE10deallocateB8ue170006ERSD_PSC_m', symObjAddr: 0xE500, symBinAddr: 0x100012948, symSize: 0x34 }
  - { offsetInCU: 0x4A9A7, offset: 0x4A9A7, size: 0x8, addend: 0x0, symName: '__ZNSt3__19allocatorINS_10__function6__funcIZZ9test_fontRN3xpf9IRendererEENK3$_0clES5_EUlvE0_NS0_IS7_EEFNS3_11RenderBatchEvEEEE10deallocateB8ue170006EPSB_m', symObjAddr: 0xE534, symBinAddr: 0x10001297C, symSize: 0x40 }
  - { offsetInCU: 0x4A9E9, offset: 0x4A9E9, size: 0x8, addend: 0x0, symName: '__ZNSt3__110__function6__funcIZZ9test_fontRN3xpf9IRendererEENK3$_0clES4_EUlvE0_NS_9allocatorIS6_EEFNS2_11RenderBatchEvEEC1B8ue170006ERKS6_RKS8_', symObjAddr: 0xE574, symBinAddr: 0x1000129BC, symSize: 0x3C }
  - { offsetInCU: 0x4AA33, offset: 0x4AA33, size: 0x8, addend: 0x0, symName: '__ZNSt3__110__function6__funcIZZ9test_fontRN3xpf9IRendererEENK3$_0clES4_EUlvE0_NS_9allocatorIS6_EEFNS2_11RenderBatchEvEEC2B8ue170006ERKS6_RKS8_', symObjAddr: 0xE5B0, symBinAddr: 0x1000129F8, symSize: 0x88 }
  - { offsetInCU: 0x4AA7D, offset: 0x4AA7D, size: 0x8, addend: 0x0, symName: '__ZNSt3__110__function12__alloc_funcIZZ9test_fontRN3xpf9IRendererEENK3$_0clES4_EUlvE0_NS_9allocatorIS6_EEFNS2_11RenderBatchEvEEC1B8ue170006ERKS6_RKS8_', symObjAddr: 0xE638, symBinAddr: 0x100012A80, symSize: 0x3C }
  - { offsetInCU: 0x4AAC3, offset: 0x4AAC3, size: 0x8, addend: 0x0, symName: '__ZNSt3__110__function12__alloc_funcIZZ9test_fontRN3xpf9IRendererEENK3$_0clES4_EUlvE0_NS_9allocatorIS6_EEFNS2_11RenderBatchEvEEC2B8ue170006ERKS6_RKS8_', symObjAddr: 0xE674, symBinAddr: 0x100012ABC, symSize: 0x5C }
  - { offsetInCU: 0x4AB09, offset: 0x4AB09, size: 0x8, addend: 0x0, symName: '__ZNSt3__117__compressed_pairIZZ9test_fontRN3xpf9IRendererEENK3$_0clES3_EUlvE0_NS_9allocatorIS5_EEEC1B8ue170006IJRKS5_EJRKS7_EEENS_21piecewise_construct_tENS_5tupleIJDpT_EEENSF_IJDpT0_EEE', symObjAddr: 0xE6FC, symBinAddr: 0x100012B44, symSize: 0x3C }
  - { offsetInCU: 0x4AB73, offset: 0x4AB73, size: 0x8, addend: 0x0, symName: '__ZNSt3__15tupleIJRKNS_9allocatorIZZ9test_fontRN3xpf9IRendererEENK3$_0clES4_EUlvE0_EEEEC1B8ue170006INS_4_AndELi0EEES9_', symObjAddr: 0xE738, symBinAddr: 0x100012B80, symSize: 0x34 }
  - { offsetInCU: 0x4ABBC, offset: 0x4ABBC, size: 0x8, addend: 0x0, symName: '__ZNSt3__15tupleIJRKNS_9allocatorIZZ9test_fontRN3xpf9IRendererEENK3$_0clES4_EUlvE0_EEEEC2B8ue170006INS_4_AndELi0EEES9_', symObjAddr: 0xE76C, symBinAddr: 0x100012BB4, symSize: 0x34 }
  - { offsetInCU: 0x4AC05, offset: 0x4AC05, size: 0x8, addend: 0x0, symName: '__ZNSt3__112__tuple_implINS_15__tuple_indicesIJLm0EEEEJRKNS_9allocatorIZZ9test_fontRN3xpf9IRendererEENK3$_0clES6_EUlvE0_EEEEC1B8ue170006IJLm0EEJSB_EJEJEJSB_EEENS1_IJXspT_EEEENS_13__tuple_typesIJDpT0_EEENS1_IJXspT1_EEEENSF_IJDpT2_EEEDpOT3_', symObjAddr: 0xE7A0, symBinAddr: 0x100012BE8, symSize: 0x34 }
  - { offsetInCU: 0x4AC9D, offset: 0x4AC9D, size: 0x8, addend: 0x0, symName: '__ZNSt3__112__tuple_implINS_15__tuple_indicesIJLm0EEEEJRKNS_9allocatorIZZ9test_fontRN3xpf9IRendererEENK3$_0clES6_EUlvE0_EEEEC2B8ue170006IJLm0EEJSB_EJEJEJSB_EEENS1_IJXspT_EEEENS_13__tuple_typesIJDpT0_EEENS1_IJXspT1_EEEENSF_IJDpT2_EEEDpOT3_', symObjAddr: 0xE7D4, symBinAddr: 0x100012C1C, symSize: 0x34 }
  - { offsetInCU: 0x4AD35, offset: 0x4AD35, size: 0x8, addend: 0x0, symName: '__ZNSt3__112__tuple_leafILm0ERKNS_9allocatorIZZ9test_fontRN3xpf9IRendererEENK3$_0clES4_EUlvE0_EELb0EEC2B8ue170006IS9_vEEOT_', symObjAddr: 0xE808, symBinAddr: 0x100012C50, symSize: 0x20 }
  - { offsetInCU: 0x4AD79, offset: 0x4AD79, size: 0x8, addend: 0x0, symName: '__ZNSt3__117__compressed_pairIZZ9test_fontRN3xpf9IRendererEENK3$_0clES3_EUlvE0_NS_9allocatorIS5_EEEC2B8ue170006IJRKS5_EJRKS7_EEENS_21piecewise_construct_tENS_5tupleIJDpT_EEENSF_IJDpT0_EEE', symObjAddr: 0xE828, symBinAddr: 0x100012C70, symSize: 0x54 }
  - { offsetInCU: 0x4ADE3, offset: 0x4ADE3, size: 0x8, addend: 0x0, symName: '__ZNSt3__122__compressed_pair_elemINS_9allocatorIZZ9test_fontRN3xpf9IRendererEENK3$_0clES4_EUlvE0_EELi1ELb1EEC2B8ue170006IJRKS7_EJLm0EEEENS_21piecewise_construct_tENS_5tupleIJDpT_EEENS_15__tuple_indicesIJXspT0_EEEE', symObjAddr: 0xE87C, symBinAddr: 0x100012CC4, symSize: 0x38 }
  - { offsetInCU: 0x4AE46, offset: 0x4AE46, size: 0x8, addend: 0x0, symName: '__ZNSt3__112__tuple_leafILm0ERKNS_9allocatorIZZ9test_fontRN3xpf9IRendererEENK3$_0clES4_EUlvE0_EELb0EE3getB8ue170006Ev', symObjAddr: 0xE8D8, symBinAddr: 0x100012D20, symSize: 0x18 }
  - { offsetInCU: 0x4AE6C, offset: 0x4AE6C, size: 0x8, addend: 0x0, symName: '__ZNSt3__110__function12__alloc_funcIZZ9test_fontRN3xpf9IRendererEENK3$_0clES4_EUlvE0_NS_9allocatorIS6_EEFNS2_11RenderBatchEvEE7destroyB8ue170006Ev', symObjAddr: 0xE8F0, symBinAddr: 0x100012D38, symSize: 0x10 }
  - { offsetInCU: 0x4AE92, offset: 0x4AE92, size: 0x8, addend: 0x0, symName: '__ZNSt3__110__function12__alloc_funcIZZ9test_fontRN3xpf9IRendererEENK3$_0clES4_EUlvE0_NS_9allocatorIS6_EEFNS2_11RenderBatchEvEEclB8ue170006Ev', symObjAddr: 0xE900, symBinAddr: 0x100012D48, symSize: 0x34 }
  - { offsetInCU: 0x4AEB8, offset: 0x4AEB8, size: 0x8, addend: 0x0, symName: '__ZNSt3__128__invoke_void_return_wrapperIN3xpf11RenderBatchELb0EE6__callB8ue170006IJRZZ9test_fontRNS1_9IRendererEENK3$_0clES6_EUlvE0_EEES2_DpOT_', symObjAddr: 0xE934, symBinAddr: 0x100012D7C, symSize: 0x2C }
  - { offsetInCU: 0x4AEE8, offset: 0x4AEE8, size: 0x8, addend: 0x0, symName: '__ZNSt3__117__compressed_pairIZZ9test_fontRN3xpf9IRendererEENK3$_0clES3_EUlvE0_NS_9allocatorIS5_EEE5firstB8ue170006Ev', symObjAddr: 0xE960, symBinAddr: 0x100012DA8, symSize: 0x24 }
  - { offsetInCU: 0x4AF14, offset: 0x4AF14, size: 0x8, addend: 0x0, symName: '__ZZZ9test_fontRN3xpf9IRendererEENK3$_0clES1_ENKUlvE0_clEv', symObjAddr: 0xE9B0, symBinAddr: 0x100012DF8, symSize: 0xE4 }
  - { offsetInCU: 0x4AF4F, offset: 0x4AF4F, size: 0x8, addend: 0x0, symName: __ZL29HorizontalRayIntersectionTestRN3xpf18RenderBatchBuilderENS_4v2_tES2_f, symObjAddr: 0xEA94, symBinAddr: 0x100012EDC, symSize: 0xC0 }
  - { offsetInCU: 0x4AFB0, offset: 0x4AFB0, size: 0x8, addend: 0x0, symName: '__ZNSt3__122__compressed_pair_elemIZZ9test_fontRN3xpf9IRendererEENK3$_0clES3_EUlvE0_Li0ELb0EE5__getB8ue170006Ev', symObjAddr: 0xEBB8, symBinAddr: 0x100013000, symSize: 0x14 }
  - { offsetInCU: 0x4AFD6, offset: 0x4AFD6, size: 0x8, addend: 0x0, symName: '__ZNSt3__110unique_ptrINS_10__function6__baseIFN3xpf11RenderBatchEvEEENS_22__allocator_destructorINS_9allocatorINS1_6__funcIZZ9test_fontRNS3_9IRendererEENK3$_0clESB_EUlvE0_NS8_ISD_EES5_EEEEEEED2B8ue170006Ev', symObjAddr: 0xEBCC, symBinAddr: 0x100013014, symSize: 0x30 }
  - { offsetInCU: 0x4B000, offset: 0x4B000, size: 0x8, addend: 0x0, symName: '__ZNSt3__110unique_ptrINS_10__function6__baseIFN3xpf11RenderBatchEvEEENS_22__allocator_destructorINS_9allocatorINS1_6__funcIZZ9test_fontRNS3_9IRendererEENK3$_0clESB_EUlvE0_NS8_ISD_EES5_EEEEEEE5resetB8ue170006EPSF_', symObjAddr: 0xEBFC, symBinAddr: 0x100013044, symSize: 0x78 }
  - { offsetInCU: 0x4B046, offset: 0x4B046, size: 0x8, addend: 0x0, symName: __ZN3xpf6random10random_255Ev, symObjAddr: 0xEC74, symBinAddr: 0x1000130BC, symSize: 0x24 }
  - { offsetInCU: 0x4B05A, offset: 0x4B05A, size: 0x8, addend: 0x0, symName: __ZN3xpf5ColorC1Ehhhh, symObjAddr: 0xEC98, symBinAddr: 0x1000130E0, symSize: 0x4C }
  - { offsetInCU: 0x4B0BC, offset: 0x4B0BC, size: 0x8, addend: 0x0, symName: __ZNSt3__124uniform_int_distributionIjEclB8ue170006INS_23mersenne_twister_engineIjLm32ELm624ELm397ELm31ELj2567483615ELm11ELj4294967295ELm7ELj2636928640ELm15ELj4022730752ELm18ELj1812433253EEEEEjRT_, symObjAddr: 0xECE4, symBinAddr: 0x10001312C, symSize: 0x30 }
  - { offsetInCU: 0x4B0F9, offset: 0x4B0F9, size: 0x8, addend: 0x0, symName: __ZNKSt3__124uniform_int_distributionIjE10param_type1bB8ue170006Ev, symObjAddr: 0xEE9C, symBinAddr: 0x1000132E4, symSize: 0x18 }
  - { offsetInCU: 0x4B11F, offset: 0x4B11F, size: 0x8, addend: 0x0, symName: __ZNKSt3__124uniform_int_distributionIjE10param_type1aB8ue170006Ev, symObjAddr: 0xEEB4, symBinAddr: 0x1000132FC, symSize: 0x18 }
  - { offsetInCU: 0x4B145, offset: 0x4B145, size: 0x8, addend: 0x0, symName: __ZNSt3__125__independent_bits_engineINS_23mersenne_twister_engineIjLm32ELm624ELm397ELm31ELj2567483615ELm11ELj4294967295ELm7ELj2636928640ELm15ELj4022730752ELm18ELj1812433253EEEjEC1ERS2_m, symObjAddr: 0xEECC, symBinAddr: 0x100013314, symSize: 0x3C }
  - { offsetInCU: 0x4B18C, offset: 0x4B18C, size: 0x8, addend: 0x0, symName: __ZNSt3__125__independent_bits_engineINS_23mersenne_twister_engineIjLm32ELm624ELm397ELm31ELj2567483615ELm11ELj4294967295ELm7ELj2636928640ELm15ELj4022730752ELm18ELj1812433253EEEjEclB8ue170006Ev, symObjAddr: 0xEF08, symBinAddr: 0x100013350, symSize: 0x24 }
  - { offsetInCU: 0x4B1B2, offset: 0x4B1B2, size: 0x8, addend: 0x0, symName: __ZNSt3__114numeric_limitsIjE3maxB8ue170006Ev, symObjAddr: 0xEF80, symBinAddr: 0x1000133C8, symSize: 0x14 }
  - { offsetInCU: 0x4B1C6, offset: 0x4B1C6, size: 0x8, addend: 0x0, symName: __ZNSt3__125__independent_bits_engineINS_23mersenne_twister_engineIjLm32ELm624ELm397ELm31ELj2567483615ELm11ELj4294967295ELm7ELj2636928640ELm15ELj4022730752ELm18ELj1812433253EEEjEC2ERS2_m, symObjAddr: 0xEF94, symBinAddr: 0x1000133DC, symSize: 0x22C }
  - { offsetInCU: 0x4B20D, offset: 0x4B20D, size: 0x8, addend: 0x0, symName: __ZNSt3__125__independent_bits_engineINS_23mersenne_twister_engineIjLm32ELm624ELm397ELm31ELj2567483615ELm11ELj4294967295ELm7ELj2636928640ELm15ELj4022730752ELm18ELj1812433253EEEjE6__evalENS_17integral_constantIbLb0EEE, symObjAddr: 0xF1C0, symBinAddr: 0x100013608, symSize: 0x38 }
  - { offsetInCU: 0x4B23E, offset: 0x4B23E, size: 0x8, addend: 0x0, symName: __ZNSt3__123mersenne_twister_engineIjLm32ELm624ELm397ELm31ELj2567483615ELm11ELj4294967295ELm7ELj2636928640ELm15ELj4022730752ELm18ELj1812433253EEclEv, symObjAddr: 0xF1F8, symBinAddr: 0x100013640, symSize: 0x14C }
  - { offsetInCU: 0x4B2B6, offset: 0x4B2B6, size: 0x8, addend: 0x0, symName: __ZNSt3__123mersenne_twister_engineIjLm32ELm624ELm397ELm31ELj2567483615ELm11ELj4294967295ELm7ELj2636928640ELm15ELj4022730752ELm18ELj1812433253EE8__rshiftB8ue170006ILm1EEENS_9enable_ifIXltT_L_ZNS1_3_DtEEEjE4typeEj, symObjAddr: 0xF344, symBinAddr: 0x10001378C, symSize: 0x18 }
  - { offsetInCU: 0x4B2E3, offset: 0x4B2E3, size: 0x8, addend: 0x0, symName: __ZNSt3__123mersenne_twister_engineIjLm32ELm624ELm397ELm31ELj2567483615ELm11ELj4294967295ELm7ELj2636928640ELm15ELj4022730752ELm18ELj1812433253EE8__rshiftB8ue170006ILm11EEENS_9enable_ifIXltT_L_ZNS1_3_DtEEEjE4typeEj, symObjAddr: 0xF35C, symBinAddr: 0x1000137A4, symSize: 0x18 }
  - { offsetInCU: 0x4B310, offset: 0x4B310, size: 0x8, addend: 0x0, symName: __ZNSt3__123mersenne_twister_engineIjLm32ELm624ELm397ELm31ELj2567483615ELm11ELj4294967295ELm7ELj2636928640ELm15ELj4022730752ELm18ELj1812433253EE8__lshiftB8ue170006ILm7EEENS_9enable_ifIXltT_Lm32EEjE4typeEj, symObjAddr: 0xF374, symBinAddr: 0x1000137BC, symSize: 0x1C }
  - { offsetInCU: 0x4B33D, offset: 0x4B33D, size: 0x8, addend: 0x0, symName: __ZNSt3__123mersenne_twister_engineIjLm32ELm624ELm397ELm31ELj2567483615ELm11ELj4294967295ELm7ELj2636928640ELm15ELj4022730752ELm18ELj1812433253EE8__lshiftB8ue170006ILm15EEENS_9enable_ifIXltT_Lm32EEjE4typeEj, symObjAddr: 0xF390, symBinAddr: 0x1000137D8, symSize: 0x1C }
  - { offsetInCU: 0x4B36A, offset: 0x4B36A, size: 0x8, addend: 0x0, symName: __ZNSt3__123mersenne_twister_engineIjLm32ELm624ELm397ELm31ELj2567483615ELm11ELj4294967295ELm7ELj2636928640ELm15ELj4022730752ELm18ELj1812433253EE8__rshiftB8ue170006ILm18EEENS_9enable_ifIXltT_L_ZNS1_3_DtEEEjE4typeEj, symObjAddr: 0xF3AC, symBinAddr: 0x1000137F4, symSize: 0x18 }
  - { offsetInCU: 0x4B397, offset: 0x4B397, size: 0x8, addend: 0x0, symName: __ZNSt3__123__libcpp_numeric_limitsIjLb1EE3maxB8ue170006Ev, symObjAddr: 0xF3DC, symBinAddr: 0x100013824, symSize: 0x8 }
  - { offsetInCU: 0x4B3AB, offset: 0x4B3AB, size: 0x8, addend: 0x0, symName: __ZN3xpf5ColorC2Ehhhh, symObjAddr: 0xF3E4, symBinAddr: 0x10001382C, symSize: 0x44 }
  - { offsetInCU: 0x4B40D, offset: 0x4B40D, size: 0x8, addend: 0x0, symName: '__ZNSt3__18functionIFN3xpf11RenderBatchEvEEC2IZZ9test_fontRNS1_9IRendererEENK3$_0clES7_EUlvE1_vEET_', symObjAddr: 0xF428, symBinAddr: 0x100013870, symSize: 0x34 }
  - { offsetInCU: 0x4B454, offset: 0x4B454, size: 0x8, addend: 0x0, symName: '__ZNSt3__110__function12__value_funcIFN3xpf11RenderBatchEvEEC1B8ue170006IZZ9test_fontRNS2_9IRendererEENK3$_0clES8_EUlvE1_vEEOT_', symObjAddr: 0xF45C, symBinAddr: 0x1000138A4, symSize: 0x50 }
  - { offsetInCU: 0x4B498, offset: 0x4B498, size: 0x8, addend: 0x0, symName: '__ZNSt3__19allocatorIZZ9test_fontRN3xpf9IRendererEENK3$_0clES3_EUlvE1_EC1B8ue170006Ev', symObjAddr: 0xF4AC, symBinAddr: 0x1000138F4, symSize: 0x2C }
  - { offsetInCU: 0x4B4C2, offset: 0x4B4C2, size: 0x8, addend: 0x0, symName: '__ZNSt3__110__function12__value_funcIFN3xpf11RenderBatchEvEEC1B8ue170006IZZ9test_fontRNS2_9IRendererEENK3$_0clES8_EUlvE1_NS_9allocatorISA_EEEEOT_RKT0_', symObjAddr: 0xF4D8, symBinAddr: 0x100013920, symSize: 0x3C }
  - { offsetInCU: 0x4B51E, offset: 0x4B51E, size: 0x8, addend: 0x0, symName: '__ZNSt3__19allocatorIZZ9test_fontRN3xpf9IRendererEENK3$_0clES3_EUlvE1_EC2B8ue170006Ev', symObjAddr: 0xF514, symBinAddr: 0x10001395C, symSize: 0x2C }
  - { offsetInCU: 0x4B548, offset: 0x4B548, size: 0x8, addend: 0x0, symName: '__ZNSt3__116__non_trivial_ifILb1ENS_9allocatorIZZ9test_fontRN3xpf9IRendererEENK3$_0clES4_EUlvE1_EEEC2B8ue170006Ev', symObjAddr: 0xF540, symBinAddr: 0x100013988, symSize: 0x14 }
  - { offsetInCU: 0x4B572, offset: 0x4B572, size: 0x8, addend: 0x0, symName: '__ZNSt3__110__function12__value_funcIFN3xpf11RenderBatchEvEEC2B8ue170006IZZ9test_fontRNS2_9IRendererEENK3$_0clES8_EUlvE1_NS_9allocatorISA_EEEEOT_RKT0_', symObjAddr: 0xF554, symBinAddr: 0x10001399C, symSize: 0xF4 }
  - { offsetInCU: 0x4B614, offset: 0x4B614, size: 0x8, addend: 0x0, symName: '__ZNSt3__19allocatorINS_10__function6__funcIZZ9test_fontRN3xpf9IRendererEENK3$_0clES5_EUlvE1_NS0_IS7_EEFNS3_11RenderBatchEvEEEEC1B8ue170006IS7_EERKNS0_IT_EE', symObjAddr: 0xF660, symBinAddr: 0x100013AA8, symSize: 0x34 }
  - { offsetInCU: 0x4B651, offset: 0x4B651, size: 0x8, addend: 0x0, symName: '__ZNSt3__19allocatorINS_10__function6__funcIZZ9test_fontRN3xpf9IRendererEENK3$_0clES5_EUlvE1_NS0_IS7_EEFNS3_11RenderBatchEvEEEE8allocateB8ue170006Em', symObjAddr: 0xF694, symBinAddr: 0x100013ADC, symSize: 0x5C }
  - { offsetInCU: 0x4B697, offset: 0x4B697, size: 0x8, addend: 0x0, symName: '__ZNSt3__122__allocator_destructorINS_9allocatorINS_10__function6__funcIZZ9test_fontRN3xpf9IRendererEENK3$_0clES6_EUlvE1_NS1_IS8_EEFNS4_11RenderBatchEvEEEEEEC1B8ue170006ERSD_m', symObjAddr: 0xF6F0, symBinAddr: 0x100013B38, symSize: 0x3C }
  - { offsetInCU: 0x4B77E, offset: 0x4B77E, size: 0x8, addend: 0x0, symName: '__ZNSt3__110unique_ptrINS_10__function6__baseIFN3xpf11RenderBatchEvEEENS_22__allocator_destructorINS_9allocatorINS1_6__funcIZZ9test_fontRNS3_9IRendererEENK3$_0clESB_EUlvE1_NS8_ISD_EES5_EEEEEEEC1B8ue170006ILb1EvEEPSF_NS_16__dependent_typeINS_27__unique_ptr_deleter_sfinaeISH_EEXT_EE20__good_rval_ref_typeE', symObjAddr: 0xF72C, symBinAddr: 0x100013B74, symSize: 0x3C }
  - { offsetInCU: 0x4B7CF, offset: 0x4B7CF, size: 0x8, addend: 0x0, symName: '__ZNKSt3__110unique_ptrINS_10__function6__baseIFN3xpf11RenderBatchEvEEENS_22__allocator_destructorINS_9allocatorINS1_6__funcIZZ9test_fontRNS3_9IRendererEENK3$_0clESB_EUlvE1_NS8_ISD_EES5_EEEEEEE3getB8ue170006Ev', symObjAddr: 0xF768, symBinAddr: 0x100013BB0, symSize: 0x28 }
  - { offsetInCU: 0x4B7F5, offset: 0x4B7F5, size: 0x8, addend: 0x0, symName: '__ZNSt3__110__function6__funcIZZ9test_fontRN3xpf9IRendererEENK3$_0clES4_EUlvE1_NS_9allocatorIS6_EEFNS2_11RenderBatchEvEEC1B8ue170006EOS6_OS8_', symObjAddr: 0xF790, symBinAddr: 0x100013BD8, symSize: 0x3C }
  - { offsetInCU: 0x4B83F, offset: 0x4B83F, size: 0x8, addend: 0x0, symName: '__ZNSt3__110unique_ptrINS_10__function6__baseIFN3xpf11RenderBatchEvEEENS_22__allocator_destructorINS_9allocatorINS1_6__funcIZZ9test_fontRNS3_9IRendererEENK3$_0clESB_EUlvE1_NS8_ISD_EES5_EEEEEEE7releaseB8ue170006Ev', symObjAddr: 0xF7CC, symBinAddr: 0x100013C14, symSize: 0x44 }
  - { offsetInCU: 0x4B875, offset: 0x4B875, size: 0x8, addend: 0x0, symName: '__ZNSt3__110unique_ptrINS_10__function6__baseIFN3xpf11RenderBatchEvEEENS_22__allocator_destructorINS_9allocatorINS1_6__funcIZZ9test_fontRNS3_9IRendererEENK3$_0clESB_EUlvE1_NS8_ISD_EES5_EEEEEEED1B8ue170006Ev', symObjAddr: 0xF810, symBinAddr: 0x100013C58, symSize: 0x2C }
  - { offsetInCU: 0x4B89F, offset: 0x4B89F, size: 0x8, addend: 0x0, symName: '__ZNSt3__19allocatorINS_10__function6__funcIZZ9test_fontRN3xpf9IRendererEENK3$_0clES5_EUlvE1_NS0_IS7_EEFNS3_11RenderBatchEvEEEEC2B8ue170006IS7_EERKNS0_IT_EE', symObjAddr: 0xF83C, symBinAddr: 0x100013C84, symSize: 0x30 }
  - { offsetInCU: 0x4B8DC, offset: 0x4B8DC, size: 0x8, addend: 0x0, symName: '__ZNSt3__116__non_trivial_ifILb1ENS_9allocatorINS_10__function6__funcIZZ9test_fontRN3xpf9IRendererEENK3$_0clES6_EUlvE1_NS1_IS8_EEFNS4_11RenderBatchEvEEEEEEC2B8ue170006Ev', symObjAddr: 0xF86C, symBinAddr: 0x100013CB4, symSize: 0x14 }
  - { offsetInCU: 0x4B911, offset: 0x4B911, size: 0x8, addend: 0x0, symName: '__ZNSt3__116allocator_traitsINS_9allocatorINS_10__function6__funcIZZ9test_fontRN3xpf9IRendererEENK3$_0clES6_EUlvE1_NS1_IS8_EEFNS4_11RenderBatchEvEEEEEE8max_sizeB8ue170006ISD_vvEEmRKSD_', symObjAddr: 0xF880, symBinAddr: 0x100013CC8, symSize: 0x28 }
  - { offsetInCU: 0x4B93D, offset: 0x4B93D, size: 0x8, addend: 0x0, symName: '__ZNSt3__122__allocator_destructorINS_9allocatorINS_10__function6__funcIZZ9test_fontRN3xpf9IRendererEENK3$_0clES6_EUlvE1_NS1_IS8_EEFNS4_11RenderBatchEvEEEEEEC2B8ue170006ERSD_m', symObjAddr: 0xF8A8, symBinAddr: 0x100013CF0, symSize: 0x2C }
  - { offsetInCU: 0x4B983, offset: 0x4B983, size: 0x8, addend: 0x0, symName: '__ZNSt3__110unique_ptrINS_10__function6__baseIFN3xpf11RenderBatchEvEEENS_22__allocator_destructorINS_9allocatorINS1_6__funcIZZ9test_fontRNS3_9IRendererEENK3$_0clESB_EUlvE1_NS8_ISD_EES5_EEEEEEEC2B8ue170006ILb1EvEEPSF_NS_16__dependent_typeINS_27__unique_ptr_deleter_sfinaeISH_EEXT_EE20__good_rval_ref_typeE', symObjAddr: 0xF8D4, symBinAddr: 0x100013D1C, symSize: 0x48 }
  - { offsetInCU: 0x4B9D4, offset: 0x4B9D4, size: 0x8, addend: 0x0, symName: '__ZNSt3__117__compressed_pairIPNS_10__function6__funcIZZ9test_fontRN3xpf9IRendererEENK3$_0clES5_EUlvE1_NS_9allocatorIS7_EEFNS3_11RenderBatchEvEEENS_22__allocator_destructorINS8_ISC_EEEEEC1B8ue170006IRSD_SG_EEOT_OT0_', symObjAddr: 0xF91C, symBinAddr: 0x100013D64, symSize: 0x3C }
  - { offsetInCU: 0x4BA2C, offset: 0x4BA2C, size: 0x8, addend: 0x0, symName: '__ZNSt3__117__compressed_pairIPNS_10__function6__funcIZZ9test_fontRN3xpf9IRendererEENK3$_0clES5_EUlvE1_NS_9allocatorIS7_EEFNS3_11RenderBatchEvEEENS_22__allocator_destructorINS8_ISC_EEEEEC2B8ue170006IRSD_SG_EEOT_OT0_', symObjAddr: 0xF958, symBinAddr: 0x100013DA0, symSize: 0x48 }
  - { offsetInCU: 0x4BA84, offset: 0x4BA84, size: 0x8, addend: 0x0, symName: '__ZNSt3__122__compressed_pair_elemIPNS_10__function6__funcIZZ9test_fontRN3xpf9IRendererEENK3$_0clES5_EUlvE1_NS_9allocatorIS7_EEFNS3_11RenderBatchEvEEELi0ELb0EEC2B8ue170006IRSD_vEEOT_', symObjAddr: 0xF9A0, symBinAddr: 0x100013DE8, symSize: 0x24 }
  - { offsetInCU: 0x4BAC6, offset: 0x4BAC6, size: 0x8, addend: 0x0, symName: '__ZNSt3__122__compressed_pair_elemINS_22__allocator_destructorINS_9allocatorINS_10__function6__funcIZZ9test_fontRN3xpf9IRendererEENK3$_0clES7_EUlvE1_NS2_IS9_EEFNS5_11RenderBatchEvEEEEEEELi1ELb0EEC2B8ue170006ISF_vEEOT_', symObjAddr: 0xF9C4, symBinAddr: 0x100013E0C, symSize: 0x24 }
  - { offsetInCU: 0x4BB08, offset: 0x4BB08, size: 0x8, addend: 0x0, symName: '__ZNKSt3__117__compressed_pairIPNS_10__function6__funcIZZ9test_fontRN3xpf9IRendererEENK3$_0clES5_EUlvE1_NS_9allocatorIS7_EEFNS3_11RenderBatchEvEEENS_22__allocator_destructorINS8_ISC_EEEEE5firstB8ue170006Ev', symObjAddr: 0xF9E8, symBinAddr: 0x100013E30, symSize: 0x24 }
  - { offsetInCU: 0x4BB2E, offset: 0x4BB2E, size: 0x8, addend: 0x0, symName: '__ZNKSt3__122__compressed_pair_elemIPNS_10__function6__funcIZZ9test_fontRN3xpf9IRendererEENK3$_0clES5_EUlvE1_NS_9allocatorIS7_EEFNS3_11RenderBatchEvEEELi0ELb0EE5__getB8ue170006Ev', symObjAddr: 0xFA0C, symBinAddr: 0x100013E54, symSize: 0x14 }
  - { offsetInCU: 0x4BB54, offset: 0x4BB54, size: 0x8, addend: 0x0, symName: '__ZNSt3__110__function6__funcIZZ9test_fontRN3xpf9IRendererEENK3$_0clES4_EUlvE1_NS_9allocatorIS6_EEFNS2_11RenderBatchEvEEC2B8ue170006EOS6_OS8_', symObjAddr: 0xFA20, symBinAddr: 0x100013E68, symSize: 0x88 }
  - { offsetInCU: 0x4BB9E, offset: 0x4BB9E, size: 0x8, addend: 0x0, symName: '__ZNSt3__110__function12__alloc_funcIZZ9test_fontRN3xpf9IRendererEENK3$_0clES4_EUlvE1_NS_9allocatorIS6_EEFNS2_11RenderBatchEvEEC1B8ue170006EOS6_OS8_', symObjAddr: 0xFAA8, symBinAddr: 0x100013EF0, symSize: 0x3C }
  - { offsetInCU: 0x4BBE4, offset: 0x4BBE4, size: 0x8, addend: 0x0, symName: '__ZNSt3__110__function6__funcIZZ9test_fontRN3xpf9IRendererEENK3$_0clES4_EUlvE1_NS_9allocatorIS6_EEFNS2_11RenderBatchEvEED1Ev', symObjAddr: 0xFAE4, symBinAddr: 0x100013F2C, symSize: 0x2C }
  - { offsetInCU: 0x4BC11, offset: 0x4BC11, size: 0x8, addend: 0x0, symName: '__ZNSt3__110__function6__funcIZZ9test_fontRN3xpf9IRendererEENK3$_0clES4_EUlvE1_NS_9allocatorIS6_EEFNS2_11RenderBatchEvEED0Ev', symObjAddr: 0xFB10, symBinAddr: 0x100013F58, symSize: 0x30 }
  - { offsetInCU: 0x4BC3E, offset: 0x4BC3E, size: 0x8, addend: 0x0, symName: '__ZNKSt3__110__function6__funcIZZ9test_fontRN3xpf9IRendererEENK3$_0clES4_EUlvE1_NS_9allocatorIS6_EEFNS2_11RenderBatchEvEE7__cloneEv', symObjAddr: 0xFB40, symBinAddr: 0x100013F88, symSize: 0xFC }
  - { offsetInCU: 0x4BC92, offset: 0x4BC92, size: 0x8, addend: 0x0, symName: '__ZNKSt3__110__function6__funcIZZ9test_fontRN3xpf9IRendererEENK3$_0clES4_EUlvE1_NS_9allocatorIS6_EEFNS2_11RenderBatchEvEE7__cloneEPNS0_6__baseISA_EE', symObjAddr: 0xFC3C, symBinAddr: 0x100014084, symSize: 0x58 }
  - { offsetInCU: 0x4BCCA, offset: 0x4BCCA, size: 0x8, addend: 0x0, symName: '__ZNSt3__110__function6__funcIZZ9test_fontRN3xpf9IRendererEENK3$_0clES4_EUlvE1_NS_9allocatorIS6_EEFNS2_11RenderBatchEvEE7destroyEv', symObjAddr: 0xFC94, symBinAddr: 0x1000140DC, symSize: 0x28 }
  - { offsetInCU: 0x4BCF2, offset: 0x4BCF2, size: 0x8, addend: 0x0, symName: '__ZNSt3__110__function6__funcIZZ9test_fontRN3xpf9IRendererEENK3$_0clES4_EUlvE1_NS_9allocatorIS6_EEFNS2_11RenderBatchEvEE18destroy_deallocateEv', symObjAddr: 0xFCBC, symBinAddr: 0x100014104, symSize: 0x58 }
  - { offsetInCU: 0x4BD36, offset: 0x4BD36, size: 0x8, addend: 0x0, symName: '__ZNSt3__110__function6__funcIZZ9test_fontRN3xpf9IRendererEENK3$_0clES4_EUlvE1_NS_9allocatorIS6_EEFNS2_11RenderBatchEvEEclEv', symObjAddr: 0xFD14, symBinAddr: 0x10001415C, symSize: 0x30 }
  - { offsetInCU: 0x4BD5E, offset: 0x4BD5E, size: 0x8, addend: 0x0, symName: '__ZNKSt3__110__function6__funcIZZ9test_fontRN3xpf9IRendererEENK3$_0clES4_EUlvE1_NS_9allocatorIS6_EEFNS2_11RenderBatchEvEE6targetERKSt9type_info', symObjAddr: 0xFD44, symBinAddr: 0x10001418C, symSize: 0x60 }
  - { offsetInCU: 0x4BD96, offset: 0x4BD96, size: 0x8, addend: 0x0, symName: '__ZNKSt3__110__function6__funcIZZ9test_fontRN3xpf9IRendererEENK3$_0clES4_EUlvE1_NS_9allocatorIS6_EEFNS2_11RenderBatchEvEE11target_typeEv', symObjAddr: 0xFDA4, symBinAddr: 0x1000141EC, symSize: 0x18 }
  - { offsetInCU: 0x4BDBE, offset: 0x4BDBE, size: 0x8, addend: 0x0, symName: '__ZNSt3__110__function12__alloc_funcIZZ9test_fontRN3xpf9IRendererEENK3$_0clES4_EUlvE1_NS_9allocatorIS6_EEFNS2_11RenderBatchEvEEC2B8ue170006EOS6_OS8_', symObjAddr: 0xFDBC, symBinAddr: 0x100014204, symSize: 0x5C }
  - { offsetInCU: 0x4BE04, offset: 0x4BE04, size: 0x8, addend: 0x0, symName: '__ZNSt3__117__compressed_pairIZZ9test_fontRN3xpf9IRendererEENK3$_0clES3_EUlvE1_NS_9allocatorIS5_EEEC1B8ue170006IJOS5_EJOS7_EEENS_21piecewise_construct_tENS_5tupleIJDpT_EEENSD_IJDpT0_EEE', symObjAddr: 0xFE70, symBinAddr: 0x1000142B8, symSize: 0x3C }
  - { offsetInCU: 0x4BE6E, offset: 0x4BE6E, size: 0x8, addend: 0x0, symName: '__ZNSt3__15tupleIJOZZ9test_fontRN3xpf9IRendererEENK3$_0clES3_EUlvE1_EEC1B8ue170006IJS5_ELi0EEEDpOT_', symObjAddr: 0xFEAC, symBinAddr: 0x1000142F4, symSize: 0x34 }
  - { offsetInCU: 0x4BEB9, offset: 0x4BEB9, size: 0x8, addend: 0x0, symName: '__ZNSt3__15tupleIJOZZ9test_fontRN3xpf9IRendererEENK3$_0clES3_EUlvE1_EEC2B8ue170006IJS5_ELi0EEEDpOT_', symObjAddr: 0xFEE0, symBinAddr: 0x100014328, symSize: 0x34 }
  - { offsetInCU: 0x4BF04, offset: 0x4BF04, size: 0x8, addend: 0x0, symName: '__ZNSt3__112__tuple_implINS_15__tuple_indicesIJLm0EEEEJOZZ9test_fontRN3xpf9IRendererEENK3$_0clES5_EUlvE1_EEC1B8ue170006IJLm0EEJS8_EJEJEJS7_EEENS1_IJXspT_EEEENS_13__tuple_typesIJDpT0_EEENS1_IJXspT1_EEEENSC_IJDpT2_EEEDpOT3_', symObjAddr: 0xFF14, symBinAddr: 0x10001435C, symSize: 0x34 }
  - { offsetInCU: 0x4BF9C, offset: 0x4BF9C, size: 0x8, addend: 0x0, symName: '__ZNSt3__112__tuple_implINS_15__tuple_indicesIJLm0EEEEJOZZ9test_fontRN3xpf9IRendererEENK3$_0clES5_EUlvE1_EEC2B8ue170006IJLm0EEJS8_EJEJEJS7_EEENS1_IJXspT_EEEENS_13__tuple_typesIJDpT0_EEENS1_IJXspT1_EEEENSC_IJDpT2_EEEDpOT3_', symObjAddr: 0xFF48, symBinAddr: 0x100014390, symSize: 0x34 }
  - { offsetInCU: 0x4C034, offset: 0x4C034, size: 0x8, addend: 0x0, symName: '__ZNSt3__112__tuple_leafILm0EOZZ9test_fontRN3xpf9IRendererEENK3$_0clES3_EUlvE1_Lb0EEC2B8ue170006IS5_vEEOT_', symObjAddr: 0xFF7C, symBinAddr: 0x1000143C4, symSize: 0x20 }
  - { offsetInCU: 0x4C078, offset: 0x4C078, size: 0x8, addend: 0x0, symName: '__ZNSt3__15tupleIJONS_9allocatorIZZ9test_fontRN3xpf9IRendererEENK3$_0clES4_EUlvE1_EEEEC1B8ue170006IJS7_ELi0EEEDpOT_', symObjAddr: 0xFF9C, symBinAddr: 0x1000143E4, symSize: 0x34 }
  - { offsetInCU: 0x4C0C3, offset: 0x4C0C3, size: 0x8, addend: 0x0, symName: '__ZNSt3__15tupleIJONS_9allocatorIZZ9test_fontRN3xpf9IRendererEENK3$_0clES4_EUlvE1_EEEEC2B8ue170006IJS7_ELi0EEEDpOT_', symObjAddr: 0xFFD0, symBinAddr: 0x100014418, symSize: 0x34 }
  - { offsetInCU: 0x4C10E, offset: 0x4C10E, size: 0x8, addend: 0x0, symName: '__ZNSt3__112__tuple_implINS_15__tuple_indicesIJLm0EEEEJONS_9allocatorIZZ9test_fontRN3xpf9IRendererEENK3$_0clES6_EUlvE1_EEEEC1B8ue170006IJLm0EEJSA_EJEJEJS9_EEENS1_IJXspT_EEEENS_13__tuple_typesIJDpT0_EEENS1_IJXspT1_EEEENSE_IJDpT2_EEEDpOT3_', symObjAddr: 0x10004, symBinAddr: 0x10001444C, symSize: 0x34 }
  - { offsetInCU: 0x4C1A6, offset: 0x4C1A6, size: 0x8, addend: 0x0, symName: '__ZNSt3__112__tuple_implINS_15__tuple_indicesIJLm0EEEEJONS_9allocatorIZZ9test_fontRN3xpf9IRendererEENK3$_0clES6_EUlvE1_EEEEC2B8ue170006IJLm0EEJSA_EJEJEJS9_EEENS1_IJXspT_EEEENS_13__tuple_typesIJDpT0_EEENS1_IJXspT1_EEEENSE_IJDpT2_EEEDpOT3_', symObjAddr: 0x10038, symBinAddr: 0x100014480, symSize: 0x34 }
  - { offsetInCU: 0x4C23E, offset: 0x4C23E, size: 0x8, addend: 0x0, symName: '__ZNSt3__112__tuple_leafILm0EONS_9allocatorIZZ9test_fontRN3xpf9IRendererEENK3$_0clES4_EUlvE1_EELb0EEC2B8ue170006IS7_vEEOT_', symObjAddr: 0x1006C, symBinAddr: 0x1000144B4, symSize: 0x20 }
  - { offsetInCU: 0x4C282, offset: 0x4C282, size: 0x8, addend: 0x0, symName: '__ZNSt3__117__compressed_pairIZZ9test_fontRN3xpf9IRendererEENK3$_0clES3_EUlvE1_NS_9allocatorIS5_EEEC2B8ue170006IJOS5_EJOS7_EEENS_21piecewise_construct_tENS_5tupleIJDpT_EEENSD_IJDpT0_EEE', symObjAddr: 0x1008C, symBinAddr: 0x1000144D4, symSize: 0x54 }
  - { offsetInCU: 0x4C2EC, offset: 0x4C2EC, size: 0x8, addend: 0x0, symName: '__ZNSt3__122__compressed_pair_elemIZZ9test_fontRN3xpf9IRendererEENK3$_0clES3_EUlvE1_Li0ELb0EEC2B8ue170006IJOS5_EJLm0EEEENS_21piecewise_construct_tENS_5tupleIJDpT_EEENS_15__tuple_indicesIJXspT0_EEEE', symObjAddr: 0x100E0, symBinAddr: 0x100014528, symSize: 0x4C }
  - { offsetInCU: 0x4C34F, offset: 0x4C34F, size: 0x8, addend: 0x0, symName: '__ZNSt3__122__compressed_pair_elemINS_9allocatorIZZ9test_fontRN3xpf9IRendererEENK3$_0clES4_EUlvE1_EELi1ELb1EEC2B8ue170006IJOS7_EJLm0EEEENS_21piecewise_construct_tENS_5tupleIJDpT_EEENS_15__tuple_indicesIJXspT0_EEEE', symObjAddr: 0x1012C, symBinAddr: 0x100014574, symSize: 0x38 }
  - { offsetInCU: 0x4C3B2, offset: 0x4C3B2, size: 0x8, addend: 0x0, symName: '__ZNSt3__112__tuple_leafILm0EOZZ9test_fontRN3xpf9IRendererEENK3$_0clES3_EUlvE1_Lb0EE3getB8ue170006Ev', symObjAddr: 0x10188, symBinAddr: 0x1000145D0, symSize: 0x18 }
  - { offsetInCU: 0x4C3D8, offset: 0x4C3D8, size: 0x8, addend: 0x0, symName: '__ZNSt3__112__tuple_leafILm0EONS_9allocatorIZZ9test_fontRN3xpf9IRendererEENK3$_0clES4_EUlvE1_EELb0EE3getB8ue170006Ev', symObjAddr: 0x101C4, symBinAddr: 0x10001460C, symSize: 0x18 }
  - { offsetInCU: 0x4C3FE, offset: 0x4C3FE, size: 0x8, addend: 0x0, symName: '__ZNSt3__110__function6__funcIZZ9test_fontRN3xpf9IRendererEENK3$_0clES4_EUlvE1_NS_9allocatorIS6_EEFNS2_11RenderBatchEvEED2Ev', symObjAddr: 0x101DC, symBinAddr: 0x100014624, symSize: 0x2C }
  - { offsetInCU: 0x4C42B, offset: 0x4C42B, size: 0x8, addend: 0x0, symName: '__ZNKSt3__110__function12__alloc_funcIZZ9test_fontRN3xpf9IRendererEENK3$_0clES4_EUlvE1_NS_9allocatorIS6_EEFNS2_11RenderBatchEvEE15__get_allocatorB8ue170006Ev', symObjAddr: 0x10208, symBinAddr: 0x100014650, symSize: 0x24 }
  - { offsetInCU: 0x4C485, offset: 0x4C485, size: 0x8, addend: 0x0, symName: '__ZNSt3__110unique_ptrINS_10__function6__funcIZZ9test_fontRN3xpf9IRendererEENK3$_0clES5_EUlvE1_NS_9allocatorIS7_EEFNS3_11RenderBatchEvEEENS_22__allocator_destructorINS8_ISC_EEEEEC1B8ue170006ILb1EvEEPSC_NS_16__dependent_typeINS_27__unique_ptr_deleter_sfinaeISF_EEXT_EE20__good_rval_ref_typeE', symObjAddr: 0x1022C, symBinAddr: 0x100014674, symSize: 0x3C }
  - { offsetInCU: 0x4C4D6, offset: 0x4C4D6, size: 0x8, addend: 0x0, symName: '__ZNKSt3__110unique_ptrINS_10__function6__funcIZZ9test_fontRN3xpf9IRendererEENK3$_0clES5_EUlvE1_NS_9allocatorIS7_EEFNS3_11RenderBatchEvEEENS_22__allocator_destructorINS8_ISC_EEEEE3getB8ue170006Ev', symObjAddr: 0x10268, symBinAddr: 0x1000146B0, symSize: 0x28 }
  - { offsetInCU: 0x4C4FC, offset: 0x4C4FC, size: 0x8, addend: 0x0, symName: '__ZNKSt3__110__function12__alloc_funcIZZ9test_fontRN3xpf9IRendererEENK3$_0clES4_EUlvE1_NS_9allocatorIS6_EEFNS2_11RenderBatchEvEE8__targetB8ue170006Ev', symObjAddr: 0x10290, symBinAddr: 0x1000146D8, symSize: 0x24 }
  - { offsetInCU: 0x4C52D, offset: 0x4C52D, size: 0x8, addend: 0x0, symName: '__ZNSt3__19allocatorIZZ9test_fontRN3xpf9IRendererEENK3$_0clES3_EUlvE1_EC1B8ue170006INS_10__function6__funcIS5_S6_FNS1_11RenderBatchEvEEEEERKNS0_IT_EE', symObjAddr: 0x102B4, symBinAddr: 0x1000146FC, symSize: 0x34 }
  - { offsetInCU: 0x4C56A, offset: 0x4C56A, size: 0x8, addend: 0x0, symName: '__ZNSt3__110__function6__funcIZZ9test_fontRN3xpf9IRendererEENK3$_0clES4_EUlvE1_NS_9allocatorIS6_EEFNS2_11RenderBatchEvEEC1B8ue170006ERKS6_OS8_', symObjAddr: 0x102E8, symBinAddr: 0x100014730, symSize: 0x3C }
  - { offsetInCU: 0x4C5B4, offset: 0x4C5B4, size: 0x8, addend: 0x0, symName: '__ZNSt3__110unique_ptrINS_10__function6__funcIZZ9test_fontRN3xpf9IRendererEENK3$_0clES5_EUlvE1_NS_9allocatorIS7_EEFNS3_11RenderBatchEvEEENS_22__allocator_destructorINS8_ISC_EEEEE7releaseB8ue170006Ev', symObjAddr: 0x10324, symBinAddr: 0x10001476C, symSize: 0x44 }
  - { offsetInCU: 0x4C5EA, offset: 0x4C5EA, size: 0x8, addend: 0x0, symName: '__ZNSt3__110unique_ptrINS_10__function6__funcIZZ9test_fontRN3xpf9IRendererEENK3$_0clES5_EUlvE1_NS_9allocatorIS7_EEFNS3_11RenderBatchEvEEENS_22__allocator_destructorINS8_ISC_EEEEED1B8ue170006Ev', symObjAddr: 0x10368, symBinAddr: 0x1000147B0, symSize: 0x2C }
  - { offsetInCU: 0x4C614, offset: 0x4C614, size: 0x8, addend: 0x0, symName: '__ZNKSt3__117__compressed_pairIZZ9test_fontRN3xpf9IRendererEENK3$_0clES3_EUlvE1_NS_9allocatorIS5_EEE6secondB8ue170006Ev', symObjAddr: 0x10394, symBinAddr: 0x1000147DC, symSize: 0x24 }
  - { offsetInCU: 0x4C63A, offset: 0x4C63A, size: 0x8, addend: 0x0, symName: '__ZNKSt3__122__compressed_pair_elemINS_9allocatorIZZ9test_fontRN3xpf9IRendererEENK3$_0clES4_EUlvE1_EELi1ELb1EE5__getB8ue170006Ev', symObjAddr: 0x103B8, symBinAddr: 0x100014800, symSize: 0x14 }
  - { offsetInCU: 0x4C660, offset: 0x4C660, size: 0x8, addend: 0x0, symName: '__ZNSt3__110unique_ptrINS_10__function6__funcIZZ9test_fontRN3xpf9IRendererEENK3$_0clES5_EUlvE1_NS_9allocatorIS7_EEFNS3_11RenderBatchEvEEENS_22__allocator_destructorINS8_ISC_EEEEEC2B8ue170006ILb1EvEEPSC_NS_16__dependent_typeINS_27__unique_ptr_deleter_sfinaeISF_EEXT_EE20__good_rval_ref_typeE', symObjAddr: 0x103CC, symBinAddr: 0x100014814, symSize: 0x48 }
  - { offsetInCU: 0x4C6B1, offset: 0x4C6B1, size: 0x8, addend: 0x0, symName: '__ZNKSt3__117__compressed_pairIZZ9test_fontRN3xpf9IRendererEENK3$_0clES3_EUlvE1_NS_9allocatorIS5_EEE5firstB8ue170006Ev', symObjAddr: 0x10414, symBinAddr: 0x10001485C, symSize: 0x24 }
  - { offsetInCU: 0x4C6D7, offset: 0x4C6D7, size: 0x8, addend: 0x0, symName: '__ZNKSt3__122__compressed_pair_elemIZZ9test_fontRN3xpf9IRendererEENK3$_0clES3_EUlvE1_Li0ELb0EE5__getB8ue170006Ev', symObjAddr: 0x10438, symBinAddr: 0x100014880, symSize: 0x14 }
  - { offsetInCU: 0x4C6FD, offset: 0x4C6FD, size: 0x8, addend: 0x0, symName: '__ZNSt3__19allocatorIZZ9test_fontRN3xpf9IRendererEENK3$_0clES3_EUlvE1_EC2B8ue170006INS_10__function6__funcIS5_S6_FNS1_11RenderBatchEvEEEEERKNS0_IT_EE', symObjAddr: 0x1044C, symBinAddr: 0x100014894, symSize: 0x30 }
  - { offsetInCU: 0x4C73A, offset: 0x4C73A, size: 0x8, addend: 0x0, symName: '__ZNSt3__110__function6__funcIZZ9test_fontRN3xpf9IRendererEENK3$_0clES4_EUlvE1_NS_9allocatorIS6_EEFNS2_11RenderBatchEvEEC2B8ue170006ERKS6_OS8_', symObjAddr: 0x1047C, symBinAddr: 0x1000148C4, symSize: 0x88 }
  - { offsetInCU: 0x4C784, offset: 0x4C784, size: 0x8, addend: 0x0, symName: '__ZNSt3__110__function12__alloc_funcIZZ9test_fontRN3xpf9IRendererEENK3$_0clES4_EUlvE1_NS_9allocatorIS6_EEFNS2_11RenderBatchEvEEC1B8ue170006ERKS6_OS8_', symObjAddr: 0x10504, symBinAddr: 0x10001494C, symSize: 0x3C }
  - { offsetInCU: 0x4C7CA, offset: 0x4C7CA, size: 0x8, addend: 0x0, symName: '__ZNSt3__110__function12__alloc_funcIZZ9test_fontRN3xpf9IRendererEENK3$_0clES4_EUlvE1_NS_9allocatorIS6_EEFNS2_11RenderBatchEvEEC2B8ue170006ERKS6_OS8_', symObjAddr: 0x10540, symBinAddr: 0x100014988, symSize: 0x5C }
  - { offsetInCU: 0x4C810, offset: 0x4C810, size: 0x8, addend: 0x0, symName: '__ZNSt3__117__compressed_pairIZZ9test_fontRN3xpf9IRendererEENK3$_0clES3_EUlvE1_NS_9allocatorIS5_EEEC1B8ue170006IJRKS5_EJOS7_EEENS_21piecewise_construct_tENS_5tupleIJDpT_EEENSE_IJDpT0_EEE', symObjAddr: 0x105C8, symBinAddr: 0x100014A10, symSize: 0x3C }
  - { offsetInCU: 0x4C87A, offset: 0x4C87A, size: 0x8, addend: 0x0, symName: '__ZNSt3__15tupleIJRKZZ9test_fontRN3xpf9IRendererEENK3$_0clES3_EUlvE1_EEC1B8ue170006INS_4_AndELi0EEES7_', symObjAddr: 0x10604, symBinAddr: 0x100014A4C, symSize: 0x34 }
  - { offsetInCU: 0x4C8C3, offset: 0x4C8C3, size: 0x8, addend: 0x0, symName: '__ZNSt3__15tupleIJRKZZ9test_fontRN3xpf9IRendererEENK3$_0clES3_EUlvE1_EEC2B8ue170006INS_4_AndELi0EEES7_', symObjAddr: 0x10638, symBinAddr: 0x100014A80, symSize: 0x34 }
  - { offsetInCU: 0x4C90C, offset: 0x4C90C, size: 0x8, addend: 0x0, symName: '__ZNSt3__112__tuple_implINS_15__tuple_indicesIJLm0EEEEJRKZZ9test_fontRN3xpf9IRendererEENK3$_0clES5_EUlvE1_EEC1B8ue170006IJLm0EEJS9_EJEJEJS9_EEENS1_IJXspT_EEEENS_13__tuple_typesIJDpT0_EEENS1_IJXspT1_EEEENSD_IJDpT2_EEEDpOT3_', symObjAddr: 0x1066C, symBinAddr: 0x100014AB4, symSize: 0x34 }
  - { offsetInCU: 0x4C9A4, offset: 0x4C9A4, size: 0x8, addend: 0x0, symName: '__ZNSt3__112__tuple_implINS_15__tuple_indicesIJLm0EEEEJRKZZ9test_fontRN3xpf9IRendererEENK3$_0clES5_EUlvE1_EEC2B8ue170006IJLm0EEJS9_EJEJEJS9_EEENS1_IJXspT_EEEENS_13__tuple_typesIJDpT0_EEENS1_IJXspT1_EEEENSD_IJDpT2_EEEDpOT3_', symObjAddr: 0x106A0, symBinAddr: 0x100014AE8, symSize: 0x34 }
  - { offsetInCU: 0x4CA3C, offset: 0x4CA3C, size: 0x8, addend: 0x0, symName: '__ZNSt3__112__tuple_leafILm0ERKZZ9test_fontRN3xpf9IRendererEENK3$_0clES3_EUlvE1_Lb0EEC2B8ue170006IS7_vEEOT_', symObjAddr: 0x106D4, symBinAddr: 0x100014B1C, symSize: 0x20 }
  - { offsetInCU: 0x4CA80, offset: 0x4CA80, size: 0x8, addend: 0x0, symName: '__ZNSt3__117__compressed_pairIZZ9test_fontRN3xpf9IRendererEENK3$_0clES3_EUlvE1_NS_9allocatorIS5_EEEC2B8ue170006IJRKS5_EJOS7_EEENS_21piecewise_construct_tENS_5tupleIJDpT_EEENSE_IJDpT0_EEE', symObjAddr: 0x106F4, symBinAddr: 0x100014B3C, symSize: 0x54 }
  - { offsetInCU: 0x4CAEA, offset: 0x4CAEA, size: 0x8, addend: 0x0, symName: '__ZNSt3__122__compressed_pair_elemIZZ9test_fontRN3xpf9IRendererEENK3$_0clES3_EUlvE1_Li0ELb0EEC2B8ue170006IJRKS5_EJLm0EEEENS_21piecewise_construct_tENS_5tupleIJDpT_EEENS_15__tuple_indicesIJXspT0_EEEE', symObjAddr: 0x10748, symBinAddr: 0x100014B90, symSize: 0x4C }
  - { offsetInCU: 0x4CB4D, offset: 0x4CB4D, size: 0x8, addend: 0x0, symName: '__ZNSt3__112__tuple_leafILm0ERKZZ9test_fontRN3xpf9IRendererEENK3$_0clES3_EUlvE1_Lb0EE3getB8ue170006Ev', symObjAddr: 0x107B8, symBinAddr: 0x100014C00, symSize: 0x18 }
  - { offsetInCU: 0x4CB73, offset: 0x4CB73, size: 0x8, addend: 0x0, symName: '__ZNSt3__117__compressed_pairIPNS_10__function6__funcIZZ9test_fontRN3xpf9IRendererEENK3$_0clES5_EUlvE1_NS_9allocatorIS7_EEFNS3_11RenderBatchEvEEENS_22__allocator_destructorINS8_ISC_EEEEE5firstB8ue170006Ev', symObjAddr: 0x107D0, symBinAddr: 0x100014C18, symSize: 0x24 }
  - { offsetInCU: 0x4CB99, offset: 0x4CB99, size: 0x8, addend: 0x0, symName: '__ZNSt3__122__compressed_pair_elemIPNS_10__function6__funcIZZ9test_fontRN3xpf9IRendererEENK3$_0clES5_EUlvE1_NS_9allocatorIS7_EEFNS3_11RenderBatchEvEEELi0ELb0EE5__getB8ue170006Ev', symObjAddr: 0x107F4, symBinAddr: 0x100014C3C, symSize: 0x14 }
  - { offsetInCU: 0x4CBBF, offset: 0x4CBBF, size: 0x8, addend: 0x0, symName: '__ZNSt3__110unique_ptrINS_10__function6__funcIZZ9test_fontRN3xpf9IRendererEENK3$_0clES5_EUlvE1_NS_9allocatorIS7_EEFNS3_11RenderBatchEvEEENS_22__allocator_destructorINS8_ISC_EEEEED2B8ue170006Ev', symObjAddr: 0x10808, symBinAddr: 0x100014C50, symSize: 0x30 }
  - { offsetInCU: 0x4CBE9, offset: 0x4CBE9, size: 0x8, addend: 0x0, symName: '__ZNSt3__110unique_ptrINS_10__function6__funcIZZ9test_fontRN3xpf9IRendererEENK3$_0clES5_EUlvE1_NS_9allocatorIS7_EEFNS3_11RenderBatchEvEEENS_22__allocator_destructorINS8_ISC_EEEEE5resetB8ue170006EPSC_', symObjAddr: 0x10838, symBinAddr: 0x100014C80, symSize: 0x78 }
  - { offsetInCU: 0x4CC2F, offset: 0x4CC2F, size: 0x8, addend: 0x0, symName: '__ZNSt3__117__compressed_pairIPNS_10__function6__funcIZZ9test_fontRN3xpf9IRendererEENK3$_0clES5_EUlvE1_NS_9allocatorIS7_EEFNS3_11RenderBatchEvEEENS_22__allocator_destructorINS8_ISC_EEEEE6secondB8ue170006Ev', symObjAddr: 0x108B0, symBinAddr: 0x100014CF8, symSize: 0x28 }
  - { offsetInCU: 0x4CC55, offset: 0x4CC55, size: 0x8, addend: 0x0, symName: '__ZNSt3__122__allocator_destructorINS_9allocatorINS_10__function6__funcIZZ9test_fontRN3xpf9IRendererEENK3$_0clES6_EUlvE1_NS1_IS8_EEFNS4_11RenderBatchEvEEEEEEclB8ue170006EPSC_', symObjAddr: 0x108D8, symBinAddr: 0x100014D20, symSize: 0x34 }
  - { offsetInCU: 0x4CC89, offset: 0x4CC89, size: 0x8, addend: 0x0, symName: '__ZNSt3__122__compressed_pair_elemINS_22__allocator_destructorINS_9allocatorINS_10__function6__funcIZZ9test_fontRN3xpf9IRendererEENK3$_0clES7_EUlvE1_NS2_IS9_EEFNS5_11RenderBatchEvEEEEEEELi1ELb0EE5__getB8ue170006Ev', symObjAddr: 0x1090C, symBinAddr: 0x100014D54, symSize: 0x14 }
  - { offsetInCU: 0x4CCAF, offset: 0x4CCAF, size: 0x8, addend: 0x0, symName: '__ZNSt3__116allocator_traitsINS_9allocatorINS_10__function6__funcIZZ9test_fontRN3xpf9IRendererEENK3$_0clES6_EUlvE1_NS1_IS8_EEFNS4_11RenderBatchEvEEEEEE10deallocateB8ue170006ERSD_PSC_m', symObjAddr: 0x10920, symBinAddr: 0x100014D68, symSize: 0x34 }
  - { offsetInCU: 0x4CCF4, offset: 0x4CCF4, size: 0x8, addend: 0x0, symName: '__ZNSt3__19allocatorINS_10__function6__funcIZZ9test_fontRN3xpf9IRendererEENK3$_0clES5_EUlvE1_NS0_IS7_EEFNS3_11RenderBatchEvEEEE10deallocateB8ue170006EPSB_m', symObjAddr: 0x10954, symBinAddr: 0x100014D9C, symSize: 0x44 }
  - { offsetInCU: 0x4CD36, offset: 0x4CD36, size: 0x8, addend: 0x0, symName: '__ZNSt3__110__function6__funcIZZ9test_fontRN3xpf9IRendererEENK3$_0clES4_EUlvE1_NS_9allocatorIS6_EEFNS2_11RenderBatchEvEEC1B8ue170006ERKS6_RKS8_', symObjAddr: 0x10998, symBinAddr: 0x100014DE0, symSize: 0x3C }
  - { offsetInCU: 0x4CD80, offset: 0x4CD80, size: 0x8, addend: 0x0, symName: '__ZNSt3__110__function6__funcIZZ9test_fontRN3xpf9IRendererEENK3$_0clES4_EUlvE1_NS_9allocatorIS6_EEFNS2_11RenderBatchEvEEC2B8ue170006ERKS6_RKS8_', symObjAddr: 0x109D4, symBinAddr: 0x100014E1C, symSize: 0x88 }
  - { offsetInCU: 0x4CDCA, offset: 0x4CDCA, size: 0x8, addend: 0x0, symName: '__ZNSt3__110__function12__alloc_funcIZZ9test_fontRN3xpf9IRendererEENK3$_0clES4_EUlvE1_NS_9allocatorIS6_EEFNS2_11RenderBatchEvEEC1B8ue170006ERKS6_RKS8_', symObjAddr: 0x10A5C, symBinAddr: 0x100014EA4, symSize: 0x3C }
  - { offsetInCU: 0x4CE10, offset: 0x4CE10, size: 0x8, addend: 0x0, symName: '__ZNSt3__110__function12__alloc_funcIZZ9test_fontRN3xpf9IRendererEENK3$_0clES4_EUlvE1_NS_9allocatorIS6_EEFNS2_11RenderBatchEvEEC2B8ue170006ERKS6_RKS8_', symObjAddr: 0x10A98, symBinAddr: 0x100014EE0, symSize: 0x5C }
  - { offsetInCU: 0x4CE56, offset: 0x4CE56, size: 0x8, addend: 0x0, symName: '__ZNSt3__117__compressed_pairIZZ9test_fontRN3xpf9IRendererEENK3$_0clES3_EUlvE1_NS_9allocatorIS5_EEEC1B8ue170006IJRKS5_EJRKS7_EEENS_21piecewise_construct_tENS_5tupleIJDpT_EEENSF_IJDpT0_EEE', symObjAddr: 0x10B20, symBinAddr: 0x100014F68, symSize: 0x3C }
  - { offsetInCU: 0x4CEC0, offset: 0x4CEC0, size: 0x8, addend: 0x0, symName: '__ZNSt3__15tupleIJRKNS_9allocatorIZZ9test_fontRN3xpf9IRendererEENK3$_0clES4_EUlvE1_EEEEC1B8ue170006INS_4_AndELi0EEES9_', symObjAddr: 0x10B5C, symBinAddr: 0x100014FA4, symSize: 0x34 }
  - { offsetInCU: 0x4CF09, offset: 0x4CF09, size: 0x8, addend: 0x0, symName: '__ZNSt3__15tupleIJRKNS_9allocatorIZZ9test_fontRN3xpf9IRendererEENK3$_0clES4_EUlvE1_EEEEC2B8ue170006INS_4_AndELi0EEES9_', symObjAddr: 0x10B90, symBinAddr: 0x100014FD8, symSize: 0x34 }
  - { offsetInCU: 0x4CF52, offset: 0x4CF52, size: 0x8, addend: 0x0, symName: '__ZNSt3__112__tuple_implINS_15__tuple_indicesIJLm0EEEEJRKNS_9allocatorIZZ9test_fontRN3xpf9IRendererEENK3$_0clES6_EUlvE1_EEEEC1B8ue170006IJLm0EEJSB_EJEJEJSB_EEENS1_IJXspT_EEEENS_13__tuple_typesIJDpT0_EEENS1_IJXspT1_EEEENSF_IJDpT2_EEEDpOT3_', symObjAddr: 0x10BC4, symBinAddr: 0x10001500C, symSize: 0x34 }
  - { offsetInCU: 0x4CFEA, offset: 0x4CFEA, size: 0x8, addend: 0x0, symName: '__ZNSt3__112__tuple_implINS_15__tuple_indicesIJLm0EEEEJRKNS_9allocatorIZZ9test_fontRN3xpf9IRendererEENK3$_0clES6_EUlvE1_EEEEC2B8ue170006IJLm0EEJSB_EJEJEJSB_EEENS1_IJXspT_EEEENS_13__tuple_typesIJDpT0_EEENS1_IJXspT1_EEEENSF_IJDpT2_EEEDpOT3_', symObjAddr: 0x10BF8, symBinAddr: 0x100015040, symSize: 0x34 }
  - { offsetInCU: 0x4D082, offset: 0x4D082, size: 0x8, addend: 0x0, symName: '__ZNSt3__112__tuple_leafILm0ERKNS_9allocatorIZZ9test_fontRN3xpf9IRendererEENK3$_0clES4_EUlvE1_EELb0EEC2B8ue170006IS9_vEEOT_', symObjAddr: 0x10C2C, symBinAddr: 0x100015074, symSize: 0x20 }
  - { offsetInCU: 0x4D0C6, offset: 0x4D0C6, size: 0x8, addend: 0x0, symName: '__ZNSt3__117__compressed_pairIZZ9test_fontRN3xpf9IRendererEENK3$_0clES3_EUlvE1_NS_9allocatorIS5_EEEC2B8ue170006IJRKS5_EJRKS7_EEENS_21piecewise_construct_tENS_5tupleIJDpT_EEENSF_IJDpT0_EEE', symObjAddr: 0x10C4C, symBinAddr: 0x100015094, symSize: 0x54 }
  - { offsetInCU: 0x4D130, offset: 0x4D130, size: 0x8, addend: 0x0, symName: '__ZNSt3__122__compressed_pair_elemINS_9allocatorIZZ9test_fontRN3xpf9IRendererEENK3$_0clES4_EUlvE1_EELi1ELb1EEC2B8ue170006IJRKS7_EJLm0EEEENS_21piecewise_construct_tENS_5tupleIJDpT_EEENS_15__tuple_indicesIJXspT0_EEEE', symObjAddr: 0x10CA0, symBinAddr: 0x1000150E8, symSize: 0x38 }
  - { offsetInCU: 0x4D193, offset: 0x4D193, size: 0x8, addend: 0x0, symName: '__ZNSt3__112__tuple_leafILm0ERKNS_9allocatorIZZ9test_fontRN3xpf9IRendererEENK3$_0clES4_EUlvE1_EELb0EE3getB8ue170006Ev', symObjAddr: 0x10CFC, symBinAddr: 0x100015144, symSize: 0x18 }
  - { offsetInCU: 0x4D1B9, offset: 0x4D1B9, size: 0x8, addend: 0x0, symName: '__ZNSt3__110__function12__alloc_funcIZZ9test_fontRN3xpf9IRendererEENK3$_0clES4_EUlvE1_NS_9allocatorIS6_EEFNS2_11RenderBatchEvEE7destroyB8ue170006Ev', symObjAddr: 0x10D14, symBinAddr: 0x10001515C, symSize: 0x10 }
  - { offsetInCU: 0x4D1DF, offset: 0x4D1DF, size: 0x8, addend: 0x0, symName: '__ZNSt3__110__function12__alloc_funcIZZ9test_fontRN3xpf9IRendererEENK3$_0clES4_EUlvE1_NS_9allocatorIS6_EEFNS2_11RenderBatchEvEEclB8ue170006Ev', symObjAddr: 0x10D24, symBinAddr: 0x10001516C, symSize: 0x34 }
  - { offsetInCU: 0x4D205, offset: 0x4D205, size: 0x8, addend: 0x0, symName: '__ZNSt3__128__invoke_void_return_wrapperIN3xpf11RenderBatchELb0EE6__callB8ue170006IJRZZ9test_fontRNS1_9IRendererEENK3$_0clES6_EUlvE1_EEES2_DpOT_', symObjAddr: 0x10D58, symBinAddr: 0x1000151A0, symSize: 0x2C }
  - { offsetInCU: 0x4D235, offset: 0x4D235, size: 0x8, addend: 0x0, symName: '__ZNSt3__117__compressed_pairIZZ9test_fontRN3xpf9IRendererEENK3$_0clES3_EUlvE1_NS_9allocatorIS5_EEE5firstB8ue170006Ev', symObjAddr: 0x10D84, symBinAddr: 0x1000151CC, symSize: 0x24 }
  - { offsetInCU: 0x4D261, offset: 0x4D261, size: 0x8, addend: 0x0, symName: '__ZZZ9test_fontRN3xpf9IRendererEENK3$_0clES1_ENKUlvE1_clEv', symObjAddr: 0x10DD4, symBinAddr: 0x10001521C, symSize: 0x15C }
  - { offsetInCU: 0x4D29C, offset: 0x4D29C, size: 0x8, addend: 0x0, symName: __ZL29HorizontalRayIntersectionTestRN3xpf18RenderBatchBuilderENS_4v2_tES2_S2_f, symObjAddr: 0x10F30, symBinAddr: 0x100015378, symSize: 0x1A0 }
  - { offsetInCU: 0x4D352, offset: 0x4D352, size: 0x8, addend: 0x0, symName: __ZL22DrawPointOnBezierCurveIN3xpf18RenderBatchBuilderEEbRT_fNS0_4v2_tES4_S4_f, symObjAddr: 0x110D0, symBinAddr: 0x100015518, symSize: 0x1E4 }
  - { offsetInCU: 0x4D406, offset: 0x4D406, size: 0x8, addend: 0x0, symName: '__ZNSt3__122__compressed_pair_elemIZZ9test_fontRN3xpf9IRendererEENK3$_0clES3_EUlvE1_Li0ELb0EE5__getB8ue170006Ev', symObjAddr: 0x11328, symBinAddr: 0x100015770, symSize: 0x14 }
  - { offsetInCU: 0x4D42C, offset: 0x4D42C, size: 0x8, addend: 0x0, symName: '__ZNSt3__110unique_ptrINS_10__function6__baseIFN3xpf11RenderBatchEvEEENS_22__allocator_destructorINS_9allocatorINS1_6__funcIZZ9test_fontRNS3_9IRendererEENK3$_0clESB_EUlvE1_NS8_ISD_EES5_EEEEEEED2B8ue170006Ev', symObjAddr: 0x1133C, symBinAddr: 0x100015784, symSize: 0x30 }
  - { offsetInCU: 0x4D456, offset: 0x4D456, size: 0x8, addend: 0x0, symName: '__ZNSt3__110unique_ptrINS_10__function6__baseIFN3xpf11RenderBatchEvEEENS_22__allocator_destructorINS_9allocatorINS1_6__funcIZZ9test_fontRNS3_9IRendererEENK3$_0clESB_EUlvE1_NS8_ISD_EES5_EEEEEEE5resetB8ue170006EPSF_', symObjAddr: 0x1136C, symBinAddr: 0x1000157B4, symSize: 0x78 }
  - { offsetInCU: 0x4D49C, offset: 0x4D49C, size: 0x8, addend: 0x0, symName: __ZNSt3__16vectorIhNS_9allocatorIhEEED2B8ue170006Ev, symObjAddr: 0x113E4, symBinAddr: 0x10001582C, symSize: 0x44 }
  - { offsetInCU: 0x4D4C6, offset: 0x4D4C6, size: 0x8, addend: 0x0, symName: __ZNSt3__16vectorIhNS_9allocatorIhEEE16__destroy_vectorC1B8ue170006ERS3_, symObjAddr: 0x11428, symBinAddr: 0x100015870, symSize: 0x34 }
  - { offsetInCU: 0x4D500, offset: 0x4D500, size: 0x8, addend: 0x0, symName: __ZNSt3__16vectorIhNS_9allocatorIhEEE16__destroy_vectorclB8ue170006Ev, symObjAddr: 0x1145C, symBinAddr: 0x1000158A4, symSize: 0x90 }
  - { offsetInCU: 0x4D526, offset: 0x4D526, size: 0x8, addend: 0x0, symName: __ZNSt3__16vectorIhNS_9allocatorIhEEE16__destroy_vectorC2B8ue170006ERS3_, symObjAddr: 0x114EC, symBinAddr: 0x100015934, symSize: 0x20 }
  - { offsetInCU: 0x4D560, offset: 0x4D560, size: 0x8, addend: 0x0, symName: __ZNSt3__16vectorIhNS_9allocatorIhEEE7__clearB8ue170006Ev, symObjAddr: 0x1150C, symBinAddr: 0x100015954, symSize: 0x28 }
  - { offsetInCU: 0x4D586, offset: 0x4D586, size: 0x8, addend: 0x0, symName: __ZNSt3__16vectorIhNS_9allocatorIhEEE22__base_destruct_at_endB8ue170006EPh, symObjAddr: 0x11534, symBinAddr: 0x10001597C, symSize: 0x8C }
  - { offsetInCU: 0x4D5CC, offset: 0x4D5CC, size: 0x8, addend: 0x0, symName: __ZN3xpf18RenderBatchBuilderD2Ev, symObjAddr: 0x115C0, symBinAddr: 0x100015A08, symSize: 0x54 }
  - { offsetInCU: 0x4D5F8, offset: 0x4D5F8, size: 0x8, addend: 0x0, symName: __ZNSt3__16vectorIN3xpf14PolyLineVertexENS_9allocatorIS2_EEED1B8ue170006Ev, symObjAddr: 0x11614, symBinAddr: 0x100015A5C, symSize: 0x2C }
  - { offsetInCU: 0x4D622, offset: 0x4D622, size: 0x8, addend: 0x0, symName: __ZNSt3__16vectorINS_10shared_ptrIN3xpf13RenderCommandEEENS_9allocatorIS4_EEED1B8ue170006Ev, symObjAddr: 0x11640, symBinAddr: 0x100015A88, symSize: 0x2C }
  - { offsetInCU: 0x4D64C, offset: 0x4D64C, size: 0x8, addend: 0x0, symName: __ZNSt3__110shared_ptrIN3xpf8ITextureEED1B8ue170006Ev, symObjAddr: 0x1166C, symBinAddr: 0x100015AB4, symSize: 0x2C }
  - { offsetInCU: 0x4D676, offset: 0x4D676, size: 0x8, addend: 0x0, symName: __ZNSt3__16vectorIfNS_9allocatorIfEEED1B8ue170006Ev, symObjAddr: 0x11698, symBinAddr: 0x100015AE0, symSize: 0x2C }
  - { offsetInCU: 0x4D6A0, offset: 0x4D6A0, size: 0x8, addend: 0x0, symName: __ZNSt3__16vectorIN3xpf14PolyLineVertexENS_9allocatorIS2_EEED2B8ue170006Ev, symObjAddr: 0x116C4, symBinAddr: 0x100015B0C, symSize: 0x44 }
  - { offsetInCU: 0x4D6CA, offset: 0x4D6CA, size: 0x8, addend: 0x0, symName: __ZNSt3__16vectorIN3xpf14PolyLineVertexENS_9allocatorIS2_EEE16__destroy_vectorC1B8ue170006ERS5_, symObjAddr: 0x11708, symBinAddr: 0x100015B50, symSize: 0x34 }
  - { offsetInCU: 0x4D704, offset: 0x4D704, size: 0x8, addend: 0x0, symName: __ZNSt3__16vectorIN3xpf14PolyLineVertexENS_9allocatorIS2_EEE16__destroy_vectorclB8ue170006Ev, symObjAddr: 0x1173C, symBinAddr: 0x100015B84, symSize: 0x90 }
  - { offsetInCU: 0x4D72A, offset: 0x4D72A, size: 0x8, addend: 0x0, symName: __ZNSt3__16vectorIN3xpf14PolyLineVertexENS_9allocatorIS2_EEE16__destroy_vectorC2B8ue170006ERS5_, symObjAddr: 0x117CC, symBinAddr: 0x100015C14, symSize: 0x20 }
  - { offsetInCU: 0x4D764, offset: 0x4D764, size: 0x8, addend: 0x0, symName: __ZNSt3__16vectorIN3xpf14PolyLineVertexENS_9allocatorIS2_EEE7__clearB8ue170006Ev, symObjAddr: 0x117EC, symBinAddr: 0x100015C34, symSize: 0x28 }
  - { offsetInCU: 0x4D78A, offset: 0x4D78A, size: 0x8, addend: 0x0, symName: __ZNKSt3__16vectorIN3xpf14PolyLineVertexENS_9allocatorIS2_EEE17__annotate_deleteB8ue170006Ev, symObjAddr: 0x11814, symBinAddr: 0x100015C5C, symSize: 0xB8 }
  - { offsetInCU: 0x4D7B0, offset: 0x4D7B0, size: 0x8, addend: 0x0, symName: __ZNSt3__116allocator_traitsINS_9allocatorIN3xpf14PolyLineVertexEEEE10deallocateB8ue170006ERS4_PS3_m, symObjAddr: 0x118CC, symBinAddr: 0x100015D14, symSize: 0x34 }
  - { offsetInCU: 0x4D7F5, offset: 0x4D7F5, size: 0x8, addend: 0x0, symName: __ZNSt3__16vectorIN3xpf14PolyLineVertexENS_9allocatorIS2_EEE7__allocB8ue170006Ev, symObjAddr: 0x11900, symBinAddr: 0x100015D48, symSize: 0x28 }
  - { offsetInCU: 0x4D81B, offset: 0x4D81B, size: 0x8, addend: 0x0, symName: __ZNKSt3__16vectorIN3xpf14PolyLineVertexENS_9allocatorIS2_EEE8capacityB8ue170006Ev, symObjAddr: 0x11928, symBinAddr: 0x100015D70, symSize: 0x40 }
  - { offsetInCU: 0x4D841, offset: 0x4D841, size: 0x8, addend: 0x0, symName: __ZNSt3__16vectorIN3xpf14PolyLineVertexENS_9allocatorIS2_EEE22__base_destruct_at_endB8ue170006EPS2_, symObjAddr: 0x11968, symBinAddr: 0x100015DB0, symSize: 0x8C }
  - { offsetInCU: 0x4D887, offset: 0x4D887, size: 0x8, addend: 0x0, symName: __ZNSt3__116allocator_traitsINS_9allocatorIN3xpf14PolyLineVertexEEEE7destroyB8ue170006IS3_vvEEvRS4_PT_, symObjAddr: 0x119F4, symBinAddr: 0x100015E3C, symSize: 0x28 }
  - { offsetInCU: 0x4D8C3, offset: 0x4D8C3, size: 0x8, addend: 0x0, symName: __ZNKSt3__16vectorIN3xpf14PolyLineVertexENS_9allocatorIS2_EEE31__annotate_contiguous_containerB8ue170006EPKvS7_S7_S7_, symObjAddr: 0x11A64, symBinAddr: 0x100015EAC, symSize: 0x20 }
  - { offsetInCU: 0x4D919, offset: 0x4D919, size: 0x8, addend: 0x0, symName: __ZNKSt3__16vectorIN3xpf14PolyLineVertexENS_9allocatorIS2_EEE4dataB8ue170006Ev, symObjAddr: 0x11A84, symBinAddr: 0x100015ECC, symSize: 0x28 }
  - { offsetInCU: 0x4D93F, offset: 0x4D93F, size: 0x8, addend: 0x0, symName: __ZNKSt3__16vectorIN3xpf14PolyLineVertexENS_9allocatorIS2_EEE4sizeB8ue170006Ev, symObjAddr: 0x11AAC, symBinAddr: 0x100015EF4, symSize: 0x28 }
  - { offsetInCU: 0x4D965, offset: 0x4D965, size: 0x8, addend: 0x0, symName: __ZNSt3__19allocatorIN3xpf14PolyLineVertexEE10deallocateB8ue170006EPS2_m, symObjAddr: 0x11AD4, symBinAddr: 0x100015F1C, symSize: 0x40 }
  - { offsetInCU: 0x4D9A7, offset: 0x4D9A7, size: 0x8, addend: 0x0, symName: __ZNSt3__117__compressed_pairIPN3xpf14PolyLineVertexENS_9allocatorIS2_EEE6secondB8ue170006Ev, symObjAddr: 0x11B14, symBinAddr: 0x100015F5C, symSize: 0x24 }
  - { offsetInCU: 0x4D9CD, offset: 0x4D9CD, size: 0x8, addend: 0x0, symName: __ZNSt3__122__compressed_pair_elemINS_9allocatorIN3xpf14PolyLineVertexEEELi1ELb1EE5__getB8ue170006Ev, symObjAddr: 0x11B38, symBinAddr: 0x100015F80, symSize: 0x14 }
  - { offsetInCU: 0x4D9F3, offset: 0x4D9F3, size: 0x8, addend: 0x0, symName: __ZNKSt3__16vectorIN3xpf14PolyLineVertexENS_9allocatorIS2_EEE9__end_capB8ue170006Ev, symObjAddr: 0x11B4C, symBinAddr: 0x100015F94, symSize: 0x28 }
  - { offsetInCU: 0x4DA19, offset: 0x4DA19, size: 0x8, addend: 0x0, symName: __ZNKSt3__117__compressed_pairIPN3xpf14PolyLineVertexENS_9allocatorIS2_EEE5firstB8ue170006Ev, symObjAddr: 0x11B74, symBinAddr: 0x100015FBC, symSize: 0x24 }
  - { offsetInCU: 0x4DA3F, offset: 0x4DA3F, size: 0x8, addend: 0x0, symName: __ZNKSt3__122__compressed_pair_elemIPN3xpf14PolyLineVertexELi0ELb0EE5__getB8ue170006Ev, symObjAddr: 0x11B98, symBinAddr: 0x100015FE0, symSize: 0x14 }
  - { offsetInCU: 0x4DA65, offset: 0x4DA65, size: 0x8, addend: 0x0, symName: __ZNSt3__16vectorINS_10shared_ptrIN3xpf13RenderCommandEEENS_9allocatorIS4_EEED2B8ue170006Ev, symObjAddr: 0x11BAC, symBinAddr: 0x100015FF4, symSize: 0x44 }
  - { offsetInCU: 0x4DA8F, offset: 0x4DA8F, size: 0x8, addend: 0x0, symName: __ZNSt3__16vectorINS_10shared_ptrIN3xpf13RenderCommandEEENS_9allocatorIS4_EEE16__destroy_vectorC1B8ue170006ERS7_, symObjAddr: 0x11BF0, symBinAddr: 0x100016038, symSize: 0x34 }
  - { offsetInCU: 0x4DAC9, offset: 0x4DAC9, size: 0x8, addend: 0x0, symName: __ZNSt3__16vectorINS_10shared_ptrIN3xpf13RenderCommandEEENS_9allocatorIS4_EEE16__destroy_vectorclB8ue170006Ev, symObjAddr: 0x11C24, symBinAddr: 0x10001606C, symSize: 0x90 }
  - { offsetInCU: 0x4DAEF, offset: 0x4DAEF, size: 0x8, addend: 0x0, symName: __ZNSt3__16vectorINS_10shared_ptrIN3xpf13RenderCommandEEENS_9allocatorIS4_EEE16__destroy_vectorC2B8ue170006ERS7_, symObjAddr: 0x11CB4, symBinAddr: 0x1000160FC, symSize: 0x20 }
  - { offsetInCU: 0x4DB29, offset: 0x4DB29, size: 0x8, addend: 0x0, symName: __ZNSt3__16vectorINS_10shared_ptrIN3xpf13RenderCommandEEENS_9allocatorIS4_EEE7__clearB8ue170006Ev, symObjAddr: 0x11CD4, symBinAddr: 0x10001611C, symSize: 0x28 }
  - { offsetInCU: 0x4DB4F, offset: 0x4DB4F, size: 0x8, addend: 0x0, symName: __ZNKSt3__16vectorINS_10shared_ptrIN3xpf13RenderCommandEEENS_9allocatorIS4_EEE17__annotate_deleteB8ue170006Ev, symObjAddr: 0x11CFC, symBinAddr: 0x100016144, symSize: 0xB8 }
  - { offsetInCU: 0x4DB75, offset: 0x4DB75, size: 0x8, addend: 0x0, symName: __ZNSt3__116allocator_traitsINS_9allocatorINS_10shared_ptrIN3xpf13RenderCommandEEEEEE10deallocateB8ue170006ERS6_PS5_m, symObjAddr: 0x11DB4, symBinAddr: 0x1000161FC, symSize: 0x34 }
  - { offsetInCU: 0x4DBBA, offset: 0x4DBBA, size: 0x8, addend: 0x0, symName: __ZNSt3__16vectorINS_10shared_ptrIN3xpf13RenderCommandEEENS_9allocatorIS4_EEE7__allocB8ue170006Ev, symObjAddr: 0x11DE8, symBinAddr: 0x100016230, symSize: 0x28 }
  - { offsetInCU: 0x4DBE0, offset: 0x4DBE0, size: 0x8, addend: 0x0, symName: __ZNKSt3__16vectorINS_10shared_ptrIN3xpf13RenderCommandEEENS_9allocatorIS4_EEE8capacityB8ue170006Ev, symObjAddr: 0x11E10, symBinAddr: 0x100016258, symSize: 0x40 }
  - { offsetInCU: 0x4DC06, offset: 0x4DC06, size: 0x8, addend: 0x0, symName: __ZNSt3__16vectorINS_10shared_ptrIN3xpf13RenderCommandEEENS_9allocatorIS4_EEE22__base_destruct_at_endB8ue170006EPS4_, symObjAddr: 0x11E50, symBinAddr: 0x100016298, symSize: 0x8C }
  - { offsetInCU: 0x4DC4C, offset: 0x4DC4C, size: 0x8, addend: 0x0, symName: __ZNSt3__116allocator_traitsINS_9allocatorINS_10shared_ptrIN3xpf13RenderCommandEEEEEE7destroyB8ue170006IS5_vvEEvRS6_PT_, symObjAddr: 0x11EDC, symBinAddr: 0x100016324, symSize: 0x28 }
  - { offsetInCU: 0x4DC88, offset: 0x4DC88, size: 0x8, addend: 0x0, symName: __ZNSt3__110shared_ptrIN3xpf13RenderCommandEED1B8ue170006Ev, symObjAddr: 0x11F60, symBinAddr: 0x1000163A8, symSize: 0x2C }
  - { offsetInCU: 0x4DCB2, offset: 0x4DCB2, size: 0x8, addend: 0x0, symName: __ZNSt3__110shared_ptrIN3xpf13RenderCommandEED2B8ue170006Ev, symObjAddr: 0x11F8C, symBinAddr: 0x1000163D4, symSize: 0x54 }
  - { offsetInCU: 0x4DCDC, offset: 0x4DCDC, size: 0x8, addend: 0x0, symName: __ZNSt3__119__shared_weak_count16__release_sharedB8ue170006Ev, symObjAddr: 0x11FE0, symBinAddr: 0x100016428, symSize: 0x3C }
  - { offsetInCU: 0x4DD02, offset: 0x4DD02, size: 0x8, addend: 0x0, symName: __ZNSt3__114__shared_count16__release_sharedB8ue170006Ev, symObjAddr: 0x1201C, symBinAddr: 0x100016464, symSize: 0x7C }
  - { offsetInCU: 0x4DD28, offset: 0x4DD28, size: 0x8, addend: 0x0, symName: __ZNKSt3__16vectorINS_10shared_ptrIN3xpf13RenderCommandEEENS_9allocatorIS4_EEE31__annotate_contiguous_containerB8ue170006EPKvS9_S9_S9_, symObjAddr: 0x120C8, symBinAddr: 0x100016510, symSize: 0x20 }
  - { offsetInCU: 0x4DD7E, offset: 0x4DD7E, size: 0x8, addend: 0x0, symName: __ZNKSt3__16vectorINS_10shared_ptrIN3xpf13RenderCommandEEENS_9allocatorIS4_EEE4dataB8ue170006Ev, symObjAddr: 0x120E8, symBinAddr: 0x100016530, symSize: 0x28 }
  - { offsetInCU: 0x4DDA4, offset: 0x4DDA4, size: 0x8, addend: 0x0, symName: __ZNKSt3__16vectorINS_10shared_ptrIN3xpf13RenderCommandEEENS_9allocatorIS4_EEE4sizeB8ue170006Ev, symObjAddr: 0x12110, symBinAddr: 0x100016558, symSize: 0x28 }
  - { offsetInCU: 0x4DDCA, offset: 0x4DDCA, size: 0x8, addend: 0x0, symName: __ZNSt3__19allocatorINS_10shared_ptrIN3xpf13RenderCommandEEEE10deallocateB8ue170006EPS4_m, symObjAddr: 0x12138, symBinAddr: 0x100016580, symSize: 0x40 }
  - { offsetInCU: 0x4DE0C, offset: 0x4DE0C, size: 0x8, addend: 0x0, symName: __ZNSt3__117__compressed_pairIPNS_10shared_ptrIN3xpf13RenderCommandEEENS_9allocatorIS4_EEE6secondB8ue170006Ev, symObjAddr: 0x12178, symBinAddr: 0x1000165C0, symSize: 0x24 }
  - { offsetInCU: 0x4DE32, offset: 0x4DE32, size: 0x8, addend: 0x0, symName: __ZNSt3__122__compressed_pair_elemINS_9allocatorINS_10shared_ptrIN3xpf13RenderCommandEEEEELi1ELb1EE5__getB8ue170006Ev, symObjAddr: 0x1219C, symBinAddr: 0x1000165E4, symSize: 0x14 }
  - { offsetInCU: 0x4DE58, offset: 0x4DE58, size: 0x8, addend: 0x0, symName: __ZNKSt3__16vectorINS_10shared_ptrIN3xpf13RenderCommandEEENS_9allocatorIS4_EEE9__end_capB8ue170006Ev, symObjAddr: 0x121B0, symBinAddr: 0x1000165F8, symSize: 0x28 }
  - { offsetInCU: 0x4DE7E, offset: 0x4DE7E, size: 0x8, addend: 0x0, symName: __ZNKSt3__117__compressed_pairIPNS_10shared_ptrIN3xpf13RenderCommandEEENS_9allocatorIS4_EEE5firstB8ue170006Ev, symObjAddr: 0x121D8, symBinAddr: 0x100016620, symSize: 0x24 }
  - { offsetInCU: 0x4DEA4, offset: 0x4DEA4, size: 0x8, addend: 0x0, symName: __ZNKSt3__122__compressed_pair_elemIPNS_10shared_ptrIN3xpf13RenderCommandEEELi0ELb0EE5__getB8ue170006Ev, symObjAddr: 0x121FC, symBinAddr: 0x100016644, symSize: 0x14 }
  - { offsetInCU: 0x4DECA, offset: 0x4DECA, size: 0x8, addend: 0x0, symName: __ZNSt3__110shared_ptrIN3xpf8ITextureEED2B8ue170006Ev, symObjAddr: 0x12210, symBinAddr: 0x100016658, symSize: 0x54 }
  - { offsetInCU: 0x4DEF4, offset: 0x4DEF4, size: 0x8, addend: 0x0, symName: __ZNSt3__16vectorIfNS_9allocatorIfEEED2B8ue170006Ev, symObjAddr: 0x12264, symBinAddr: 0x1000166AC, symSize: 0x44 }
  - { offsetInCU: 0x4DF1E, offset: 0x4DF1E, size: 0x8, addend: 0x0, symName: __ZNSt3__16vectorIfNS_9allocatorIfEEE16__destroy_vectorC1B8ue170006ERS3_, symObjAddr: 0x122A8, symBinAddr: 0x1000166F0, symSize: 0x34 }
  - { offsetInCU: 0x4DF58, offset: 0x4DF58, size: 0x8, addend: 0x0, symName: __ZNSt3__16vectorIfNS_9allocatorIfEEE16__destroy_vectorclB8ue170006Ev, symObjAddr: 0x122DC, symBinAddr: 0x100016724, symSize: 0x90 }
  - { offsetInCU: 0x4DF7E, offset: 0x4DF7E, size: 0x8, addend: 0x0, symName: __ZNSt3__16vectorIfNS_9allocatorIfEEE16__destroy_vectorC2B8ue170006ERS3_, symObjAddr: 0x1236C, symBinAddr: 0x1000167B4, symSize: 0x20 }
  - { offsetInCU: 0x4DFB8, offset: 0x4DFB8, size: 0x8, addend: 0x0, symName: __ZNSt3__16vectorIfNS_9allocatorIfEEE7__clearB8ue170006Ev, symObjAddr: 0x1238C, symBinAddr: 0x1000167D4, symSize: 0x28 }
  - { offsetInCU: 0x4DFDE, offset: 0x4DFDE, size: 0x8, addend: 0x0, symName: __ZNKSt3__16vectorIfNS_9allocatorIfEEE17__annotate_deleteB8ue170006Ev, symObjAddr: 0x123B4, symBinAddr: 0x1000167FC, symSize: 0xB8 }
  - { offsetInCU: 0x4E004, offset: 0x4E004, size: 0x8, addend: 0x0, symName: __ZNSt3__116allocator_traitsINS_9allocatorIfEEE10deallocateB8ue170006ERS2_Pfm, symObjAddr: 0x1246C, symBinAddr: 0x1000168B4, symSize: 0x34 }
  - { offsetInCU: 0x4E049, offset: 0x4E049, size: 0x8, addend: 0x0, symName: __ZNSt3__16vectorIfNS_9allocatorIfEEE7__allocB8ue170006Ev, symObjAddr: 0x124A0, symBinAddr: 0x1000168E8, symSize: 0x28 }
  - { offsetInCU: 0x4E06F, offset: 0x4E06F, size: 0x8, addend: 0x0, symName: __ZNKSt3__16vectorIfNS_9allocatorIfEEE8capacityB8ue170006Ev, symObjAddr: 0x124C8, symBinAddr: 0x100016910, symSize: 0x40 }
  - { offsetInCU: 0x4E095, offset: 0x4E095, size: 0x8, addend: 0x0, symName: __ZNSt3__16vectorIfNS_9allocatorIfEEE22__base_destruct_at_endB8ue170006EPf, symObjAddr: 0x12508, symBinAddr: 0x100016950, symSize: 0x8C }
  - { offsetInCU: 0x4E0DB, offset: 0x4E0DB, size: 0x8, addend: 0x0, symName: __ZNSt3__116allocator_traitsINS_9allocatorIfEEE7destroyB8ue170006IfvvEEvRS2_PT_, symObjAddr: 0x12594, symBinAddr: 0x1000169DC, symSize: 0x28 }
  - { offsetInCU: 0x4E117, offset: 0x4E117, size: 0x8, addend: 0x0, symName: __ZNKSt3__16vectorIfNS_9allocatorIfEEE31__annotate_contiguous_containerB8ue170006EPKvS5_S5_S5_, symObjAddr: 0x12604, symBinAddr: 0x100016A4C, symSize: 0x20 }
  - { offsetInCU: 0x4E16D, offset: 0x4E16D, size: 0x8, addend: 0x0, symName: __ZNKSt3__16vectorIfNS_9allocatorIfEEE4dataB8ue170006Ev, symObjAddr: 0x12624, symBinAddr: 0x100016A6C, symSize: 0x28 }
  - { offsetInCU: 0x4E193, offset: 0x4E193, size: 0x8, addend: 0x0, symName: __ZNKSt3__16vectorIfNS_9allocatorIfEEE4sizeB8ue170006Ev, symObjAddr: 0x1264C, symBinAddr: 0x100016A94, symSize: 0x28 }
  - { offsetInCU: 0x4E1B9, offset: 0x4E1B9, size: 0x8, addend: 0x0, symName: __ZNSt3__19allocatorIfE10deallocateB8ue170006EPfm, symObjAddr: 0x12674, symBinAddr: 0x100016ABC, symSize: 0x40 }
  - { offsetInCU: 0x4E1FB, offset: 0x4E1FB, size: 0x8, addend: 0x0, symName: __ZNSt3__117__compressed_pairIPfNS_9allocatorIfEEE6secondB8ue170006Ev, symObjAddr: 0x126B4, symBinAddr: 0x100016AFC, symSize: 0x24 }
  - { offsetInCU: 0x4E221, offset: 0x4E221, size: 0x8, addend: 0x0, symName: __ZNSt3__122__compressed_pair_elemINS_9allocatorIfEELi1ELb1EE5__getB8ue170006Ev, symObjAddr: 0x126D8, symBinAddr: 0x100016B20, symSize: 0x14 }
  - { offsetInCU: 0x4E247, offset: 0x4E247, size: 0x8, addend: 0x0, symName: __ZNKSt3__16vectorIfNS_9allocatorIfEEE9__end_capB8ue170006Ev, symObjAddr: 0x126EC, symBinAddr: 0x100016B34, symSize: 0x28 }
  - { offsetInCU: 0x4E26D, offset: 0x4E26D, size: 0x8, addend: 0x0, symName: __ZNKSt3__117__compressed_pairIPfNS_9allocatorIfEEE5firstB8ue170006Ev, symObjAddr: 0x12714, symBinAddr: 0x100016B5C, symSize: 0x24 }
  - { offsetInCU: 0x4E293, offset: 0x4E293, size: 0x8, addend: 0x0, symName: __ZNKSt3__122__compressed_pair_elemIPfLi0ELb0EE5__getB8ue170006Ev, symObjAddr: 0x12738, symBinAddr: 0x100016B80, symSize: 0x14 }
  - { offsetInCU: 0x4E2B9, offset: 0x4E2B9, size: 0x8, addend: 0x0, symName: __ZN3xpf11RenderBatchD2Ev, symObjAddr: 0x1274C, symBinAddr: 0x100016B94, symSize: 0x2C }
  - { offsetInCU: 0x4E2E5, offset: 0x4E2E5, size: 0x8, addend: 0x0, symName: __ZN5MyAppC2Ev, symObjAddr: 0x12778, symBinAddr: 0x100016BC0, symSize: 0x44 }
  - { offsetInCU: 0x4E30F, offset: 0x4E30F, size: 0x8, addend: 0x0, symName: __ZN5MyAppD0Ev, symObjAddr: 0x127BC, symBinAddr: 0x100016C04, symSize: 0x30 }
  - { offsetInCU: 0x4E33C, offset: 0x4E33C, size: 0x8, addend: 0x0, symName: __ZN5MyApp9OnStartupEONSt3__16vectorIN3xpf13string_viewexENS0_9allocatorIS3_EEEE, symObjAddr: 0x127EC, symBinAddr: 0x100016C34, symSize: 0x29C }
  - { offsetInCU: 0x4E3B3, offset: 0x4E3B3, size: 0x8, addend: 0x0, symName: __ZN3xpf11Application10OnShutdownEv, symObjAddr: 0x12A88, symBinAddr: 0x100016ED0, symSize: 0x10 }
  - { offsetInCU: 0x4E3D9, offset: 0x4E3D9, size: 0x8, addend: 0x0, symName: __ZNKSt3__16vectorIN3xpf13string_viewexENS_9allocatorIS2_EEE4sizeB8ue170006Ev, symObjAddr: 0x12A98, symBinAddr: 0x100016EE0, symSize: 0x28 }
  - { offsetInCU: 0x4E3FF, offset: 0x4E3FF, size: 0x8, addend: 0x0, symName: __ZNSt3__16vectorIN3xpf13string_viewexENS_9allocatorIS2_EEEixB8ue170006Em, symObjAddr: 0x12AC0, symBinAddr: 0x100016F08, symSize: 0x24 }
  - { offsetInCU: 0x4E43D, offset: 0x4E43D, size: 0x8, addend: 0x0, symName: __ZN3xpf13WindowOptionsC1Ev, symObjAddr: 0x12AE4, symBinAddr: 0x100016F2C, symSize: 0x2C }
  - { offsetInCU: 0x4E46F, offset: 0x4E46F, size: 0x8, addend: 0x0, symName: __ZNSt3__112basic_stringIcNS_11char_traitsIcEENS_9allocatorIcEEEaSIN3xpf13string_viewexELi0EEERS5_RKT_, symObjAddr: 0x12B10, symBinAddr: 0x100016F58, symSize: 0x38 }
  - { offsetInCU: 0x4E57D, offset: 0x4E57D, size: 0x8, addend: 0x0, symName: __ZN8MyWindowC1EON3xpf13WindowOptionsE, symObjAddr: 0x12B48, symBinAddr: 0x100016F90, symSize: 0x34 }
  - { offsetInCU: 0x4E5B7, offset: 0x4E5B7, size: 0x8, addend: 0x0, symName: __ZN8MyWindowD1Ev, symObjAddr: 0x12B7C, symBinAddr: 0x100016FC4, symSize: 0x2C }
  - { offsetInCU: 0x4E5E4, offset: 0x4E5E4, size: 0x8, addend: 0x0, symName: __ZN3xpf13WindowOptionsD1Ev, symObjAddr: 0x12BA8, symBinAddr: 0x100016FF0, symSize: 0x2C }
  - { offsetInCU: 0x4E610, offset: 0x4E610, size: 0x8, addend: 0x0, symName: __ZN3xpf13WindowOptionsC2Ev, symObjAddr: 0x12BD4, symBinAddr: 0x10001701C, symSize: 0xA8 }
  - { offsetInCU: 0x4E63C, offset: 0x4E63C, size: 0x8, addend: 0x0, symName: __ZNSt3__112basic_stringIcNS_11char_traitsIcEENS_9allocatorIcEEEC1B8ue170006Ev, symObjAddr: 0x12C7C, symBinAddr: 0x1000170C4, symSize: 0x2C }
  - { offsetInCU: 0x4E666, offset: 0x4E666, size: 0x8, addend: 0x0, symName: __ZNSt3__112basic_stringIcNS_11char_traitsIcEENS_9allocatorIcEEEC2B8ue170006Ev, symObjAddr: 0x12CA8, symBinAddr: 0x1000170F0, symSize: 0x44 }
  - { offsetInCU: 0x4E690, offset: 0x4E690, size: 0x8, addend: 0x0, symName: __ZNSt3__112basic_stringIcNS_11char_traitsIcEENS_9allocatorIcEEE6assignINS_17basic_string_viewIcS2_EELi0EEERS5_RKT_, symObjAddr: 0x12CEC, symBinAddr: 0x100017134, symSize: 0x60 }
  - { offsetInCU: 0x4E6E5, offset: 0x4E6E5, size: 0x8, addend: 0x0, symName: __ZN8MyWindowC2EON3xpf13WindowOptionsE, symObjAddr: 0x12D4C, symBinAddr: 0x100017194, symSize: 0x5C }
  - { offsetInCU: 0x4E71F, offset: 0x4E71F, size: 0x8, addend: 0x0, symName: __ZN8MyWindow7OnSetupERN3xpf9IRendererE, symObjAddr: 0x12DA8, symBinAddr: 0x1000171F0, symSize: 0x1C }
  - { offsetInCU: 0x4E755, offset: 0x4E755, size: 0x8, addend: 0x0, symName: __ZN8MyWindow6OnDrawERN3xpf9IRendererE, symObjAddr: 0x12DC4, symBinAddr: 0x10001720C, symSize: 0xD0 }
  - { offsetInCU: 0x4E78B, offset: 0x4E78B, size: 0x8, addend: 0x0, symName: __ZN3xpf6Window8OnResizeEii, symObjAddr: 0x12E94, symBinAddr: 0x1000172DC, symSize: 0x18 }
  - { offsetInCU: 0x4E7C5, offset: 0x4E7C5, size: 0x8, addend: 0x0, symName: __ZN3xpf6Window8FinalizeEv, symObjAddr: 0x12EAC, symBinAddr: 0x1000172F4, symSize: 0x10 }
  - { offsetInCU: 0x4E7EB, offset: 0x4E7EB, size: 0x8, addend: 0x0, symName: __ZN3xpf4Time7GetTimeEv, symObjAddr: 0x12EBC, symBinAddr: 0x100017304, symSize: 0x10 }
  - { offsetInCU: 0x4E7FF, offset: 0x4E7FF, size: 0x8, addend: 0x0, symName: __ZN8MyWindow14draw_test_nameERN3xpf9IRendererENS0_13string_viewexE, symObjAddr: 0x12ECC, symBinAddr: 0x100017314, symSize: 0x194 }
  - { offsetInCU: 0x4E86D, offset: 0x4E86D, size: 0x8, addend: 0x0, symName: __ZN3xpf15TextDescriptionC1Ev, symObjAddr: 0x13060, symBinAddr: 0x1000174A8, symSize: 0x2C }
  - { offsetInCU: 0x4E899, offset: 0x4E899, size: 0x8, addend: 0x0, symName: __ZNSt3__112basic_stringIcNS_11char_traitsIcEENS_9allocatorIcEEEaSB8ue170006EPKc, symObjAddr: 0x1308C, symBinAddr: 0x1000174D4, symSize: 0x2C }
  - { offsetInCU: 0x4E8CF, offset: 0x4E8CF, size: 0x8, addend: 0x0, symName: __ZNK3xpf5Color10with_alphaEh, symObjAddr: 0x130B8, symBinAddr: 0x100017500, symSize: 0x40 }
  - { offsetInCU: 0x4E903, offset: 0x4E903, size: 0x8, addend: 0x0, symName: __ZN3xpf10StackGuardD1Ev, symObjAddr: 0x130F8, symBinAddr: 0x100017540, symSize: 0x2C }
  - { offsetInCU: 0x4E92D, offset: 0x4E92D, size: 0x8, addend: 0x0, symName: __ZN3xpf15TextDescriptionD1Ev, symObjAddr: 0x13124, symBinAddr: 0x10001756C, symSize: 0x2C }
  - { offsetInCU: 0x4E959, offset: 0x4E959, size: 0x8, addend: 0x0, symName: __ZN3xpf15TextDescriptionC2Ev, symObjAddr: 0x13150, symBinAddr: 0x100017598, symSize: 0x68 }
  - { offsetInCU: 0x4E985, offset: 0x4E985, size: 0x8, addend: 0x0, symName: __ZN3xpf5ColorC1Ev, symObjAddr: 0x131B8, symBinAddr: 0x100017600, symSize: 0x3C }
  - { offsetInCU: 0x4E9AF, offset: 0x4E9AF, size: 0x8, addend: 0x0, symName: __ZN3xpf10StackGuardD2Ev, symObjAddr: 0x131F4, symBinAddr: 0x10001763C, symSize: 0x3C }
  - { offsetInCU: 0x4E9D9, offset: 0x4E9D9, size: 0x8, addend: 0x0, symName: __ZNKSt3__18functionIFvvEEclEv, symObjAddr: 0x13230, symBinAddr: 0x100017678, symSize: 0x24 }
  - { offsetInCU: 0x4EA01, offset: 0x4EA01, size: 0x8, addend: 0x0, symName: __ZNSt3__18functionIFvvEED1Ev, symObjAddr: 0x13254, symBinAddr: 0x10001769C, symSize: 0x2C }
  - { offsetInCU: 0x4EA2D, offset: 0x4EA2D, size: 0x8, addend: 0x0, symName: __ZNKSt3__110__function12__value_funcIFvvEEclB8ue170006Ev, symObjAddr: 0x13280, symBinAddr: 0x1000176C8, symSize: 0x50 }
  - { offsetInCU: 0x4EA53, offset: 0x4EA53, size: 0x8, addend: 0x0, symName: __ZNSt3__18functionIFvvEED2Ev, symObjAddr: 0x132D0, symBinAddr: 0x100017718, symSize: 0x2C }
  - { offsetInCU: 0x4EA7F, offset: 0x4EA7F, size: 0x8, addend: 0x0, symName: __ZNSt3__110__function12__value_funcIFvvEED1B8ue170006Ev, symObjAddr: 0x132FC, symBinAddr: 0x100017744, symSize: 0x2C }
  - { offsetInCU: 0x4EAA9, offset: 0x4EAA9, size: 0x8, addend: 0x0, symName: __ZNSt3__110__function12__value_funcIFvvEED2B8ue170006Ev, symObjAddr: 0x13328, symBinAddr: 0x100017770, symSize: 0x90 }
  - { offsetInCU: 0x4EAD3, offset: 0x4EAD3, size: 0x8, addend: 0x0, symName: __ZN3xpf15TextDescriptionD2Ev, symObjAddr: 0x133B8, symBinAddr: 0x100017800, symSize: 0x30 }
  - { offsetInCU: 0x4EAFF, offset: 0x4EAFF, size: 0x8, addend: 0x0, symName: __ZN8MyWindowD2Ev, symObjAddr: 0x133E8, symBinAddr: 0x100017830, symSize: 0x2C }
  - { offsetInCU: 0x4EB2C, offset: 0x4EB2C, size: 0x8, addend: 0x0, symName: __ZN3xpf6WindowD2Ev, symObjAddr: 0x13414, symBinAddr: 0x10001785C, symSize: 0x4C }
  - { offsetInCU: 0x4EB58, offset: 0x4EB58, size: 0x8, addend: 0x0, symName: __ZNSt3__110unique_ptrIN3xpf9IRendererENS_14default_deleteIS2_EEED1B8ue170006Ev, symObjAddr: 0x13460, symBinAddr: 0x1000178A8, symSize: 0x2C }
  - { offsetInCU: 0x4EB82, offset: 0x4EB82, size: 0x8, addend: 0x0, symName: __ZN3xpf6Window7OnSetupERNS_9IRendererE, symObjAddr: 0x1348C, symBinAddr: 0x1000178D4, symSize: 0x1C }
  - { offsetInCU: 0x4EBB2, offset: 0x4EBB2, size: 0x8, addend: 0x0, symName: __ZN3xpf6Window6OnDrawERNS_9IRendererE, symObjAddr: 0x134A8, symBinAddr: 0x1000178F0, symSize: 0x14 }
  - { offsetInCU: 0x4EBE2, offset: 0x4EBE2, size: 0x8, addend: 0x0, symName: __ZNSt3__110unique_ptrIN3xpf9IRendererENS_14default_deleteIS2_EEED2B8ue170006Ev, symObjAddr: 0x134BC, symBinAddr: 0x100017904, symSize: 0x30 }
  - { offsetInCU: 0x4EC0C, offset: 0x4EC0C, size: 0x8, addend: 0x0, symName: __ZNSt3__110unique_ptrIN3xpf9IRendererENS_14default_deleteIS2_EEE5resetB8ue170006EPS2_, symObjAddr: 0x134EC, symBinAddr: 0x100017934, symSize: 0x78 }
  - { offsetInCU: 0x4EC52, offset: 0x4EC52, size: 0x8, addend: 0x0, symName: __ZNSt3__117__compressed_pairIPN3xpf9IRendererENS_14default_deleteIS2_EEE5firstB8ue170006Ev, symObjAddr: 0x13564, symBinAddr: 0x1000179AC, symSize: 0x24 }
  - { offsetInCU: 0x4EC78, offset: 0x4EC78, size: 0x8, addend: 0x0, symName: __ZNSt3__117__compressed_pairIPN3xpf9IRendererENS_14default_deleteIS2_EEE6secondB8ue170006Ev, symObjAddr: 0x13588, symBinAddr: 0x1000179D0, symSize: 0x24 }
  - { offsetInCU: 0x4EC9E, offset: 0x4EC9E, size: 0x8, addend: 0x0, symName: __ZNKSt3__114default_deleteIN3xpf9IRendererEEclB8ue170006EPS2_, symObjAddr: 0x135AC, symBinAddr: 0x1000179F4, symSize: 0x4C }
  - { offsetInCU: 0x4ECD2, offset: 0x4ECD2, size: 0x8, addend: 0x0, symName: __ZNSt3__122__compressed_pair_elemIPN3xpf9IRendererELi0ELb0EE5__getB8ue170006Ev, symObjAddr: 0x135F8, symBinAddr: 0x100017A40, symSize: 0x14 }
  - { offsetInCU: 0x4ECF8, offset: 0x4ECF8, size: 0x8, addend: 0x0, symName: __ZNSt3__122__compressed_pair_elemINS_14default_deleteIN3xpf9IRendererEEELi1ELb1EE5__getB8ue170006Ev, symObjAddr: 0x1360C, symBinAddr: 0x100017A54, symSize: 0x14 }
  - { offsetInCU: 0x4ED1E, offset: 0x4ED1E, size: 0x8, addend: 0x0, symName: __ZN3xpf13WindowOptionsD2Ev, symObjAddr: 0x13620, symBinAddr: 0x100017A68, symSize: 0x30 }
  - { offsetInCU: 0x4ED4A, offset: 0x4ED4A, size: 0x8, addend: 0x0, symName: __ZN5MyAppD2Ev, symObjAddr: 0x13650, symBinAddr: 0x100017A98, symSize: 0x2C }
  - { offsetInCU: 0x4ED77, offset: 0x4ED77, size: 0x8, addend: 0x0, symName: __ZNSt3__18functionIFN3xpf5ImageENS_17basic_string_viewIcNS_11char_traitsIcEEEEONS_6vectorIhNS_9allocatorIhEEEEEEC2B8ue170006Ev, symObjAddr: 0x1367C, symBinAddr: 0x100017AC4, symSize: 0x2C }
  - { offsetInCU: 0x4EDA1, offset: 0x4EDA1, size: 0x8, addend: 0x0, symName: __ZNSt3__110__function12__value_funcIFN3xpf5ImageENS_17basic_string_viewIcNS_11char_traitsIcEEEEONS_6vectorIhNS_9allocatorIhEEEEEEC1B8ue170006Ev, symObjAddr: 0x136A8, symBinAddr: 0x100017AF0, symSize: 0x2C }
  - { offsetInCU: 0x4EDCB, offset: 0x4EDCB, size: 0x8, addend: 0x0, symName: __ZNSt3__110__function12__value_funcIFN3xpf5ImageENS_17basic_string_viewIcNS_11char_traitsIcEEEEONS_6vectorIhNS_9allocatorIhEEEEEEC2B8ue170006Ev, symObjAddr: 0x136D4, symBinAddr: 0x100017B1C, symSize: 0x18 }
  - { offsetInCU: 0x4EDF5, offset: 0x4EDF5, size: 0x8, addend: 0x0, symName: __ZNSt3__18functionIFN3xpf5ImageENS_17basic_string_viewIcNS_11char_traitsIcEEEEONS_6vectorIhNS_9allocatorIhEEEEEED2Ev, symObjAddr: 0x136EC, symBinAddr: 0x100017B34, symSize: 0x2C }
  - { offsetInCU: 0x4EE21, offset: 0x4EE21, size: 0x8, addend: 0x0, symName: __ZNSt3__110__function12__value_funcIFN3xpf5ImageENS_17basic_string_viewIcNS_11char_traitsIcEEEEONS_6vectorIhNS_9allocatorIhEEEEEED1B8ue170006Ev, symObjAddr: 0x13718, symBinAddr: 0x100017B60, symSize: 0x2C }
  - { offsetInCU: 0x4EE4B, offset: 0x4EE4B, size: 0x8, addend: 0x0, symName: __ZNSt3__110__function12__value_funcIFN3xpf5ImageENS_17basic_string_viewIcNS_11char_traitsIcEEEEONS_6vectorIhNS_9allocatorIhEEEEEED2B8ue170006Ev, symObjAddr: 0x13744, symBinAddr: 0x100017B8C, symSize: 0x90 }
  - { offsetInCU: 0x4EE75, offset: 0x4EE75, size: 0x8, addend: 0x0, symName: __ZNSt3__113unordered_setIPN3xpf9TweenBaseENS_4hashIS3_EENS_8equal_toIS3_EENS_9allocatorIS3_EEEC2B8ue170006Ev, symObjAddr: 0x137D4, symBinAddr: 0x100017C1C, symSize: 0x2C }
  - { offsetInCU: 0x4EE9F, offset: 0x4EE9F, size: 0x8, addend: 0x0, symName: __ZNSt3__112__hash_tableIPN3xpf9TweenBaseENS_4hashIS3_EENS_8equal_toIS3_EENS_9allocatorIS3_EEEC1Ev, symObjAddr: 0x13800, symBinAddr: 0x100017C48, symSize: 0x2C }
  - { offsetInCU: 0x4EECB, offset: 0x4EECB, size: 0x8, addend: 0x0, symName: __ZNSt3__112__hash_tableIPN3xpf9TweenBaseENS_4hashIS3_EENS_8equal_toIS3_EENS_9allocatorIS3_EEEC2Ev, symObjAddr: 0x1382C, symBinAddr: 0x100017C74, symSize: 0x7C }
  - { offsetInCU: 0x4EEF7, offset: 0x4EEF7, size: 0x8, addend: 0x0, symName: __ZNSt3__110unique_ptrIA_PNS_16__hash_node_baseIPNS_11__hash_nodeIPN3xpf9TweenBaseEPvEEEENS_25__bucket_list_deallocatorINS_9allocatorISA_EEEEEC1B8ue170006ILb1EvEEv, symObjAddr: 0x138A8, symBinAddr: 0x100017CF0, symSize: 0x2C }
  - { offsetInCU: 0x4EF2C, offset: 0x4EF2C, size: 0x8, addend: 0x0, symName: __ZNSt3__117__compressed_pairINS_16__hash_node_baseIPNS_11__hash_nodeIPN3xpf9TweenBaseEPvEEEENS_9allocatorIS7_EEEC1B8ue170006ILb1EvEEv, symObjAddr: 0x138D4, symBinAddr: 0x100017D1C, symSize: 0x2C }
  - { offsetInCU: 0x4EF67, offset: 0x4EF67, size: 0x8, addend: 0x0, symName: __ZNSt3__117__compressed_pairImNS_4hashIPN3xpf9TweenBaseEEEEC1B8ue170006IiNS_18__default_init_tagEEEOT_OT0_, symObjAddr: 0x13900, symBinAddr: 0x100017D48, symSize: 0x3C }
  - { offsetInCU: 0x4EFBF, offset: 0x4EFBF, size: 0x8, addend: 0x0, symName: __ZNSt3__117__compressed_pairIfNS_8equal_toIPN3xpf9TweenBaseEEEEC1B8ue170006IfNS_18__default_init_tagEEEOT_OT0_, symObjAddr: 0x1393C, symBinAddr: 0x100017D84, symSize: 0x3C }
  - { offsetInCU: 0x4F017, offset: 0x4F017, size: 0x8, addend: 0x0, symName: __ZNSt3__110unique_ptrIA_PNS_16__hash_node_baseIPNS_11__hash_nodeIPN3xpf9TweenBaseEPvEEEENS_25__bucket_list_deallocatorINS_9allocatorISA_EEEEEC2B8ue170006ILb1EvEEv, symObjAddr: 0x13978, symBinAddr: 0x100017DC0, symSize: 0x3C }
  - { offsetInCU: 0x4F052, offset: 0x4F052, size: 0x8, addend: 0x0, symName: __ZNSt3__117__compressed_pairIPPNS_16__hash_node_baseIPNS_11__hash_nodeIPN3xpf9TweenBaseEPvEEEENS_25__bucket_list_deallocatorINS_9allocatorISA_EEEEEC1B8ue170006INS_16__value_init_tagESI_EEOT_OT0_, symObjAddr: 0x139B4, symBinAddr: 0x100017DFC, symSize: 0x3C }
  - { offsetInCU: 0x4F0AA, offset: 0x4F0AA, size: 0x8, addend: 0x0, symName: __ZNSt3__117__compressed_pairIPPNS_16__hash_node_baseIPNS_11__hash_nodeIPN3xpf9TweenBaseEPvEEEENS_25__bucket_list_deallocatorINS_9allocatorISA_EEEEEC2B8ue170006INS_16__value_init_tagESI_EEOT_OT0_, symObjAddr: 0x139F0, symBinAddr: 0x100017E38, symSize: 0x40 }
  - { offsetInCU: 0x4F102, offset: 0x4F102, size: 0x8, addend: 0x0, symName: __ZNSt3__122__compressed_pair_elemIPPNS_16__hash_node_baseIPNS_11__hash_nodeIPN3xpf9TweenBaseEPvEEEELi0ELb0EEC2B8ue170006ENS_16__value_init_tagE, symObjAddr: 0x13A30, symBinAddr: 0x100017E78, symSize: 0x18 }
  - { offsetInCU: 0x4F136, offset: 0x4F136, size: 0x8, addend: 0x0, symName: __ZNSt3__122__compressed_pair_elemINS_25__bucket_list_deallocatorINS_9allocatorIPNS_16__hash_node_baseIPNS_11__hash_nodeIPN3xpf9TweenBaseEPvEEEEEEEELi1ELb0EEC2B8ue170006ENS_16__value_init_tagE, symObjAddr: 0x13A48, symBinAddr: 0x100017E90, symSize: 0x2C }
  - { offsetInCU: 0x4F16A, offset: 0x4F16A, size: 0x8, addend: 0x0, symName: __ZNSt3__125__bucket_list_deallocatorINS_9allocatorIPNS_16__hash_node_baseIPNS_11__hash_nodeIPN3xpf9TweenBaseEPvEEEEEEEC1B8ue170006Ev, symObjAddr: 0x13A74, symBinAddr: 0x100017EBC, symSize: 0x2C }
  - { offsetInCU: 0x4F194, offset: 0x4F194, size: 0x8, addend: 0x0, symName: __ZNSt3__125__bucket_list_deallocatorINS_9allocatorIPNS_16__hash_node_baseIPNS_11__hash_nodeIPN3xpf9TweenBaseEPvEEEEEEEC2B8ue170006Ev, symObjAddr: 0x13AA0, symBinAddr: 0x100017EE8, symSize: 0x40 }
  - { offsetInCU: 0x4F1BE, offset: 0x4F1BE, size: 0x8, addend: 0x0, symName: __ZNSt3__117__compressed_pairImNS_9allocatorIPNS_16__hash_node_baseIPNS_11__hash_nodeIPN3xpf9TweenBaseEPvEEEEEEEC1B8ue170006IiNS_18__default_init_tagEEEOT_OT0_, symObjAddr: 0x13AE0, symBinAddr: 0x100017F28, symSize: 0x3C }
  - { offsetInCU: 0x4F216, offset: 0x4F216, size: 0x8, addend: 0x0, symName: __ZNSt3__117__compressed_pairImNS_9allocatorIPNS_16__hash_node_baseIPNS_11__hash_nodeIPN3xpf9TweenBaseEPvEEEEEEEC2B8ue170006IiNS_18__default_init_tagEEEOT_OT0_, symObjAddr: 0x13B1C, symBinAddr: 0x100017F64, symSize: 0x40 }
  - { offsetInCU: 0x4F26E, offset: 0x4F26E, size: 0x8, addend: 0x0, symName: __ZNSt3__122__compressed_pair_elemImLi0ELb0EEC2B8ue170006IivEEOT_, symObjAddr: 0x13B5C, symBinAddr: 0x100017FA4, symSize: 0x24 }
  - { offsetInCU: 0x4F2B0, offset: 0x4F2B0, size: 0x8, addend: 0x0, symName: __ZNSt3__122__compressed_pair_elemINS_9allocatorIPNS_16__hash_node_baseIPNS_11__hash_nodeIPN3xpf9TweenBaseEPvEEEEEELi1ELb1EEC2B8ue170006ENS_18__default_init_tagE, symObjAddr: 0x13B80, symBinAddr: 0x100017FC8, symSize: 0x2C }
  - { offsetInCU: 0x4F2E4, offset: 0x4F2E4, size: 0x8, addend: 0x0, symName: __ZNSt3__19allocatorIPNS_16__hash_node_baseIPNS_11__hash_nodeIPN3xpf9TweenBaseEPvEEEEEC2B8ue170006Ev, symObjAddr: 0x13BAC, symBinAddr: 0x100017FF4, symSize: 0x2C }
  - { offsetInCU: 0x4F30E, offset: 0x4F30E, size: 0x8, addend: 0x0, symName: __ZNSt3__116__non_trivial_ifILb1ENS_9allocatorIPNS_16__hash_node_baseIPNS_11__hash_nodeIPN3xpf9TweenBaseEPvEEEEEEEC2B8ue170006Ev, symObjAddr: 0x13BD8, symBinAddr: 0x100018020, symSize: 0x14 }
  - { offsetInCU: 0x4F338, offset: 0x4F338, size: 0x8, addend: 0x0, symName: __ZNSt3__117__compressed_pairINS_16__hash_node_baseIPNS_11__hash_nodeIPN3xpf9TweenBaseEPvEEEENS_9allocatorIS7_EEEC2B8ue170006ILb1EvEEv, symObjAddr: 0x13BEC, symBinAddr: 0x100018034, symSize: 0x34 }
  - { offsetInCU: 0x4F36D, offset: 0x4F36D, size: 0x8, addend: 0x0, symName: __ZNSt3__122__compressed_pair_elemINS_16__hash_node_baseIPNS_11__hash_nodeIPN3xpf9TweenBaseEPvEEEELi0ELb0EEC2B8ue170006ENS_16__value_init_tagE, symObjAddr: 0x13C20, symBinAddr: 0x100018068, symSize: 0x2C }
  - { offsetInCU: 0x4F3A1, offset: 0x4F3A1, size: 0x8, addend: 0x0, symName: __ZNSt3__122__compressed_pair_elemINS_9allocatorINS_11__hash_nodeIPN3xpf9TweenBaseEPvEEEELi1ELb1EEC2B8ue170006ENS_16__value_init_tagE, symObjAddr: 0x13C4C, symBinAddr: 0x100018094, symSize: 0x2C }
  - { offsetInCU: 0x4F3D5, offset: 0x4F3D5, size: 0x8, addend: 0x0, symName: __ZNSt3__116__hash_node_baseIPNS_11__hash_nodeIPN3xpf9TweenBaseEPvEEEC1B8ue170006Ev, symObjAddr: 0x13C78, symBinAddr: 0x1000180C0, symSize: 0x2C }
  - { offsetInCU: 0x4F3FF, offset: 0x4F3FF, size: 0x8, addend: 0x0, symName: __ZNSt3__116__hash_node_baseIPNS_11__hash_nodeIPN3xpf9TweenBaseEPvEEEC2B8ue170006Ev, symObjAddr: 0x13CA4, symBinAddr: 0x1000180EC, symSize: 0x18 }
  - { offsetInCU: 0x4F429, offset: 0x4F429, size: 0x8, addend: 0x0, symName: __ZNSt3__19allocatorINS_11__hash_nodeIPN3xpf9TweenBaseEPvEEEC2B8ue170006Ev, symObjAddr: 0x13CBC, symBinAddr: 0x100018104, symSize: 0x2C }
  - { offsetInCU: 0x4F453, offset: 0x4F453, size: 0x8, addend: 0x0, symName: __ZNSt3__116__non_trivial_ifILb1ENS_9allocatorINS_11__hash_nodeIPN3xpf9TweenBaseEPvEEEEEC2B8ue170006Ev, symObjAddr: 0x13CE8, symBinAddr: 0x100018130, symSize: 0x14 }
  - { offsetInCU: 0x4F47D, offset: 0x4F47D, size: 0x8, addend: 0x0, symName: __ZNSt3__117__compressed_pairImNS_4hashIPN3xpf9TweenBaseEEEEC2B8ue170006IiNS_18__default_init_tagEEEOT_OT0_, symObjAddr: 0x13CFC, symBinAddr: 0x100018144, symSize: 0x40 }
  - { offsetInCU: 0x4F4D5, offset: 0x4F4D5, size: 0x8, addend: 0x0, symName: __ZNSt3__122__compressed_pair_elemINS_4hashIPN3xpf9TweenBaseEEELi1ELb1EEC2B8ue170006ENS_18__default_init_tagE, symObjAddr: 0x13D3C, symBinAddr: 0x100018184, symSize: 0x14 }
  - { offsetInCU: 0x4F509, offset: 0x4F509, size: 0x8, addend: 0x0, symName: __ZNSt3__117__compressed_pairIfNS_8equal_toIPN3xpf9TweenBaseEEEEC2B8ue170006IfNS_18__default_init_tagEEEOT_OT0_, symObjAddr: 0x13D50, symBinAddr: 0x100018198, symSize: 0x40 }
  - { offsetInCU: 0x4F561, offset: 0x4F561, size: 0x8, addend: 0x0, symName: __ZNSt3__122__compressed_pair_elemIfLi0ELb0EEC2B8ue170006IfvEEOT_, symObjAddr: 0x13D90, symBinAddr: 0x1000181D8, symSize: 0x24 }
  - { offsetInCU: 0x4F5A3, offset: 0x4F5A3, size: 0x8, addend: 0x0, symName: __ZNSt3__122__compressed_pair_elemINS_8equal_toIPN3xpf9TweenBaseEEELi1ELb1EEC2B8ue170006ENS_18__default_init_tagE, symObjAddr: 0x13DB4, symBinAddr: 0x1000181FC, symSize: 0x14 }
  - { offsetInCU: 0x4F5D7, offset: 0x4F5D7, size: 0x8, addend: 0x0, symName: __ZNSt3__113unordered_setIPN3xpf9TweenBaseENS_4hashIS3_EENS_8equal_toIS3_EENS_9allocatorIS3_EEED2B8ue170006Ev, symObjAddr: 0x13DC8, symBinAddr: 0x100018210, symSize: 0x2C }
  - { offsetInCU: 0x4F601, offset: 0x4F601, size: 0x8, addend: 0x0, symName: __ZNSt3__112__hash_tableIPN3xpf9TweenBaseENS_4hashIS3_EENS_8equal_toIS3_EENS_9allocatorIS3_EEED1Ev, symObjAddr: 0x13DF4, symBinAddr: 0x10001823C, symSize: 0x2C }
  - { offsetInCU: 0x4F62D, offset: 0x4F62D, size: 0x8, addend: 0x0, symName: __ZNSt3__112__hash_tableIPN3xpf9TweenBaseENS_4hashIS3_EENS_8equal_toIS3_EENS_9allocatorIS3_EEED2Ev, symObjAddr: 0x13E20, symBinAddr: 0x100018268, symSize: 0x48 }
  - { offsetInCU: 0x4F659, offset: 0x4F659, size: 0x8, addend: 0x0, symName: __ZNSt3__112__hash_tableIPN3xpf9TweenBaseENS_4hashIS3_EENS_8equal_toIS3_EENS_9allocatorIS3_EEE17__deallocate_nodeEPNS_16__hash_node_baseIPNS_11__hash_nodeIS3_PvEEEE, symObjAddr: 0x13E68, symBinAddr: 0x1000182B0, symSize: 0xA8 }
  - { offsetInCU: 0x4F6C8, offset: 0x4F6C8, size: 0x8, addend: 0x0, symName: __ZNSt3__117__compressed_pairINS_16__hash_node_baseIPNS_11__hash_nodeIPN3xpf9TweenBaseEPvEEEENS_9allocatorIS7_EEE5firstB8ue170006Ev, symObjAddr: 0x13F10, symBinAddr: 0x100018358, symSize: 0x24 }
  - { offsetInCU: 0x4F6EE, offset: 0x4F6EE, size: 0x8, addend: 0x0, symName: __ZNSt3__110unique_ptrIA_PNS_16__hash_node_baseIPNS_11__hash_nodeIPN3xpf9TweenBaseEPvEEEENS_25__bucket_list_deallocatorINS_9allocatorISA_EEEEED1B8ue170006Ev, symObjAddr: 0x13F34, symBinAddr: 0x10001837C, symSize: 0x2C }
  - { offsetInCU: 0x4F718, offset: 0x4F718, size: 0x8, addend: 0x0, symName: __ZNSt3__112__hash_tableIPN3xpf9TweenBaseENS_4hashIS3_EENS_8equal_toIS3_EENS_9allocatorIS3_EEE12__node_allocB8ue170006Ev, symObjAddr: 0x13F60, symBinAddr: 0x1000183A8, symSize: 0x28 }
  - { offsetInCU: 0x4F73E, offset: 0x4F73E, size: 0x8, addend: 0x0, symName: __ZNSt3__116__hash_node_baseIPNS_11__hash_nodeIPN3xpf9TweenBaseEPvEEE8__upcastB8ue170006Ev, symObjAddr: 0x13F88, symBinAddr: 0x1000183D0, symSize: 0x24 }
  - { offsetInCU: 0x4F764, offset: 0x4F764, size: 0x8, addend: 0x0, symName: __ZNSt3__116allocator_traitsINS_9allocatorINS_11__hash_nodeIPN3xpf9TweenBaseEPvEEEEE7destroyB8ue170006IS5_vvEEvRS8_PT_, symObjAddr: 0x13FAC, symBinAddr: 0x1000183F4, symSize: 0x28 }
  - { offsetInCU: 0x4F7A0, offset: 0x4F7A0, size: 0x8, addend: 0x0, symName: __ZNSt3__122__hash_key_value_typesIPN3xpf9TweenBaseEE9__get_ptrB8ue170006ERS3_, symObjAddr: 0x13FD4, symBinAddr: 0x10001841C, symSize: 0x14 }
  - { offsetInCU: 0x4F7C3, offset: 0x4F7C3, size: 0x8, addend: 0x0, symName: __ZNSt3__116allocator_traitsINS_9allocatorINS_11__hash_nodeIPN3xpf9TweenBaseEPvEEEEE10deallocateB8ue170006ERS8_PS7_m, symObjAddr: 0x13FE8, symBinAddr: 0x100018430, symSize: 0x34 }
  - { offsetInCU: 0x4F808, offset: 0x4F808, size: 0x8, addend: 0x0, symName: __ZNSt3__117__compressed_pairINS_16__hash_node_baseIPNS_11__hash_nodeIPN3xpf9TweenBaseEPvEEEENS_9allocatorIS7_EEE6secondB8ue170006Ev, symObjAddr: 0x1401C, symBinAddr: 0x100018464, symSize: 0x24 }
  - { offsetInCU: 0x4F82E, offset: 0x4F82E, size: 0x8, addend: 0x0, symName: __ZNSt3__122__compressed_pair_elemINS_9allocatorINS_11__hash_nodeIPN3xpf9TweenBaseEPvEEEELi1ELb1EE5__getB8ue170006Ev, symObjAddr: 0x14040, symBinAddr: 0x100018488, symSize: 0x14 }
  - { offsetInCU: 0x4F854, offset: 0x4F854, size: 0x8, addend: 0x0, symName: __ZNSt3__114pointer_traitsIPNS_16__hash_node_baseIPNS_11__hash_nodeIPN3xpf9TweenBaseEPvEEEEE10pointer_toB8ue170006ERS9_, symObjAddr: 0x14054, symBinAddr: 0x10001849C, symSize: 0x14 }
  - { offsetInCU: 0x4F877, offset: 0x4F877, size: 0x8, addend: 0x0, symName: __ZNSt3__19allocatorINS_11__hash_nodeIPN3xpf9TweenBaseEPvEEE10deallocateB8ue170006EPS6_m, symObjAddr: 0x1409C, symBinAddr: 0x1000184E4, symSize: 0x44 }
  - { offsetInCU: 0x4F8B9, offset: 0x4F8B9, size: 0x8, addend: 0x0, symName: __ZNSt3__122__compressed_pair_elemINS_16__hash_node_baseIPNS_11__hash_nodeIPN3xpf9TweenBaseEPvEEEELi0ELb0EE5__getB8ue170006Ev, symObjAddr: 0x140E0, symBinAddr: 0x100018528, symSize: 0x14 }
  - { offsetInCU: 0x4F8DF, offset: 0x4F8DF, size: 0x8, addend: 0x0, symName: __ZNSt3__110unique_ptrIA_PNS_16__hash_node_baseIPNS_11__hash_nodeIPN3xpf9TweenBaseEPvEEEENS_25__bucket_list_deallocatorINS_9allocatorISA_EEEEED2B8ue170006Ev, symObjAddr: 0x140F4, symBinAddr: 0x10001853C, symSize: 0x30 }
  - { offsetInCU: 0x4F909, offset: 0x4F909, size: 0x8, addend: 0x0, symName: __ZNSt3__110unique_ptrIA_PNS_16__hash_node_baseIPNS_11__hash_nodeIPN3xpf9TweenBaseEPvEEEENS_25__bucket_list_deallocatorINS_9allocatorISA_EEEEE5resetB8ue170006EDn, symObjAddr: 0x14124, symBinAddr: 0x10001856C, symSize: 0x6C }
  - { offsetInCU: 0x4F94B, offset: 0x4F94B, size: 0x8, addend: 0x0, symName: __ZNSt3__117__compressed_pairIPPNS_16__hash_node_baseIPNS_11__hash_nodeIPN3xpf9TweenBaseEPvEEEENS_25__bucket_list_deallocatorINS_9allocatorISA_EEEEE5firstB8ue170006Ev, symObjAddr: 0x14190, symBinAddr: 0x1000185D8, symSize: 0x24 }
  - { offsetInCU: 0x4F971, offset: 0x4F971, size: 0x8, addend: 0x0, symName: __ZNSt3__117__compressed_pairIPPNS_16__hash_node_baseIPNS_11__hash_nodeIPN3xpf9TweenBaseEPvEEEENS_25__bucket_list_deallocatorINS_9allocatorISA_EEEEE6secondB8ue170006Ev, symObjAddr: 0x141B4, symBinAddr: 0x1000185FC, symSize: 0x28 }
  - { offsetInCU: 0x4F997, offset: 0x4F997, size: 0x8, addend: 0x0, symName: __ZNSt3__125__bucket_list_deallocatorINS_9allocatorIPNS_16__hash_node_baseIPNS_11__hash_nodeIPN3xpf9TweenBaseEPvEEEEEEEclB8ue170006EPSB_, symObjAddr: 0x141DC, symBinAddr: 0x100018624, symSize: 0x58 }
  - { offsetInCU: 0x4F9CD, offset: 0x4F9CD, size: 0x8, addend: 0x0, symName: __ZNSt3__122__compressed_pair_elemIPPNS_16__hash_node_baseIPNS_11__hash_nodeIPN3xpf9TweenBaseEPvEEEELi0ELb0EE5__getB8ue170006Ev, symObjAddr: 0x14234, symBinAddr: 0x10001867C, symSize: 0x14 }
  - { offsetInCU: 0x4F9F3, offset: 0x4F9F3, size: 0x8, addend: 0x0, symName: __ZNSt3__122__compressed_pair_elemINS_25__bucket_list_deallocatorINS_9allocatorIPNS_16__hash_node_baseIPNS_11__hash_nodeIPN3xpf9TweenBaseEPvEEEEEEEELi1ELb0EE5__getB8ue170006Ev, symObjAddr: 0x14248, symBinAddr: 0x100018690, symSize: 0x14 }
  - { offsetInCU: 0x4FA19, offset: 0x4FA19, size: 0x8, addend: 0x0, symName: __ZNSt3__116allocator_traitsINS_9allocatorIPNS_16__hash_node_baseIPNS_11__hash_nodeIPN3xpf9TweenBaseEPvEEEEEEE10deallocateB8ue170006ERSC_PSB_m, symObjAddr: 0x1425C, symBinAddr: 0x1000186A4, symSize: 0x34 }
  - { offsetInCU: 0x4FA5E, offset: 0x4FA5E, size: 0x8, addend: 0x0, symName: __ZNSt3__125__bucket_list_deallocatorINS_9allocatorIPNS_16__hash_node_baseIPNS_11__hash_nodeIPN3xpf9TweenBaseEPvEEEEEEE7__allocB8ue170006Ev, symObjAddr: 0x14290, symBinAddr: 0x1000186D8, symSize: 0x24 }
  - { offsetInCU: 0x4FA84, offset: 0x4FA84, size: 0x8, addend: 0x0, symName: __ZNSt3__125__bucket_list_deallocatorINS_9allocatorIPNS_16__hash_node_baseIPNS_11__hash_nodeIPN3xpf9TweenBaseEPvEEEEEEE4sizeB8ue170006Ev, symObjAddr: 0x142B4, symBinAddr: 0x1000186FC, symSize: 0x24 }
  - { offsetInCU: 0x4FAAA, offset: 0x4FAAA, size: 0x8, addend: 0x0, symName: __ZNSt3__19allocatorIPNS_16__hash_node_baseIPNS_11__hash_nodeIPN3xpf9TweenBaseEPvEEEEE10deallocateB8ue170006EPSA_m, symObjAddr: 0x142D8, symBinAddr: 0x100018720, symSize: 0x40 }
  - { offsetInCU: 0x4FAEC, offset: 0x4FAEC, size: 0x8, addend: 0x0, symName: __ZNSt3__117__compressed_pairImNS_9allocatorIPNS_16__hash_node_baseIPNS_11__hash_nodeIPN3xpf9TweenBaseEPvEEEEEEE6secondB8ue170006Ev, symObjAddr: 0x14318, symBinAddr: 0x100018760, symSize: 0x24 }
  - { offsetInCU: 0x4FB12, offset: 0x4FB12, size: 0x8, addend: 0x0, symName: __ZNSt3__122__compressed_pair_elemINS_9allocatorIPNS_16__hash_node_baseIPNS_11__hash_nodeIPN3xpf9TweenBaseEPvEEEEEELi1ELb1EE5__getB8ue170006Ev, symObjAddr: 0x1433C, symBinAddr: 0x100018784, symSize: 0x14 }
  - { offsetInCU: 0x4FB38, offset: 0x4FB38, size: 0x8, addend: 0x0, symName: __ZNSt3__117__compressed_pairImNS_9allocatorIPNS_16__hash_node_baseIPNS_11__hash_nodeIPN3xpf9TweenBaseEPvEEEEEEE5firstB8ue170006Ev, symObjAddr: 0x14350, symBinAddr: 0x100018798, symSize: 0x24 }
  - { offsetInCU: 0x4FB5E, offset: 0x4FB5E, size: 0x8, addend: 0x0, symName: __ZNSt3__122__compressed_pair_elemImLi0ELb0EE5__getB8ue170006Ev, symObjAddr: 0x14374, symBinAddr: 0x1000187BC, symSize: 0x14 }
  - { offsetInCU: 0x4FB84, offset: 0x4FB84, size: 0x8, addend: 0x0, symName: __ZNSt3__18functionIFNS_10shared_ptrIN3xpf8ITextureEEEONS_6vectorIhNS_9allocatorIhEEEEjjNS2_11PixelFormatEtEEC2B8ue170006Ev, symObjAddr: 0x14388, symBinAddr: 0x1000187D0, symSize: 0x2C }
  - { offsetInCU: 0x4FBAE, offset: 0x4FBAE, size: 0x8, addend: 0x0, symName: __ZNSt3__110__function12__value_funcIFNS_10shared_ptrIN3xpf8ITextureEEEONS_6vectorIhNS_9allocatorIhEEEEjjNS3_11PixelFormatEtEEC1B8ue170006Ev, symObjAddr: 0x143B4, symBinAddr: 0x1000187FC, symSize: 0x2C }
  - { offsetInCU: 0x4FBD8, offset: 0x4FBD8, size: 0x8, addend: 0x0, symName: __ZNSt3__110__function12__value_funcIFNS_10shared_ptrIN3xpf8ITextureEEEONS_6vectorIhNS_9allocatorIhEEEEjjNS3_11PixelFormatEtEEC2B8ue170006Ev, symObjAddr: 0x143E0, symBinAddr: 0x100018828, symSize: 0x18 }
  - { offsetInCU: 0x4FC02, offset: 0x4FC02, size: 0x8, addend: 0x0, symName: __ZNSt3__18functionIFNS_10shared_ptrIN3xpf8ITextureEEEONS_6vectorIhNS_9allocatorIhEEEEjjNS2_11PixelFormatEtEED2Ev, symObjAddr: 0x143F8, symBinAddr: 0x100018840, symSize: 0x2C }
  - { offsetInCU: 0x4FC2E, offset: 0x4FC2E, size: 0x8, addend: 0x0, symName: __ZNSt3__110__function12__value_funcIFNS_10shared_ptrIN3xpf8ITextureEEEONS_6vectorIhNS_9allocatorIhEEEEjjNS3_11PixelFormatEtEED1B8ue170006Ev, symObjAddr: 0x14424, symBinAddr: 0x10001886C, symSize: 0x2C }
  - { offsetInCU: 0x4FC58, offset: 0x4FC58, size: 0x8, addend: 0x0, symName: __ZNSt3__110__function12__value_funcIFNS_10shared_ptrIN3xpf8ITextureEEEONS_6vectorIhNS_9allocatorIhEEEEjjNS3_11PixelFormatEtEED2B8ue170006Ev, symObjAddr: 0x14450, symBinAddr: 0x100018898, symSize: 0x90 }
  - { offsetInCU: 0x4FC82, offset: 0x4FC82, size: 0x8, addend: 0x0, symName: __ZNSt3__124uniform_int_distributionIjEC2B8ue170006Ejj, symObjAddr: 0x144E0, symBinAddr: 0x100018928, symSize: 0x3C }
  - { offsetInCU: 0x4FCC8, offset: 0x4FCC8, size: 0x8, addend: 0x0, symName: __ZNSt3__124uniform_int_distributionIjE10param_typeC1B8ue170006Ejj, symObjAddr: 0x1451C, symBinAddr: 0x100018964, symSize: 0x3C }
  - { offsetInCU: 0x4FD0E, offset: 0x4FD0E, size: 0x8, addend: 0x0, symName: __ZNSt3__124uniform_int_distributionIjE10param_typeC2B8ue170006Ejj, symObjAddr: 0x14558, symBinAddr: 0x1000189A0, symSize: 0x2C }
  - { offsetInCU: 0x4FD54, offset: 0x4FD54, size: 0x8, addend: 0x0, symName: __ZNSt3__123mersenne_twister_engineIjLm32ELm624ELm397ELm31ELj2567483615ELm11ELj4294967295ELm7ELj2636928640ELm15ELj4022730752ELm18ELj1812433253EEC1B8ue170006Ej, symObjAddr: 0x14584, symBinAddr: 0x1000189CC, symSize: 0x34 }
  - { offsetInCU: 0x4FD8C, offset: 0x4FD8C, size: 0x8, addend: 0x0, symName: __ZNSt3__123mersenne_twister_engineIjLm32ELm624ELm397ELm31ELj2567483615ELm11ELj4294967295ELm7ELj2636928640ELm15ELj4022730752ELm18ELj1812433253EEC2B8ue170006Ej, symObjAddr: 0x145B8, symBinAddr: 0x100018A00, symSize: 0x34 }
  - { offsetInCU: 0x4FDC4, offset: 0x4FDC4, size: 0x8, addend: 0x0, symName: __ZNSt3__123mersenne_twister_engineIjLm32ELm624ELm397ELm31ELj2567483615ELm11ELj4294967295ELm7ELj2636928640ELm15ELj4022730752ELm18ELj1812433253EE4seedEj, symObjAddr: 0x145EC, symBinAddr: 0x100018A34, symSize: 0xC4 }
  - { offsetInCU: 0x4FE18, offset: 0x4FE18, size: 0x8, addend: 0x0, symName: __ZNSt3__123mersenne_twister_engineIjLm32ELm624ELm397ELm31ELj2567483615ELm11ELj4294967295ELm7ELj2636928640ELm15ELj4022730752ELm18ELj1812433253EE8__rshiftB8ue170006ILm30EEENS_9enable_ifIXltT_L_ZNS1_3_DtEEEjE4typeEj, symObjAddr: 0x146B0, symBinAddr: 0x100018AF8, symSize: 0x18 }
  - { offsetInCU: 0x4FE45, offset: 0x4FE45, size: 0x8, addend: 0x0, symName: __ZNSt3__18functionIFNS_6vectorIhNS_9allocatorIhEEEENS_17basic_string_viewIcNS_11char_traitsIcEEEEEEC2B8ue170006Ev, symObjAddr: 0x146C8, symBinAddr: 0x100018B10, symSize: 0x2C }
  - { offsetInCU: 0x4FE6F, offset: 0x4FE6F, size: 0x8, addend: 0x0, symName: __ZNSt3__110__function12__value_funcIFNS_6vectorIhNS_9allocatorIhEEEENS_17basic_string_viewIcNS_11char_traitsIcEEEEEEC1B8ue170006Ev, symObjAddr: 0x146F4, symBinAddr: 0x100018B3C, symSize: 0x2C }
  - { offsetInCU: 0x4FE99, offset: 0x4FE99, size: 0x8, addend: 0x0, symName: __ZNSt3__110__function12__value_funcIFNS_6vectorIhNS_9allocatorIhEEEENS_17basic_string_viewIcNS_11char_traitsIcEEEEEEC2B8ue170006Ev, symObjAddr: 0x14720, symBinAddr: 0x100018B68, symSize: 0x18 }
  - { offsetInCU: 0x4FEC3, offset: 0x4FEC3, size: 0x8, addend: 0x0, symName: __ZNSt3__18functionIFNS_6vectorIhNS_9allocatorIhEEEENS_17basic_string_viewIcNS_11char_traitsIcEEEEEED2Ev, symObjAddr: 0x14738, symBinAddr: 0x100018B80, symSize: 0x2C }
  - { offsetInCU: 0x4FEEF, offset: 0x4FEEF, size: 0x8, addend: 0x0, symName: __ZNSt3__110__function12__value_funcIFNS_6vectorIhNS_9allocatorIhEEEENS_17basic_string_viewIcNS_11char_traitsIcEEEEEED1B8ue170006Ev, symObjAddr: 0x14764, symBinAddr: 0x100018BAC, symSize: 0x2C }
  - { offsetInCU: 0x4FF19, offset: 0x4FF19, size: 0x8, addend: 0x0, symName: __ZNSt3__110__function12__value_funcIFNS_6vectorIhNS_9allocatorIhEEEENS_17basic_string_viewIcNS_11char_traitsIcEEEEEED2B8ue170006Ev, symObjAddr: 0x14790, symBinAddr: 0x100018BD8, symSize: 0x90 }
  - { offsetInCU: 0x4FF43, offset: 0x4FF43, size: 0x8, addend: 0x0, symName: __ZNSt3__113unordered_mapINS_12basic_stringIcNS_11char_traitsIcEENS_9allocatorIcEEEENS_10shared_ptrIN3xpf4FontEEENS_4hashIS6_EENS_8equal_toIS6_EENS4_INS_4pairIKS6_SA_EEEEEC2B8ue170006Ev, symObjAddr: 0x14820, symBinAddr: 0x100018C68, symSize: 0x2C }
  - { offsetInCU: 0x4FF6D, offset: 0x4FF6D, size: 0x8, addend: 0x0, symName: __ZNSt3__112__hash_tableINS_17__hash_value_typeINS_12basic_stringIcNS_11char_traitsIcEENS_9allocatorIcEEEENS_10shared_ptrIN3xpf4FontEEEEENS_22__unordered_map_hasherIS7_SC_NS_4hashIS7_EENS_8equal_toIS7_EELb1EEENS_21__unordered_map_equalIS7_SC_SH_SF_Lb1EEENS5_ISC_EEEC1Ev, symObjAddr: 0x1484C, symBinAddr: 0x100018C94, symSize: 0x2C }
  - { offsetInCU: 0x4FF99, offset: 0x4FF99, size: 0x8, addend: 0x0, symName: __ZNSt3__112__hash_tableINS_17__hash_value_typeINS_12basic_stringIcNS_11char_traitsIcEENS_9allocatorIcEEEENS_10shared_ptrIN3xpf4FontEEEEENS_22__unordered_map_hasherIS7_SC_NS_4hashIS7_EENS_8equal_toIS7_EELb1EEENS_21__unordered_map_equalIS7_SC_SH_SF_Lb1EEENS5_ISC_EEEC2Ev, symObjAddr: 0x14878, symBinAddr: 0x100018CC0, symSize: 0x7C }
  - { offsetInCU: 0x4FFC5, offset: 0x4FFC5, size: 0x8, addend: 0x0, symName: __ZNSt3__110unique_ptrIA_PNS_16__hash_node_baseIPNS_11__hash_nodeINS_17__hash_value_typeINS_12basic_stringIcNS_11char_traitsIcEENS_9allocatorIcEEEENS_10shared_ptrIN3xpf4FontEEEEEPvEEEENS_25__bucket_list_deallocatorINS7_ISJ_EEEEEC1B8ue170006ILb1EvEEv, symObjAddr: 0x148F4, symBinAddr: 0x100018D3C, symSize: 0x2C }
  - { offsetInCU: 0x4FFFA, offset: 0x4FFFA, size: 0x8, addend: 0x0, symName: __ZNSt3__117__compressed_pairINS_16__hash_node_baseIPNS_11__hash_nodeINS_17__hash_value_typeINS_12basic_stringIcNS_11char_traitsIcEENS_9allocatorIcEEEENS_10shared_ptrIN3xpf4FontEEEEEPvEEEENS7_ISG_EEEC1B8ue170006ILb1EvEEv, symObjAddr: 0x14920, symBinAddr: 0x100018D68, symSize: 0x2C }
  - { offsetInCU: 0x5002F, offset: 0x5002F, size: 0x8, addend: 0x0, symName: __ZNSt3__117__compressed_pairImNS_22__unordered_map_hasherINS_12basic_stringIcNS_11char_traitsIcEENS_9allocatorIcEEEENS_17__hash_value_typeIS7_NS_10shared_ptrIN3xpf4FontEEEEENS_4hashIS7_EENS_8equal_toIS7_EELb1EEEEC1B8ue170006IiNS_18__default_init_tagEEEOT_OT0_, symObjAddr: 0x1494C, symBinAddr: 0x100018D94, symSize: 0x3C }
  - { offsetInCU: 0x50087, offset: 0x50087, size: 0x8, addend: 0x0, symName: __ZNSt3__117__compressed_pairIfNS_21__unordered_map_equalINS_12basic_stringIcNS_11char_traitsIcEENS_9allocatorIcEEEENS_17__hash_value_typeIS7_NS_10shared_ptrIN3xpf4FontEEEEENS_8equal_toIS7_EENS_4hashIS7_EELb1EEEEC1B8ue170006IfNS_18__default_init_tagEEEOT_OT0_, symObjAddr: 0x14988, symBinAddr: 0x100018DD0, symSize: 0x3C }
  - { offsetInCU: 0x500DF, offset: 0x500DF, size: 0x8, addend: 0x0, symName: __ZNSt3__110unique_ptrIA_PNS_16__hash_node_baseIPNS_11__hash_nodeINS_17__hash_value_typeINS_12basic_stringIcNS_11char_traitsIcEENS_9allocatorIcEEEENS_10shared_ptrIN3xpf4FontEEEEEPvEEEENS_25__bucket_list_deallocatorINS7_ISJ_EEEEEC2B8ue170006ILb1EvEEv, symObjAddr: 0x149C4, symBinAddr: 0x100018E0C, symSize: 0x3C }
  - { offsetInCU: 0x50114, offset: 0x50114, size: 0x8, addend: 0x0, symName: __ZNSt3__117__compressed_pairIPPNS_16__hash_node_baseIPNS_11__hash_nodeINS_17__hash_value_typeINS_12basic_stringIcNS_11char_traitsIcEENS_9allocatorIcEEEENS_10shared_ptrIN3xpf4FontEEEEEPvEEEENS_25__bucket_list_deallocatorINS7_ISJ_EEEEEC1B8ue170006INS_16__value_init_tagESQ_EEOT_OT0_, symObjAddr: 0x14A00, symBinAddr: 0x100018E48, symSize: 0x3C }
  - { offsetInCU: 0x5016C, offset: 0x5016C, size: 0x8, addend: 0x0, symName: __ZNSt3__117__compressed_pairIPPNS_16__hash_node_baseIPNS_11__hash_nodeINS_17__hash_value_typeINS_12basic_stringIcNS_11char_traitsIcEENS_9allocatorIcEEEENS_10shared_ptrIN3xpf4FontEEEEEPvEEEENS_25__bucket_list_deallocatorINS7_ISJ_EEEEEC2B8ue170006INS_16__value_init_tagESQ_EEOT_OT0_, symObjAddr: 0x14A3C, symBinAddr: 0x100018E84, symSize: 0x40 }
  - { offsetInCU: 0x501C4, offset: 0x501C4, size: 0x8, addend: 0x0, symName: __ZNSt3__122__compressed_pair_elemIPPNS_16__hash_node_baseIPNS_11__hash_nodeINS_17__hash_value_typeINS_12basic_stringIcNS_11char_traitsIcEENS_9allocatorIcEEEENS_10shared_ptrIN3xpf4FontEEEEEPvEEEELi0ELb0EEC2B8ue170006ENS_16__value_init_tagE, symObjAddr: 0x14A7C, symBinAddr: 0x100018EC4, symSize: 0x18 }
  - { offsetInCU: 0x501F8, offset: 0x501F8, size: 0x8, addend: 0x0, symName: __ZNSt3__122__compressed_pair_elemINS_25__bucket_list_deallocatorINS_9allocatorIPNS_16__hash_node_baseIPNS_11__hash_nodeINS_17__hash_value_typeINS_12basic_stringIcNS_11char_traitsIcEENS2_IcEEEENS_10shared_ptrIN3xpf4FontEEEEEPvEEEEEEEELi1ELb0EEC2B8ue170006ENS_16__value_init_tagE, symObjAddr: 0x14A94, symBinAddr: 0x100018EDC, symSize: 0x2C }
  - { offsetInCU: 0x5022C, offset: 0x5022C, size: 0x8, addend: 0x0, symName: __ZNSt3__125__bucket_list_deallocatorINS_9allocatorIPNS_16__hash_node_baseIPNS_11__hash_nodeINS_17__hash_value_typeINS_12basic_stringIcNS_11char_traitsIcEENS1_IcEEEENS_10shared_ptrIN3xpf4FontEEEEEPvEEEEEEEC1B8ue170006Ev, symObjAddr: 0x14AC0, symBinAddr: 0x100018F08, symSize: 0x2C }
  - { offsetInCU: 0x50256, offset: 0x50256, size: 0x8, addend: 0x0, symName: __ZNSt3__125__bucket_list_deallocatorINS_9allocatorIPNS_16__hash_node_baseIPNS_11__hash_nodeINS_17__hash_value_typeINS_12basic_stringIcNS_11char_traitsIcEENS1_IcEEEENS_10shared_ptrIN3xpf4FontEEEEEPvEEEEEEEC2B8ue170006Ev, symObjAddr: 0x14AEC, symBinAddr: 0x100018F34, symSize: 0x40 }
  - { offsetInCU: 0x50280, offset: 0x50280, size: 0x8, addend: 0x0, symName: __ZNSt3__117__compressed_pairImNS_9allocatorIPNS_16__hash_node_baseIPNS_11__hash_nodeINS_17__hash_value_typeINS_12basic_stringIcNS_11char_traitsIcEENS1_IcEEEENS_10shared_ptrIN3xpf4FontEEEEEPvEEEEEEEC1B8ue170006IiNS_18__default_init_tagEEEOT_OT0_, symObjAddr: 0x14B2C, symBinAddr: 0x100018F74, symSize: 0x3C }
  - { offsetInCU: 0x502D8, offset: 0x502D8, size: 0x8, addend: 0x0, symName: __ZNSt3__117__compressed_pairImNS_9allocatorIPNS_16__hash_node_baseIPNS_11__hash_nodeINS_17__hash_value_typeINS_12basic_stringIcNS_11char_traitsIcEENS1_IcEEEENS_10shared_ptrIN3xpf4FontEEEEEPvEEEEEEEC2B8ue170006IiNS_18__default_init_tagEEEOT_OT0_, symObjAddr: 0x14B68, symBinAddr: 0x100018FB0, symSize: 0x40 }
  - { offsetInCU: 0x50330, offset: 0x50330, size: 0x8, addend: 0x0, symName: __ZNSt3__122__compressed_pair_elemINS_9allocatorIPNS_16__hash_node_baseIPNS_11__hash_nodeINS_17__hash_value_typeINS_12basic_stringIcNS_11char_traitsIcEENS1_IcEEEENS_10shared_ptrIN3xpf4FontEEEEEPvEEEEEELi1ELb1EEC2B8ue170006ENS_18__default_init_tagE, symObjAddr: 0x14BA8, symBinAddr: 0x100018FF0, symSize: 0x2C }
  - { offsetInCU: 0x50364, offset: 0x50364, size: 0x8, addend: 0x0, symName: __ZNSt3__19allocatorIPNS_16__hash_node_baseIPNS_11__hash_nodeINS_17__hash_value_typeINS_12basic_stringIcNS_11char_traitsIcEENS0_IcEEEENS_10shared_ptrIN3xpf4FontEEEEEPvEEEEEC2B8ue170006Ev, symObjAddr: 0x14BD4, symBinAddr: 0x10001901C, symSize: 0x2C }
  - { offsetInCU: 0x5038E, offset: 0x5038E, size: 0x8, addend: 0x0, symName: __ZNSt3__116__non_trivial_ifILb1ENS_9allocatorIPNS_16__hash_node_baseIPNS_11__hash_nodeINS_17__hash_value_typeINS_12basic_stringIcNS_11char_traitsIcEENS1_IcEEEENS_10shared_ptrIN3xpf4FontEEEEEPvEEEEEEEC2B8ue170006Ev, symObjAddr: 0x14C00, symBinAddr: 0x100019048, symSize: 0x14 }
  - { offsetInCU: 0x503B8, offset: 0x503B8, size: 0x8, addend: 0x0, symName: __ZNSt3__117__compressed_pairINS_16__hash_node_baseIPNS_11__hash_nodeINS_17__hash_value_typeINS_12basic_stringIcNS_11char_traitsIcEENS_9allocatorIcEEEENS_10shared_ptrIN3xpf4FontEEEEEPvEEEENS7_ISG_EEEC2B8ue170006ILb1EvEEv, symObjAddr: 0x14C14, symBinAddr: 0x10001905C, symSize: 0x34 }
  - { offsetInCU: 0x503ED, offset: 0x503ED, size: 0x8, addend: 0x0, symName: __ZNSt3__122__compressed_pair_elemINS_16__hash_node_baseIPNS_11__hash_nodeINS_17__hash_value_typeINS_12basic_stringIcNS_11char_traitsIcEENS_9allocatorIcEEEENS_10shared_ptrIN3xpf4FontEEEEEPvEEEELi0ELb0EEC2B8ue170006ENS_16__value_init_tagE, symObjAddr: 0x14C48, symBinAddr: 0x100019090, symSize: 0x2C }
  - { offsetInCU: 0x50421, offset: 0x50421, size: 0x8, addend: 0x0, symName: __ZNSt3__122__compressed_pair_elemINS_9allocatorINS_11__hash_nodeINS_17__hash_value_typeINS_12basic_stringIcNS_11char_traitsIcEENS1_IcEEEENS_10shared_ptrIN3xpf4FontEEEEEPvEEEELi1ELb1EEC2B8ue170006ENS_16__value_init_tagE, symObjAddr: 0x14C74, symBinAddr: 0x1000190BC, symSize: 0x2C }
  - { offsetInCU: 0x50455, offset: 0x50455, size: 0x8, addend: 0x0, symName: __ZNSt3__116__hash_node_baseIPNS_11__hash_nodeINS_17__hash_value_typeINS_12basic_stringIcNS_11char_traitsIcEENS_9allocatorIcEEEENS_10shared_ptrIN3xpf4FontEEEEEPvEEEC1B8ue170006Ev, symObjAddr: 0x14CA0, symBinAddr: 0x1000190E8, symSize: 0x2C }
  - { offsetInCU: 0x5047F, offset: 0x5047F, size: 0x8, addend: 0x0, symName: __ZNSt3__116__hash_node_baseIPNS_11__hash_nodeINS_17__hash_value_typeINS_12basic_stringIcNS_11char_traitsIcEENS_9allocatorIcEEEENS_10shared_ptrIN3xpf4FontEEEEEPvEEEC2B8ue170006Ev, symObjAddr: 0x14CCC, symBinAddr: 0x100019114, symSize: 0x18 }
  - { offsetInCU: 0x504A9, offset: 0x504A9, size: 0x8, addend: 0x0, symName: __ZNSt3__19allocatorINS_11__hash_nodeINS_17__hash_value_typeINS_12basic_stringIcNS_11char_traitsIcEENS0_IcEEEENS_10shared_ptrIN3xpf4FontEEEEEPvEEEC2B8ue170006Ev, symObjAddr: 0x14CE4, symBinAddr: 0x10001912C, symSize: 0x2C }
  - { offsetInCU: 0x504D3, offset: 0x504D3, size: 0x8, addend: 0x0, symName: __ZNSt3__116__non_trivial_ifILb1ENS_9allocatorINS_11__hash_nodeINS_17__hash_value_typeINS_12basic_stringIcNS_11char_traitsIcEENS1_IcEEEENS_10shared_ptrIN3xpf4FontEEEEEPvEEEEEC2B8ue170006Ev, symObjAddr: 0x14D10, symBinAddr: 0x100019158, symSize: 0x14 }
  - { offsetInCU: 0x504FD, offset: 0x504FD, size: 0x8, addend: 0x0, symName: __ZNSt3__117__compressed_pairImNS_22__unordered_map_hasherINS_12basic_stringIcNS_11char_traitsIcEENS_9allocatorIcEEEENS_17__hash_value_typeIS7_NS_10shared_ptrIN3xpf4FontEEEEENS_4hashIS7_EENS_8equal_toIS7_EELb1EEEEC2B8ue170006IiNS_18__default_init_tagEEEOT_OT0_, symObjAddr: 0x14D24, symBinAddr: 0x10001916C, symSize: 0x40 }
  - { offsetInCU: 0x50555, offset: 0x50555, size: 0x8, addend: 0x0, symName: __ZNSt3__122__compressed_pair_elemINS_22__unordered_map_hasherINS_12basic_stringIcNS_11char_traitsIcEENS_9allocatorIcEEEENS_17__hash_value_typeIS7_NS_10shared_ptrIN3xpf4FontEEEEENS_4hashIS7_EENS_8equal_toIS7_EELb1EEELi1ELb1EEC2B8ue170006ENS_18__default_init_tagE, symObjAddr: 0x14D64, symBinAddr: 0x1000191AC, symSize: 0x2C }
  - { offsetInCU: 0x50589, offset: 0x50589, size: 0x8, addend: 0x0, symName: __ZNSt3__122__unordered_map_hasherINS_12basic_stringIcNS_11char_traitsIcEENS_9allocatorIcEEEENS_17__hash_value_typeIS6_NS_10shared_ptrIN3xpf4FontEEEEENS_4hashIS6_EENS_8equal_toIS6_EELb1EEC2B8ue170006Ev, symObjAddr: 0x14D90, symBinAddr: 0x1000191D8, symSize: 0x14 }
  - { offsetInCU: 0x505B3, offset: 0x505B3, size: 0x8, addend: 0x0, symName: __ZNSt3__117__compressed_pairIfNS_21__unordered_map_equalINS_12basic_stringIcNS_11char_traitsIcEENS_9allocatorIcEEEENS_17__hash_value_typeIS7_NS_10shared_ptrIN3xpf4FontEEEEENS_8equal_toIS7_EENS_4hashIS7_EELb1EEEEC2B8ue170006IfNS_18__default_init_tagEEEOT_OT0_, symObjAddr: 0x14DA4, symBinAddr: 0x1000191EC, symSize: 0x40 }
  - { offsetInCU: 0x5060B, offset: 0x5060B, size: 0x8, addend: 0x0, symName: __ZNSt3__122__compressed_pair_elemINS_21__unordered_map_equalINS_12basic_stringIcNS_11char_traitsIcEENS_9allocatorIcEEEENS_17__hash_value_typeIS7_NS_10shared_ptrIN3xpf4FontEEEEENS_8equal_toIS7_EENS_4hashIS7_EELb1EEELi1ELb1EEC2B8ue170006ENS_18__default_init_tagE, symObjAddr: 0x14DE4, symBinAddr: 0x10001922C, symSize: 0x2C }
  - { offsetInCU: 0x5063F, offset: 0x5063F, size: 0x8, addend: 0x0, symName: __ZNSt3__121__unordered_map_equalINS_12basic_stringIcNS_11char_traitsIcEENS_9allocatorIcEEEENS_17__hash_value_typeIS6_NS_10shared_ptrIN3xpf4FontEEEEENS_8equal_toIS6_EENS_4hashIS6_EELb1EEC2B8ue170006Ev, symObjAddr: 0x14E10, symBinAddr: 0x100019258, symSize: 0x14 }
  - { offsetInCU: 0x50669, offset: 0x50669, size: 0x8, addend: 0x0, symName: __ZNSt3__113unordered_mapINS_12basic_stringIcNS_11char_traitsIcEENS_9allocatorIcEEEENS_10shared_ptrIN3xpf4FontEEENS_4hashIS6_EENS_8equal_toIS6_EENS4_INS_4pairIKS6_SA_EEEEED2B8ue170006Ev, symObjAddr: 0x14E24, symBinAddr: 0x10001926C, symSize: 0x2C }
  - { offsetInCU: 0x50693, offset: 0x50693, size: 0x8, addend: 0x0, symName: __ZNSt3__112__hash_tableINS_17__hash_value_typeINS_12basic_stringIcNS_11char_traitsIcEENS_9allocatorIcEEEENS_10shared_ptrIN3xpf4FontEEEEENS_22__unordered_map_hasherIS7_SC_NS_4hashIS7_EENS_8equal_toIS7_EELb1EEENS_21__unordered_map_equalIS7_SC_SH_SF_Lb1EEENS5_ISC_EEED1Ev, symObjAddr: 0x14E50, symBinAddr: 0x100019298, symSize: 0x2C }
  - { offsetInCU: 0x506BF, offset: 0x506BF, size: 0x8, addend: 0x0, symName: __ZNSt3__112__hash_tableINS_17__hash_value_typeINS_12basic_stringIcNS_11char_traitsIcEENS_9allocatorIcEEEENS_10shared_ptrIN3xpf4FontEEEEENS_22__unordered_map_hasherIS7_SC_NS_4hashIS7_EENS_8equal_toIS7_EELb1EEENS_21__unordered_map_equalIS7_SC_SH_SF_Lb1EEENS5_ISC_EEED2Ev, symObjAddr: 0x14E7C, symBinAddr: 0x1000192C4, symSize: 0x48 }
  - { offsetInCU: 0x506EB, offset: 0x506EB, size: 0x8, addend: 0x0, symName: __ZNSt3__112__hash_tableINS_17__hash_value_typeINS_12basic_stringIcNS_11char_traitsIcEENS_9allocatorIcEEEENS_10shared_ptrIN3xpf4FontEEEEENS_22__unordered_map_hasherIS7_SC_NS_4hashIS7_EENS_8equal_toIS7_EELb1EEENS_21__unordered_map_equalIS7_SC_SH_SF_Lb1EEENS5_ISC_EEE17__deallocate_nodeEPNS_16__hash_node_baseIPNS_11__hash_nodeISC_PvEEEE, symObjAddr: 0x14EC4, symBinAddr: 0x10001930C, symSize: 0xA8 }
  - { offsetInCU: 0x5075A, offset: 0x5075A, size: 0x8, addend: 0x0, symName: __ZNSt3__117__compressed_pairINS_16__hash_node_baseIPNS_11__hash_nodeINS_17__hash_value_typeINS_12basic_stringIcNS_11char_traitsIcEENS_9allocatorIcEEEENS_10shared_ptrIN3xpf4FontEEEEEPvEEEENS7_ISG_EEE5firstB8ue170006Ev, symObjAddr: 0x14F6C, symBinAddr: 0x1000193B4, symSize: 0x24 }
  - { offsetInCU: 0x50780, offset: 0x50780, size: 0x8, addend: 0x0, symName: __ZNSt3__110unique_ptrIA_PNS_16__hash_node_baseIPNS_11__hash_nodeINS_17__hash_value_typeINS_12basic_stringIcNS_11char_traitsIcEENS_9allocatorIcEEEENS_10shared_ptrIN3xpf4FontEEEEEPvEEEENS_25__bucket_list_deallocatorINS7_ISJ_EEEEED1B8ue170006Ev, symObjAddr: 0x14F90, symBinAddr: 0x1000193D8, symSize: 0x2C }
  - { offsetInCU: 0x507AA, offset: 0x507AA, size: 0x8, addend: 0x0, symName: __ZNSt3__112__hash_tableINS_17__hash_value_typeINS_12basic_stringIcNS_11char_traitsIcEENS_9allocatorIcEEEENS_10shared_ptrIN3xpf4FontEEEEENS_22__unordered_map_hasherIS7_SC_NS_4hashIS7_EENS_8equal_toIS7_EELb1EEENS_21__unordered_map_equalIS7_SC_SH_SF_Lb1EEENS5_ISC_EEE12__node_allocB8ue170006Ev, symObjAddr: 0x14FBC, symBinAddr: 0x100019404, symSize: 0x28 }
  - { offsetInCU: 0x507D0, offset: 0x507D0, size: 0x8, addend: 0x0, symName: __ZNSt3__116__hash_node_baseIPNS_11__hash_nodeINS_17__hash_value_typeINS_12basic_stringIcNS_11char_traitsIcEENS_9allocatorIcEEEENS_10shared_ptrIN3xpf4FontEEEEEPvEEE8__upcastB8ue170006Ev, symObjAddr: 0x14FE4, symBinAddr: 0x10001942C, symSize: 0x24 }
  - { offsetInCU: 0x507FC, offset: 0x507FC, size: 0x8, addend: 0x0, symName: __ZNSt3__116allocator_traitsINS_9allocatorINS_11__hash_nodeINS_17__hash_value_typeINS_12basic_stringIcNS_11char_traitsIcEENS1_IcEEEENS_10shared_ptrIN3xpf4FontEEEEEPvEEEEE7destroyB8ue170006INS_4pairIKS8_SC_EEvvEEvRSG_PT_, symObjAddr: 0x15008, symBinAddr: 0x100019450, symSize: 0x28 }
  - { offsetInCU: 0x50838, offset: 0x50838, size: 0x8, addend: 0x0, symName: __ZNSt3__122__hash_key_value_typesINS_17__hash_value_typeINS_12basic_stringIcNS_11char_traitsIcEENS_9allocatorIcEEEENS_10shared_ptrIN3xpf4FontEEEEEE9__get_ptrB8ue170006ERSC_, symObjAddr: 0x15030, symBinAddr: 0x100019478, symSize: 0x24 }
  - { offsetInCU: 0x5085B, offset: 0x5085B, size: 0x8, addend: 0x0, symName: __ZNSt3__116allocator_traitsINS_9allocatorINS_11__hash_nodeINS_17__hash_value_typeINS_12basic_stringIcNS_11char_traitsIcEENS1_IcEEEENS_10shared_ptrIN3xpf4FontEEEEEPvEEEEE10deallocateB8ue170006ERSG_PSF_m, symObjAddr: 0x15054, symBinAddr: 0x10001949C, symSize: 0x34 }
  - { offsetInCU: 0x508A0, offset: 0x508A0, size: 0x8, addend: 0x0, symName: __ZNSt3__117__compressed_pairINS_16__hash_node_baseIPNS_11__hash_nodeINS_17__hash_value_typeINS_12basic_stringIcNS_11char_traitsIcEENS_9allocatorIcEEEENS_10shared_ptrIN3xpf4FontEEEEEPvEEEENS7_ISG_EEE6secondB8ue170006Ev, symObjAddr: 0x15088, symBinAddr: 0x1000194D0, symSize: 0x24 }
  - { offsetInCU: 0x508C6, offset: 0x508C6, size: 0x8, addend: 0x0, symName: __ZNSt3__122__compressed_pair_elemINS_9allocatorINS_11__hash_nodeINS_17__hash_value_typeINS_12basic_stringIcNS_11char_traitsIcEENS1_IcEEEENS_10shared_ptrIN3xpf4FontEEEEEPvEEEELi1ELb1EE5__getB8ue170006Ev, symObjAddr: 0x150AC, symBinAddr: 0x1000194F4, symSize: 0x14 }
  - { offsetInCU: 0x508EC, offset: 0x508EC, size: 0x8, addend: 0x0, symName: __ZNSt3__114pointer_traitsIPNS_16__hash_node_baseIPNS_11__hash_nodeINS_17__hash_value_typeINS_12basic_stringIcNS_11char_traitsIcEENS_9allocatorIcEEEENS_10shared_ptrIN3xpf4FontEEEEEPvEEEEE10pointer_toB8ue170006ERSI_, symObjAddr: 0x150C0, symBinAddr: 0x100019508, symSize: 0x14 }
  - { offsetInCU: 0x5090F, offset: 0x5090F, size: 0x8, addend: 0x0, symName: __ZNSt3__14pairIKNS_12basic_stringIcNS_11char_traitsIcEENS_9allocatorIcEEEENS_10shared_ptrIN3xpf4FontEEEED1Ev, symObjAddr: 0x1511C, symBinAddr: 0x100019564, symSize: 0x2C }
  - { offsetInCU: 0x5093B, offset: 0x5093B, size: 0x8, addend: 0x0, symName: __ZNSt3__14pairIKNS_12basic_stringIcNS_11char_traitsIcEENS_9allocatorIcEEEENS_10shared_ptrIN3xpf4FontEEEED2Ev, symObjAddr: 0x15148, symBinAddr: 0x100019590, symSize: 0x38 }
  - { offsetInCU: 0x50967, offset: 0x50967, size: 0x8, addend: 0x0, symName: __ZNSt3__110shared_ptrIN3xpf4FontEED1B8ue170006Ev, symObjAddr: 0x15180, symBinAddr: 0x1000195C8, symSize: 0x2C }
  - { offsetInCU: 0x50991, offset: 0x50991, size: 0x8, addend: 0x0, symName: __ZNSt3__110shared_ptrIN3xpf4FontEED2B8ue170006Ev, symObjAddr: 0x151AC, symBinAddr: 0x1000195F4, symSize: 0x54 }
  - { offsetInCU: 0x509BB, offset: 0x509BB, size: 0x8, addend: 0x0, symName: __ZNSt3__117__hash_value_typeINS_12basic_stringIcNS_11char_traitsIcEENS_9allocatorIcEEEENS_10shared_ptrIN3xpf4FontEEEE11__get_valueB8ue170006Ev, symObjAddr: 0x15200, symBinAddr: 0x100019648, symSize: 0x24 }
  - { offsetInCU: 0x509E1, offset: 0x509E1, size: 0x8, addend: 0x0, symName: __ZNSt3__19allocatorINS_11__hash_nodeINS_17__hash_value_typeINS_12basic_stringIcNS_11char_traitsIcEENS0_IcEEEENS_10shared_ptrIN3xpf4FontEEEEEPvEEE10deallocateB8ue170006EPSE_m, symObjAddr: 0x1525C, symBinAddr: 0x1000196A4, symSize: 0x44 }
  - { offsetInCU: 0x50A23, offset: 0x50A23, size: 0x8, addend: 0x0, symName: __ZNSt3__122__compressed_pair_elemINS_16__hash_node_baseIPNS_11__hash_nodeINS_17__hash_value_typeINS_12basic_stringIcNS_11char_traitsIcEENS_9allocatorIcEEEENS_10shared_ptrIN3xpf4FontEEEEEPvEEEELi0ELb0EE5__getB8ue170006Ev, symObjAddr: 0x152A0, symBinAddr: 0x1000196E8, symSize: 0x14 }
  - { offsetInCU: 0x50A49, offset: 0x50A49, size: 0x8, addend: 0x0, symName: __ZNSt3__110unique_ptrIA_PNS_16__hash_node_baseIPNS_11__hash_nodeINS_17__hash_value_typeINS_12basic_stringIcNS_11char_traitsIcEENS_9allocatorIcEEEENS_10shared_ptrIN3xpf4FontEEEEEPvEEEENS_25__bucket_list_deallocatorINS7_ISJ_EEEEED2B8ue170006Ev, symObjAddr: 0x152B4, symBinAddr: 0x1000196FC, symSize: 0x30 }
  - { offsetInCU: 0x50A73, offset: 0x50A73, size: 0x8, addend: 0x0, symName: __ZNSt3__110unique_ptrIA_PNS_16__hash_node_baseIPNS_11__hash_nodeINS_17__hash_value_typeINS_12basic_stringIcNS_11char_traitsIcEENS_9allocatorIcEEEENS_10shared_ptrIN3xpf4FontEEEEEPvEEEENS_25__bucket_list_deallocatorINS7_ISJ_EEEEE5resetB8ue170006EDn, symObjAddr: 0x152E4, symBinAddr: 0x10001972C, symSize: 0x6C }
  - { offsetInCU: 0x50AB5, offset: 0x50AB5, size: 0x8, addend: 0x0, symName: __ZNSt3__117__compressed_pairIPPNS_16__hash_node_baseIPNS_11__hash_nodeINS_17__hash_value_typeINS_12basic_stringIcNS_11char_traitsIcEENS_9allocatorIcEEEENS_10shared_ptrIN3xpf4FontEEEEEPvEEEENS_25__bucket_list_deallocatorINS7_ISJ_EEEEE5firstB8ue170006Ev, symObjAddr: 0x15350, symBinAddr: 0x100019798, symSize: 0x24 }
  - { offsetInCU: 0x50ADB, offset: 0x50ADB, size: 0x8, addend: 0x0, symName: __ZNSt3__117__compressed_pairIPPNS_16__hash_node_baseIPNS_11__hash_nodeINS_17__hash_value_typeINS_12basic_stringIcNS_11char_traitsIcEENS_9allocatorIcEEEENS_10shared_ptrIN3xpf4FontEEEEEPvEEEENS_25__bucket_list_deallocatorINS7_ISJ_EEEEE6secondB8ue170006Ev, symObjAddr: 0x15374, symBinAddr: 0x1000197BC, symSize: 0x28 }
  - { offsetInCU: 0x50B01, offset: 0x50B01, size: 0x8, addend: 0x0, symName: __ZNSt3__125__bucket_list_deallocatorINS_9allocatorIPNS_16__hash_node_baseIPNS_11__hash_nodeINS_17__hash_value_typeINS_12basic_stringIcNS_11char_traitsIcEENS1_IcEEEENS_10shared_ptrIN3xpf4FontEEEEEPvEEEEEEEclB8ue170006EPSJ_, symObjAddr: 0x1539C, symBinAddr: 0x1000197E4, symSize: 0x58 }
  - { offsetInCU: 0x50B37, offset: 0x50B37, size: 0x8, addend: 0x0, symName: __ZNSt3__122__compressed_pair_elemIPPNS_16__hash_node_baseIPNS_11__hash_nodeINS_17__hash_value_typeINS_12basic_stringIcNS_11char_traitsIcEENS_9allocatorIcEEEENS_10shared_ptrIN3xpf4FontEEEEEPvEEEELi0ELb0EE5__getB8ue170006Ev, symObjAddr: 0x153F4, symBinAddr: 0x10001983C, symSize: 0x14 }
  - { offsetInCU: 0x50B5D, offset: 0x50B5D, size: 0x8, addend: 0x0, symName: __ZNSt3__122__compressed_pair_elemINS_25__bucket_list_deallocatorINS_9allocatorIPNS_16__hash_node_baseIPNS_11__hash_nodeINS_17__hash_value_typeINS_12basic_stringIcNS_11char_traitsIcEENS2_IcEEEENS_10shared_ptrIN3xpf4FontEEEEEPvEEEEEEEELi1ELb0EE5__getB8ue170006Ev, symObjAddr: 0x15408, symBinAddr: 0x100019850, symSize: 0x14 }
  - { offsetInCU: 0x50B83, offset: 0x50B83, size: 0x8, addend: 0x0, symName: __ZNSt3__116allocator_traitsINS_9allocatorIPNS_16__hash_node_baseIPNS_11__hash_nodeINS_17__hash_value_typeINS_12basic_stringIcNS_11char_traitsIcEENS1_IcEEEENS_10shared_ptrIN3xpf4FontEEEEEPvEEEEEEE10deallocateB8ue170006ERSK_PSJ_m, symObjAddr: 0x1541C, symBinAddr: 0x100019864, symSize: 0x34 }
  - { offsetInCU: 0x50BC8, offset: 0x50BC8, size: 0x8, addend: 0x0, symName: __ZNSt3__125__bucket_list_deallocatorINS_9allocatorIPNS_16__hash_node_baseIPNS_11__hash_nodeINS_17__hash_value_typeINS_12basic_stringIcNS_11char_traitsIcEENS1_IcEEEENS_10shared_ptrIN3xpf4FontEEEEEPvEEEEEEE7__allocB8ue170006Ev, symObjAddr: 0x15450, symBinAddr: 0x100019898, symSize: 0x24 }
  - { offsetInCU: 0x50BEE, offset: 0x50BEE, size: 0x8, addend: 0x0, symName: __ZNSt3__125__bucket_list_deallocatorINS_9allocatorIPNS_16__hash_node_baseIPNS_11__hash_nodeINS_17__hash_value_typeINS_12basic_stringIcNS_11char_traitsIcEENS1_IcEEEENS_10shared_ptrIN3xpf4FontEEEEEPvEEEEEEE4sizeB8ue170006Ev, symObjAddr: 0x15474, symBinAddr: 0x1000198BC, symSize: 0x24 }
  - { offsetInCU: 0x50C14, offset: 0x50C14, size: 0x8, addend: 0x0, symName: __ZNSt3__19allocatorIPNS_16__hash_node_baseIPNS_11__hash_nodeINS_17__hash_value_typeINS_12basic_stringIcNS_11char_traitsIcEENS0_IcEEEENS_10shared_ptrIN3xpf4FontEEEEEPvEEEEE10deallocateB8ue170006EPSI_m, symObjAddr: 0x15498, symBinAddr: 0x1000198E0, symSize: 0x40 }
  - { offsetInCU: 0x50C56, offset: 0x50C56, size: 0x8, addend: 0x0, symName: __ZNSt3__117__compressed_pairImNS_9allocatorIPNS_16__hash_node_baseIPNS_11__hash_nodeINS_17__hash_value_typeINS_12basic_stringIcNS_11char_traitsIcEENS1_IcEEEENS_10shared_ptrIN3xpf4FontEEEEEPvEEEEEEE6secondB8ue170006Ev, symObjAddr: 0x154D8, symBinAddr: 0x100019920, symSize: 0x24 }
  - { offsetInCU: 0x50C7C, offset: 0x50C7C, size: 0x8, addend: 0x0, symName: __ZNSt3__122__compressed_pair_elemINS_9allocatorIPNS_16__hash_node_baseIPNS_11__hash_nodeINS_17__hash_value_typeINS_12basic_stringIcNS_11char_traitsIcEENS1_IcEEEENS_10shared_ptrIN3xpf4FontEEEEEPvEEEEEELi1ELb1EE5__getB8ue170006Ev, symObjAddr: 0x154FC, symBinAddr: 0x100019944, symSize: 0x14 }
  - { offsetInCU: 0x50CA2, offset: 0x50CA2, size: 0x8, addend: 0x0, symName: __ZNSt3__117__compressed_pairImNS_9allocatorIPNS_16__hash_node_baseIPNS_11__hash_nodeINS_17__hash_value_typeINS_12basic_stringIcNS_11char_traitsIcEENS1_IcEEEENS_10shared_ptrIN3xpf4FontEEEEEPvEEEEEEE5firstB8ue170006Ev, symObjAddr: 0x15510, symBinAddr: 0x100019958, symSize: 0x24 }
  - { offsetInCU: 0x50CC8, offset: 0x50CC8, size: 0x8, addend: 0x0, symName: __ZNSt3__113unordered_setINS_12basic_stringIcNS_11char_traitsIcEENS_9allocatorIcEEEENS_4hashIS6_EENS_8equal_toIS6_EENS4_IS6_EEEC2B8ue170006Ev, symObjAddr: 0x15534, symBinAddr: 0x10001997C, symSize: 0x2C }
  - { offsetInCU: 0x50CF2, offset: 0x50CF2, size: 0x8, addend: 0x0, symName: __ZNSt3__112__hash_tableINS_12basic_stringIcNS_11char_traitsIcEENS_9allocatorIcEEEENS_4hashIS6_EENS_8equal_toIS6_EENS4_IS6_EEEC1Ev, symObjAddr: 0x15560, symBinAddr: 0x1000199A8, symSize: 0x2C }
  - { offsetInCU: 0x50D1E, offset: 0x50D1E, size: 0x8, addend: 0x0, symName: __ZNSt3__112__hash_tableINS_12basic_stringIcNS_11char_traitsIcEENS_9allocatorIcEEEENS_4hashIS6_EENS_8equal_toIS6_EENS4_IS6_EEEC2Ev, symObjAddr: 0x1558C, symBinAddr: 0x1000199D4, symSize: 0x7C }
  - { offsetInCU: 0x50D4A, offset: 0x50D4A, size: 0x8, addend: 0x0, symName: __ZNSt3__110unique_ptrIA_PNS_16__hash_node_baseIPNS_11__hash_nodeINS_12basic_stringIcNS_11char_traitsIcEENS_9allocatorIcEEEEPvEEEENS_25__bucket_list_deallocatorINS6_ISD_EEEEEC1B8ue170006ILb1EvEEv, symObjAddr: 0x15608, symBinAddr: 0x100019A50, symSize: 0x2C }
  - { offsetInCU: 0x50D7F, offset: 0x50D7F, size: 0x8, addend: 0x0, symName: __ZNSt3__117__compressed_pairINS_16__hash_node_baseIPNS_11__hash_nodeINS_12basic_stringIcNS_11char_traitsIcEENS_9allocatorIcEEEEPvEEEENS6_ISA_EEEC1B8ue170006ILb1EvEEv, symObjAddr: 0x15634, symBinAddr: 0x100019A7C, symSize: 0x2C }
  - { offsetInCU: 0x50DB4, offset: 0x50DB4, size: 0x8, addend: 0x0, symName: __ZNSt3__117__compressed_pairImNS_4hashINS_12basic_stringIcNS_11char_traitsIcEENS_9allocatorIcEEEEEEEC1B8ue170006IiNS_18__default_init_tagEEEOT_OT0_, symObjAddr: 0x15660, symBinAddr: 0x100019AA8, symSize: 0x3C }
  - { offsetInCU: 0x50E0C, offset: 0x50E0C, size: 0x8, addend: 0x0, symName: __ZNSt3__117__compressed_pairIfNS_8equal_toINS_12basic_stringIcNS_11char_traitsIcEENS_9allocatorIcEEEEEEEC1B8ue170006IfNS_18__default_init_tagEEEOT_OT0_, symObjAddr: 0x1569C, symBinAddr: 0x100019AE4, symSize: 0x3C }
  - { offsetInCU: 0x50E64, offset: 0x50E64, size: 0x8, addend: 0x0, symName: __ZNSt3__110unique_ptrIA_PNS_16__hash_node_baseIPNS_11__hash_nodeINS_12basic_stringIcNS_11char_traitsIcEENS_9allocatorIcEEEEPvEEEENS_25__bucket_list_deallocatorINS6_ISD_EEEEEC2B8ue170006ILb1EvEEv, symObjAddr: 0x156D8, symBinAddr: 0x100019B20, symSize: 0x3C }
  - { offsetInCU: 0x50E99, offset: 0x50E99, size: 0x8, addend: 0x0, symName: __ZNSt3__117__compressed_pairIPPNS_16__hash_node_baseIPNS_11__hash_nodeINS_12basic_stringIcNS_11char_traitsIcEENS_9allocatorIcEEEEPvEEEENS_25__bucket_list_deallocatorINS6_ISD_EEEEEC1B8ue170006INS_16__value_init_tagESK_EEOT_OT0_, symObjAddr: 0x15714, symBinAddr: 0x100019B5C, symSize: 0x3C }
  - { offsetInCU: 0x50EF1, offset: 0x50EF1, size: 0x8, addend: 0x0, symName: __ZNSt3__117__compressed_pairIPPNS_16__hash_node_baseIPNS_11__hash_nodeINS_12basic_stringIcNS_11char_traitsIcEENS_9allocatorIcEEEEPvEEEENS_25__bucket_list_deallocatorINS6_ISD_EEEEEC2B8ue170006INS_16__value_init_tagESK_EEOT_OT0_, symObjAddr: 0x15750, symBinAddr: 0x100019B98, symSize: 0x40 }
  - { offsetInCU: 0x50F49, offset: 0x50F49, size: 0x8, addend: 0x0, symName: __ZNSt3__122__compressed_pair_elemIPPNS_16__hash_node_baseIPNS_11__hash_nodeINS_12basic_stringIcNS_11char_traitsIcEENS_9allocatorIcEEEEPvEEEELi0ELb0EEC2B8ue170006ENS_16__value_init_tagE, symObjAddr: 0x15790, symBinAddr: 0x100019BD8, symSize: 0x18 }
  - { offsetInCU: 0x50F7D, offset: 0x50F7D, size: 0x8, addend: 0x0, symName: __ZNSt3__122__compressed_pair_elemINS_25__bucket_list_deallocatorINS_9allocatorIPNS_16__hash_node_baseIPNS_11__hash_nodeINS_12basic_stringIcNS_11char_traitsIcEENS2_IcEEEEPvEEEEEEEELi1ELb0EEC2B8ue170006ENS_16__value_init_tagE, symObjAddr: 0x157A8, symBinAddr: 0x100019BF0, symSize: 0x2C }
  - { offsetInCU: 0x50FB1, offset: 0x50FB1, size: 0x8, addend: 0x0, symName: __ZNSt3__125__bucket_list_deallocatorINS_9allocatorIPNS_16__hash_node_baseIPNS_11__hash_nodeINS_12basic_stringIcNS_11char_traitsIcEENS1_IcEEEEPvEEEEEEEC1B8ue170006Ev, symObjAddr: 0x157D4, symBinAddr: 0x100019C1C, symSize: 0x2C }
  - { offsetInCU: 0x50FDB, offset: 0x50FDB, size: 0x8, addend: 0x0, symName: __ZNSt3__125__bucket_list_deallocatorINS_9allocatorIPNS_16__hash_node_baseIPNS_11__hash_nodeINS_12basic_stringIcNS_11char_traitsIcEENS1_IcEEEEPvEEEEEEEC2B8ue170006Ev, symObjAddr: 0x15800, symBinAddr: 0x100019C48, symSize: 0x40 }
  - { offsetInCU: 0x51005, offset: 0x51005, size: 0x8, addend: 0x0, symName: __ZNSt3__117__compressed_pairImNS_9allocatorIPNS_16__hash_node_baseIPNS_11__hash_nodeINS_12basic_stringIcNS_11char_traitsIcEENS1_IcEEEEPvEEEEEEEC1B8ue170006IiNS_18__default_init_tagEEEOT_OT0_, symObjAddr: 0x15840, symBinAddr: 0x100019C88, symSize: 0x3C }
  - { offsetInCU: 0x5105D, offset: 0x5105D, size: 0x8, addend: 0x0, symName: __ZNSt3__117__compressed_pairImNS_9allocatorIPNS_16__hash_node_baseIPNS_11__hash_nodeINS_12basic_stringIcNS_11char_traitsIcEENS1_IcEEEEPvEEEEEEEC2B8ue170006IiNS_18__default_init_tagEEEOT_OT0_, symObjAddr: 0x1587C, symBinAddr: 0x100019CC4, symSize: 0x40 }
  - { offsetInCU: 0x510B5, offset: 0x510B5, size: 0x8, addend: 0x0, symName: __ZNSt3__122__compressed_pair_elemINS_9allocatorIPNS_16__hash_node_baseIPNS_11__hash_nodeINS_12basic_stringIcNS_11char_traitsIcEENS1_IcEEEEPvEEEEEELi1ELb1EEC2B8ue170006ENS_18__default_init_tagE, symObjAddr: 0x158BC, symBinAddr: 0x100019D04, symSize: 0x2C }
  - { offsetInCU: 0x510E9, offset: 0x510E9, size: 0x8, addend: 0x0, symName: __ZNSt3__19allocatorIPNS_16__hash_node_baseIPNS_11__hash_nodeINS_12basic_stringIcNS_11char_traitsIcEENS0_IcEEEEPvEEEEEC2B8ue170006Ev, symObjAddr: 0x158E8, symBinAddr: 0x100019D30, symSize: 0x2C }
  - { offsetInCU: 0x51113, offset: 0x51113, size: 0x8, addend: 0x0, symName: __ZNSt3__116__non_trivial_ifILb1ENS_9allocatorIPNS_16__hash_node_baseIPNS_11__hash_nodeINS_12basic_stringIcNS_11char_traitsIcEENS1_IcEEEEPvEEEEEEEC2B8ue170006Ev, symObjAddr: 0x15914, symBinAddr: 0x100019D5C, symSize: 0x14 }
  - { offsetInCU: 0x5113D, offset: 0x5113D, size: 0x8, addend: 0x0, symName: __ZNSt3__117__compressed_pairINS_16__hash_node_baseIPNS_11__hash_nodeINS_12basic_stringIcNS_11char_traitsIcEENS_9allocatorIcEEEEPvEEEENS6_ISA_EEEC2B8ue170006ILb1EvEEv, symObjAddr: 0x15928, symBinAddr: 0x100019D70, symSize: 0x34 }
  - { offsetInCU: 0x51172, offset: 0x51172, size: 0x8, addend: 0x0, symName: __ZNSt3__122__compressed_pair_elemINS_16__hash_node_baseIPNS_11__hash_nodeINS_12basic_stringIcNS_11char_traitsIcEENS_9allocatorIcEEEEPvEEEELi0ELb0EEC2B8ue170006ENS_16__value_init_tagE, symObjAddr: 0x1595C, symBinAddr: 0x100019DA4, symSize: 0x2C }
  - { offsetInCU: 0x511A6, offset: 0x511A6, size: 0x8, addend: 0x0, symName: __ZNSt3__122__compressed_pair_elemINS_9allocatorINS_11__hash_nodeINS_12basic_stringIcNS_11char_traitsIcEENS1_IcEEEEPvEEEELi1ELb1EEC2B8ue170006ENS_16__value_init_tagE, symObjAddr: 0x15988, symBinAddr: 0x100019DD0, symSize: 0x2C }
  - { offsetInCU: 0x511DA, offset: 0x511DA, size: 0x8, addend: 0x0, symName: __ZNSt3__116__hash_node_baseIPNS_11__hash_nodeINS_12basic_stringIcNS_11char_traitsIcEENS_9allocatorIcEEEEPvEEEC1B8ue170006Ev, symObjAddr: 0x159B4, symBinAddr: 0x100019DFC, symSize: 0x2C }
  - { offsetInCU: 0x51204, offset: 0x51204, size: 0x8, addend: 0x0, symName: __ZNSt3__116__hash_node_baseIPNS_11__hash_nodeINS_12basic_stringIcNS_11char_traitsIcEENS_9allocatorIcEEEEPvEEEC2B8ue170006Ev, symObjAddr: 0x159E0, symBinAddr: 0x100019E28, symSize: 0x18 }
  - { offsetInCU: 0x5122E, offset: 0x5122E, size: 0x8, addend: 0x0, symName: __ZNSt3__19allocatorINS_11__hash_nodeINS_12basic_stringIcNS_11char_traitsIcEENS0_IcEEEEPvEEEC2B8ue170006Ev, symObjAddr: 0x159F8, symBinAddr: 0x100019E40, symSize: 0x2C }
  - { offsetInCU: 0x51258, offset: 0x51258, size: 0x8, addend: 0x0, symName: __ZNSt3__116__non_trivial_ifILb1ENS_9allocatorINS_11__hash_nodeINS_12basic_stringIcNS_11char_traitsIcEENS1_IcEEEEPvEEEEEC2B8ue170006Ev, symObjAddr: 0x15A24, symBinAddr: 0x100019E6C, symSize: 0x14 }
  - { offsetInCU: 0x51282, offset: 0x51282, size: 0x8, addend: 0x0, symName: __ZNSt3__117__compressed_pairImNS_4hashINS_12basic_stringIcNS_11char_traitsIcEENS_9allocatorIcEEEEEEEC2B8ue170006IiNS_18__default_init_tagEEEOT_OT0_, symObjAddr: 0x15A38, symBinAddr: 0x100019E80, symSize: 0x40 }
  - { offsetInCU: 0x512DA, offset: 0x512DA, size: 0x8, addend: 0x0, symName: __ZNSt3__122__compressed_pair_elemINS_4hashINS_12basic_stringIcNS_11char_traitsIcEENS_9allocatorIcEEEEEELi1ELb1EEC2B8ue170006ENS_18__default_init_tagE, symObjAddr: 0x15A78, symBinAddr: 0x100019EC0, symSize: 0x14 }
  - { offsetInCU: 0x5130E, offset: 0x5130E, size: 0x8, addend: 0x0, symName: __ZNSt3__117__compressed_pairIfNS_8equal_toINS_12basic_stringIcNS_11char_traitsIcEENS_9allocatorIcEEEEEEEC2B8ue170006IfNS_18__default_init_tagEEEOT_OT0_, symObjAddr: 0x15A8C, symBinAddr: 0x100019ED4, symSize: 0x40 }
  - { offsetInCU: 0x51366, offset: 0x51366, size: 0x8, addend: 0x0, symName: __ZNSt3__122__compressed_pair_elemINS_8equal_toINS_12basic_stringIcNS_11char_traitsIcEENS_9allocatorIcEEEEEELi1ELb1EEC2B8ue170006ENS_18__default_init_tagE, symObjAddr: 0x15ACC, symBinAddr: 0x100019F14, symSize: 0x14 }
  - { offsetInCU: 0x5139A, offset: 0x5139A, size: 0x8, addend: 0x0, symName: __ZNSt3__113unordered_setINS_12basic_stringIcNS_11char_traitsIcEENS_9allocatorIcEEEENS_4hashIS6_EENS_8equal_toIS6_EENS4_IS6_EEED2B8ue170006Ev, symObjAddr: 0x15AE0, symBinAddr: 0x100019F28, symSize: 0x2C }
  - { offsetInCU: 0x513C4, offset: 0x513C4, size: 0x8, addend: 0x0, symName: __ZNSt3__112__hash_tableINS_12basic_stringIcNS_11char_traitsIcEENS_9allocatorIcEEEENS_4hashIS6_EENS_8equal_toIS6_EENS4_IS6_EEED1Ev, symObjAddr: 0x15B0C, symBinAddr: 0x100019F54, symSize: 0x2C }
  - { offsetInCU: 0x513F0, offset: 0x513F0, size: 0x8, addend: 0x0, symName: __ZNSt3__112__hash_tableINS_12basic_stringIcNS_11char_traitsIcEENS_9allocatorIcEEEENS_4hashIS6_EENS_8equal_toIS6_EENS4_IS6_EEED2Ev, symObjAddr: 0x15B38, symBinAddr: 0x100019F80, symSize: 0x48 }
  - { offsetInCU: 0x5141C, offset: 0x5141C, size: 0x8, addend: 0x0, symName: __ZNSt3__112__hash_tableINS_12basic_stringIcNS_11char_traitsIcEENS_9allocatorIcEEEENS_4hashIS6_EENS_8equal_toIS6_EENS4_IS6_EEE17__deallocate_nodeEPNS_16__hash_node_baseIPNS_11__hash_nodeIS6_PvEEEE, symObjAddr: 0x15B80, symBinAddr: 0x100019FC8, symSize: 0xA8 }
  - { offsetInCU: 0x5148B, offset: 0x5148B, size: 0x8, addend: 0x0, symName: __ZNSt3__117__compressed_pairINS_16__hash_node_baseIPNS_11__hash_nodeINS_12basic_stringIcNS_11char_traitsIcEENS_9allocatorIcEEEEPvEEEENS6_ISA_EEE5firstB8ue170006Ev, symObjAddr: 0x15C28, symBinAddr: 0x10001A070, symSize: 0x24 }
  - { offsetInCU: 0x514B1, offset: 0x514B1, size: 0x8, addend: 0x0, symName: __ZNSt3__110unique_ptrIA_PNS_16__hash_node_baseIPNS_11__hash_nodeINS_12basic_stringIcNS_11char_traitsIcEENS_9allocatorIcEEEEPvEEEENS_25__bucket_list_deallocatorINS6_ISD_EEEEED1B8ue170006Ev, symObjAddr: 0x15C4C, symBinAddr: 0x10001A094, symSize: 0x2C }
  - { offsetInCU: 0x514DB, offset: 0x514DB, size: 0x8, addend: 0x0, symName: __ZNSt3__112__hash_tableINS_12basic_stringIcNS_11char_traitsIcEENS_9allocatorIcEEEENS_4hashIS6_EENS_8equal_toIS6_EENS4_IS6_EEE12__node_allocB8ue170006Ev, symObjAddr: 0x15C78, symBinAddr: 0x10001A0C0, symSize: 0x28 }
  - { offsetInCU: 0x51501, offset: 0x51501, size: 0x8, addend: 0x0, symName: __ZNSt3__116__hash_node_baseIPNS_11__hash_nodeINS_12basic_stringIcNS_11char_traitsIcEENS_9allocatorIcEEEEPvEEE8__upcastB8ue170006Ev, symObjAddr: 0x15CA0, symBinAddr: 0x10001A0E8, symSize: 0x24 }
  - { offsetInCU: 0x5152D, offset: 0x5152D, size: 0x8, addend: 0x0, symName: __ZNSt3__116allocator_traitsINS_9allocatorINS_11__hash_nodeINS_12basic_stringIcNS_11char_traitsIcEENS1_IcEEEEPvEEEEE7destroyB8ue170006IS7_vvEEvRSA_PT_, symObjAddr: 0x15CC4, symBinAddr: 0x10001A10C, symSize: 0x28 }
  - { offsetInCU: 0x51569, offset: 0x51569, size: 0x8, addend: 0x0, symName: __ZNSt3__122__hash_key_value_typesINS_12basic_stringIcNS_11char_traitsIcEENS_9allocatorIcEEEEE9__get_ptrB8ue170006ERS6_, symObjAddr: 0x15CEC, symBinAddr: 0x10001A134, symSize: 0x14 }
  - { offsetInCU: 0x5158C, offset: 0x5158C, size: 0x8, addend: 0x0, symName: __ZNSt3__116allocator_traitsINS_9allocatorINS_11__hash_nodeINS_12basic_stringIcNS_11char_traitsIcEENS1_IcEEEEPvEEEEE10deallocateB8ue170006ERSA_PS9_m, symObjAddr: 0x15D00, symBinAddr: 0x10001A148, symSize: 0x34 }
  - { offsetInCU: 0x515D1, offset: 0x515D1, size: 0x8, addend: 0x0, symName: __ZNSt3__117__compressed_pairINS_16__hash_node_baseIPNS_11__hash_nodeINS_12basic_stringIcNS_11char_traitsIcEENS_9allocatorIcEEEEPvEEEENS6_ISA_EEE6secondB8ue170006Ev, symObjAddr: 0x15D34, symBinAddr: 0x10001A17C, symSize: 0x24 }
  - { offsetInCU: 0x515F7, offset: 0x515F7, size: 0x8, addend: 0x0, symName: __ZNSt3__122__compressed_pair_elemINS_9allocatorINS_11__hash_nodeINS_12basic_stringIcNS_11char_traitsIcEENS1_IcEEEEPvEEEELi1ELb1EE5__getB8ue170006Ev, symObjAddr: 0x15D58, symBinAddr: 0x10001A1A0, symSize: 0x14 }
  - { offsetInCU: 0x5161D, offset: 0x5161D, size: 0x8, addend: 0x0, symName: __ZNSt3__114pointer_traitsIPNS_16__hash_node_baseIPNS_11__hash_nodeINS_12basic_stringIcNS_11char_traitsIcEENS_9allocatorIcEEEEPvEEEEE10pointer_toB8ue170006ERSC_, symObjAddr: 0x15D6C, symBinAddr: 0x10001A1B4, symSize: 0x14 }
  - { offsetInCU: 0x51640, offset: 0x51640, size: 0x8, addend: 0x0, symName: __ZNSt3__19allocatorINS_11__hash_nodeINS_12basic_stringIcNS_11char_traitsIcEENS0_IcEEEEPvEEE10deallocateB8ue170006EPS8_m, symObjAddr: 0x15D80, symBinAddr: 0x10001A1C8, symSize: 0x44 }
  - { offsetInCU: 0x51682, offset: 0x51682, size: 0x8, addend: 0x0, symName: __ZNSt3__122__compressed_pair_elemINS_16__hash_node_baseIPNS_11__hash_nodeINS_12basic_stringIcNS_11char_traitsIcEENS_9allocatorIcEEEEPvEEEELi0ELb0EE5__getB8ue170006Ev, symObjAddr: 0x15DC4, symBinAddr: 0x10001A20C, symSize: 0x14 }
  - { offsetInCU: 0x516A8, offset: 0x516A8, size: 0x8, addend: 0x0, symName: __ZNSt3__110unique_ptrIA_PNS_16__hash_node_baseIPNS_11__hash_nodeINS_12basic_stringIcNS_11char_traitsIcEENS_9allocatorIcEEEEPvEEEENS_25__bucket_list_deallocatorINS6_ISD_EEEEED2B8ue170006Ev, symObjAddr: 0x15DD8, symBinAddr: 0x10001A220, symSize: 0x30 }
  - { offsetInCU: 0x516D2, offset: 0x516D2, size: 0x8, addend: 0x0, symName: __ZNSt3__110unique_ptrIA_PNS_16__hash_node_baseIPNS_11__hash_nodeINS_12basic_stringIcNS_11char_traitsIcEENS_9allocatorIcEEEEPvEEEENS_25__bucket_list_deallocatorINS6_ISD_EEEEE5resetB8ue170006EDn, symObjAddr: 0x15E08, symBinAddr: 0x10001A250, symSize: 0x6C }
  - { offsetInCU: 0x51714, offset: 0x51714, size: 0x8, addend: 0x0, symName: __ZNSt3__117__compressed_pairIPPNS_16__hash_node_baseIPNS_11__hash_nodeINS_12basic_stringIcNS_11char_traitsIcEENS_9allocatorIcEEEEPvEEEENS_25__bucket_list_deallocatorINS6_ISD_EEEEE5firstB8ue170006Ev, symObjAddr: 0x15E74, symBinAddr: 0x10001A2BC, symSize: 0x24 }
  - { offsetInCU: 0x5173A, offset: 0x5173A, size: 0x8, addend: 0x0, symName: __ZNSt3__117__compressed_pairIPPNS_16__hash_node_baseIPNS_11__hash_nodeINS_12basic_stringIcNS_11char_traitsIcEENS_9allocatorIcEEEEPvEEEENS_25__bucket_list_deallocatorINS6_ISD_EEEEE6secondB8ue170006Ev, symObjAddr: 0x15E98, symBinAddr: 0x10001A2E0, symSize: 0x28 }
  - { offsetInCU: 0x51760, offset: 0x51760, size: 0x8, addend: 0x0, symName: __ZNSt3__125__bucket_list_deallocatorINS_9allocatorIPNS_16__hash_node_baseIPNS_11__hash_nodeINS_12basic_stringIcNS_11char_traitsIcEENS1_IcEEEEPvEEEEEEEclB8ue170006EPSD_, symObjAddr: 0x15EC0, symBinAddr: 0x10001A308, symSize: 0x58 }
  - { offsetInCU: 0x51796, offset: 0x51796, size: 0x8, addend: 0x0, symName: __ZNSt3__122__compressed_pair_elemIPPNS_16__hash_node_baseIPNS_11__hash_nodeINS_12basic_stringIcNS_11char_traitsIcEENS_9allocatorIcEEEEPvEEEELi0ELb0EE5__getB8ue170006Ev, symObjAddr: 0x15F18, symBinAddr: 0x10001A360, symSize: 0x14 }
  - { offsetInCU: 0x517BC, offset: 0x517BC, size: 0x8, addend: 0x0, symName: __ZNSt3__122__compressed_pair_elemINS_25__bucket_list_deallocatorINS_9allocatorIPNS_16__hash_node_baseIPNS_11__hash_nodeINS_12basic_stringIcNS_11char_traitsIcEENS2_IcEEEEPvEEEEEEEELi1ELb0EE5__getB8ue170006Ev, symObjAddr: 0x15F2C, symBinAddr: 0x10001A374, symSize: 0x14 }
  - { offsetInCU: 0x517E2, offset: 0x517E2, size: 0x8, addend: 0x0, symName: __ZNSt3__116allocator_traitsINS_9allocatorIPNS_16__hash_node_baseIPNS_11__hash_nodeINS_12basic_stringIcNS_11char_traitsIcEENS1_IcEEEEPvEEEEEEE10deallocateB8ue170006ERSE_PSD_m, symObjAddr: 0x15F40, symBinAddr: 0x10001A388, symSize: 0x34 }
  - { offsetInCU: 0x51827, offset: 0x51827, size: 0x8, addend: 0x0, symName: __ZNSt3__125__bucket_list_deallocatorINS_9allocatorIPNS_16__hash_node_baseIPNS_11__hash_nodeINS_12basic_stringIcNS_11char_traitsIcEENS1_IcEEEEPvEEEEEEE7__allocB8ue170006Ev, symObjAddr: 0x15F74, symBinAddr: 0x10001A3BC, symSize: 0x24 }
  - { offsetInCU: 0x5184D, offset: 0x5184D, size: 0x8, addend: 0x0, symName: __ZNSt3__125__bucket_list_deallocatorINS_9allocatorIPNS_16__hash_node_baseIPNS_11__hash_nodeINS_12basic_stringIcNS_11char_traitsIcEENS1_IcEEEEPvEEEEEEE4sizeB8ue170006Ev, symObjAddr: 0x15F98, symBinAddr: 0x10001A3E0, symSize: 0x24 }
  - { offsetInCU: 0x51873, offset: 0x51873, size: 0x8, addend: 0x0, symName: __ZNSt3__19allocatorIPNS_16__hash_node_baseIPNS_11__hash_nodeINS_12basic_stringIcNS_11char_traitsIcEENS0_IcEEEEPvEEEEE10deallocateB8ue170006EPSC_m, symObjAddr: 0x15FBC, symBinAddr: 0x10001A404, symSize: 0x40 }
  - { offsetInCU: 0x518B5, offset: 0x518B5, size: 0x8, addend: 0x0, symName: __ZNSt3__117__compressed_pairImNS_9allocatorIPNS_16__hash_node_baseIPNS_11__hash_nodeINS_12basic_stringIcNS_11char_traitsIcEENS1_IcEEEEPvEEEEEEE6secondB8ue170006Ev, symObjAddr: 0x15FFC, symBinAddr: 0x10001A444, symSize: 0x24 }
  - { offsetInCU: 0x518DB, offset: 0x518DB, size: 0x8, addend: 0x0, symName: __ZNSt3__122__compressed_pair_elemINS_9allocatorIPNS_16__hash_node_baseIPNS_11__hash_nodeINS_12basic_stringIcNS_11char_traitsIcEENS1_IcEEEEPvEEEEEELi1ELb1EE5__getB8ue170006Ev, symObjAddr: 0x16020, symBinAddr: 0x10001A468, symSize: 0x14 }
  - { offsetInCU: 0x51901, offset: 0x51901, size: 0x8, addend: 0x0, symName: __ZNSt3__117__compressed_pairImNS_9allocatorIPNS_16__hash_node_baseIPNS_11__hash_nodeINS_12basic_stringIcNS_11char_traitsIcEENS1_IcEEEEPvEEEEEEE5firstB8ue170006Ev, symObjAddr: 0x16034, symBinAddr: 0x10001A47C, symSize: 0x24 }
  - { offsetInCU: 0x51927, offset: 0x51927, size: 0x8, addend: 0x0, symName: __ZNSt3__18functionIFNS_6vectorIhNS_9allocatorIhEEEEN3xpf13string_viewexEEEC2B8ue170006Ev, symObjAddr: 0x16058, symBinAddr: 0x10001A4A0, symSize: 0x2C }
  - { offsetInCU: 0x51951, offset: 0x51951, size: 0x8, addend: 0x0, symName: __ZNSt3__110__function12__value_funcIFNS_6vectorIhNS_9allocatorIhEEEEN3xpf13string_viewexEEEC1B8ue170006Ev, symObjAddr: 0x16084, symBinAddr: 0x10001A4CC, symSize: 0x2C }
  - { offsetInCU: 0x5197B, offset: 0x5197B, size: 0x8, addend: 0x0, symName: __ZNSt3__110__function12__value_funcIFNS_6vectorIhNS_9allocatorIhEEEEN3xpf13string_viewexEEEC2B8ue170006Ev, symObjAddr: 0x160B0, symBinAddr: 0x10001A4F8, symSize: 0x18 }
  - { offsetInCU: 0x519A5, offset: 0x519A5, size: 0x8, addend: 0x0, symName: __ZNSt3__18functionIFNS_6vectorIhNS_9allocatorIhEEEEN3xpf13string_viewexEEED2Ev, symObjAddr: 0x160C8, symBinAddr: 0x10001A510, symSize: 0x2C }
  - { offsetInCU: 0x519D1, offset: 0x519D1, size: 0x8, addend: 0x0, symName: __ZNSt3__110__function12__value_funcIFNS_6vectorIhNS_9allocatorIhEEEEN3xpf13string_viewexEEED1B8ue170006Ev, symObjAddr: 0x160F4, symBinAddr: 0x10001A53C, symSize: 0x2C }
  - { offsetInCU: 0x519FB, offset: 0x519FB, size: 0x8, addend: 0x0, symName: __ZNSt3__110__function12__value_funcIFNS_6vectorIhNS_9allocatorIhEEEEN3xpf13string_viewexEEED2B8ue170006Ev, symObjAddr: 0x16120, symBinAddr: 0x10001A568, symSize: 0x90 }
  - { offsetInCU: 0x51A25, offset: 0x51A25, size: 0x8, addend: 0x0, symName: __ZNSt3__18functionIFNS_12basic_stringIcNS_11char_traitsIcEENS_9allocatorIcEEEEN3xpf13string_viewexEEEC2B8ue170006Ev, symObjAddr: 0x161B0, symBinAddr: 0x10001A5F8, symSize: 0x2C }
  - { offsetInCU: 0x51A4F, offset: 0x51A4F, size: 0x8, addend: 0x0, symName: __ZNSt3__110__function12__value_funcIFNS_12basic_stringIcNS_11char_traitsIcEENS_9allocatorIcEEEEN3xpf13string_viewexEEEC1B8ue170006Ev, symObjAddr: 0x161DC, symBinAddr: 0x10001A624, symSize: 0x2C }
  - { offsetInCU: 0x51A79, offset: 0x51A79, size: 0x8, addend: 0x0, symName: __ZNSt3__110__function12__value_funcIFNS_12basic_stringIcNS_11char_traitsIcEENS_9allocatorIcEEEEN3xpf13string_viewexEEEC2B8ue170006Ev, symObjAddr: 0x16208, symBinAddr: 0x10001A650, symSize: 0x18 }
  - { offsetInCU: 0x51AA3, offset: 0x51AA3, size: 0x8, addend: 0x0, symName: __ZNSt3__18functionIFNS_12basic_stringIcNS_11char_traitsIcEENS_9allocatorIcEEEEN3xpf13string_viewexEEED2Ev, symObjAddr: 0x16220, symBinAddr: 0x10001A668, symSize: 0x2C }
  - { offsetInCU: 0x51ACF, offset: 0x51ACF, size: 0x8, addend: 0x0, symName: __ZNSt3__110__function12__value_funcIFNS_12basic_stringIcNS_11char_traitsIcEENS_9allocatorIcEEEEN3xpf13string_viewexEEED1B8ue170006Ev, symObjAddr: 0x1624C, symBinAddr: 0x10001A694, symSize: 0x2C }
  - { offsetInCU: 0x51AF9, offset: 0x51AF9, size: 0x8, addend: 0x0, symName: __ZNSt3__110__function12__value_funcIFNS_12basic_stringIcNS_11char_traitsIcEENS_9allocatorIcEEEEN3xpf13string_viewexEEED2B8ue170006Ev, symObjAddr: 0x16278, symBinAddr: 0x10001A6C0, symSize: 0x90 }
  - { offsetInCU: 0x49, offset: 0x523C7, size: 0x8, addend: 0x0, symName: __ZN3xpf4mathL13s_lerpPoints2E, symObjAddr: 0x98358, symBinAddr: 0x100174300, symSize: 0x0 }
  - { offsetInCU: 0x62, offset: 0x523E0, size: 0x8, addend: 0x0, symName: __ZN3xpf4mathL14s_lerpPoints10E, symObjAddr: 0x98370, symBinAddr: 0x100174318, symSize: 0x0 }
  - { offsetInCU: 0x7B, offset: 0x523F9, size: 0x8, addend: 0x0, symName: __ZN3xpf4mathL14s_lerpPoints20E, symObjAddr: 0x98388, symBinAddr: 0x100174330, symSize: 0x0 }
  - { offsetInCU: 0x94, offset: 0x52412, size: 0x8, addend: 0x0, symName: __ZN3xpf4mathL14s_lerpPoints40E, symObjAddr: 0x983A0, symBinAddr: 0x100174348, symSize: 0x0 }
  - { offsetInCU: 0xAD, offset: 0x5242B, size: 0x8, addend: 0x0, symName: __ZN3xpf4mathL15s_lerpPoints200E, symObjAddr: 0x983B8, symBinAddr: 0x100174360, symSize: 0x0 }
  - { offsetInCU: 0x4564, offset: 0x568E2, size: 0x8, addend: 0x0, symName: __ZNSt3__14__fs10filesystem12current_pathB8ue170006Ev, symObjAddr: 0x818, symBinAddr: 0x10001B594, symSize: 0x28 }
  - { offsetInCU: 0xE415, offset: 0x60793, size: 0x8, addend: 0x0, symName: __ZNSt3__16chronoplB8ue170006INS0_12steady_clockENS0_8durationIxNS_5ratioILl1ELl1000000000EEEEExNS4_ILl1ELl1000EEEEENS0_10time_pointIT_NS_11common_typeIJT0_NS3_IT1_T2_EEEE4typeEEERKNS8_IS9_SB_EERKSE_, symObjAddr: 0x7CEC, symBinAddr: 0x10001DD90, symSize: 0x50 }
  - { offsetInCU: 0xE572, offset: 0x608F0, size: 0x8, addend: 0x0, symName: __ZNSt3__16chronoplB8ue170006IxNS_5ratioILl1ELl1000000000EEExNS2_ILl1ELl1000EEEEENS_11common_typeIJNS0_8durationIT_T0_EENS6_IT1_T2_EEEE4typeERKS9_RKSC_, symObjAddr: 0x7FC8, symBinAddr: 0x10001E06C, symSize: 0x7C }
  - { offsetInCU: 0xE62D, offset: 0x609AB, size: 0x8, addend: 0x0, symName: __ZNSt3__16chronomiB8ue170006IxNS_5ratioILl1ELl1000000000EEExS3_EENS_11common_typeIJNS0_8durationIT_T0_EENS5_IT1_T2_EEEE4typeERKS8_RKSB_, symObjAddr: 0x84F4, symBinAddr: 0x10001E528, symSize: 0x70 }
  - { offsetInCU: 0xE6A6, offset: 0x60A24, size: 0x8, addend: 0x0, symName: __ZNSt3__16chrono13duration_castB8ue170006INS0_8durationIxNS_5ratioILl1ELl1000000000EEEEExNS3_ILl1ELl1000EEEEENS_9enable_ifIXsr13__is_durationIT_EE5valueES8_E4typeERKNS2_IT0_T1_EE, symObjAddr: 0x8178, symBinAddr: 0x10001E21C, symSize: 0x30 }
  - { offsetInCU: 0xE6ED, offset: 0x60A6B, size: 0x8, addend: 0x0, symName: __ZNSt3__16chronomiB8ue170006INS0_12steady_clockENS0_8durationIxNS_5ratioILl1ELl1000000000EEEEES6_EENS_11common_typeIJT0_T1_EE4typeERKNS0_10time_pointIT_S8_EERKNSC_ISD_S9_EE, symObjAddr: 0x849C, symBinAddr: 0x10001E4D0, symSize: 0x58 }
  - { offsetInCU: 0xEF3E, offset: 0x612BC, size: 0x8, addend: 0x0, symName: __ZNSt3__117__cxx_atomic_loadB8ue170006IbEET_PKNS_22__cxx_atomic_base_implIS1_EENS_12memory_orderE, symObjAddr: 0x7F44, symBinAddr: 0x10001DFE8, symSize: 0x84 }
  - { offsetInCU: 0xFDEC, offset: 0x6216A, size: 0x8, addend: 0x0, symName: __ZNSt3__119__allocate_at_leastB8ue170006INS_9allocatorIN3xpf13string_viewexEEEEENS_19__allocation_resultINS_16allocator_traitsIT_E7pointerEEERS7_m, symObjAddr: 0x376C, symBinAddr: 0x10001BE08, symSize: 0x40 }
  - { offsetInCU: 0xFE2F, offset: 0x621AD, size: 0x8, addend: 0x0, symName: __ZNSt3__142__uninitialized_allocator_move_if_noexceptB8ue170006INS_9allocatorIN3xpf13string_viewexEEENS_16reverse_iteratorIPS3_EES7_S3_vEET1_RT_T0_SB_S8_, symObjAddr: 0x39EC, symBinAddr: 0x10001C088, symSize: 0x78 }
  - { offsetInCU: 0xFEB1, offset: 0x6222F, size: 0x8, addend: 0x0, symName: __ZNSt3__14swapB8ue170006IPN3xpf13string_viewexEEENS_9enable_ifIXaasr21is_move_constructibleIT_EE5valuesr18is_move_assignableIS5_EE5valueEvE4typeERS5_S8_, symObjAddr: 0x3AB0, symBinAddr: 0x10001C14C, symSize: 0x3C }
  - { offsetInCU: 0xFF02, offset: 0x62280, size: 0x8, addend: 0x0, symName: __ZNSt3__112__to_addressB8ue170006IN3xpf13string_viewexEEEPT_S4_, symObjAddr: 0x3C08, symBinAddr: 0x10001C2A4, symSize: 0x14 }
  - { offsetInCU: 0xFF37, offset: 0x622B5, size: 0x8, addend: 0x0, symName: __ZNSt3__14moveB8ue170006INS_16reverse_iteratorIPN3xpf13string_viewexEEES5_EET0_T_S7_S6_, symObjAddr: 0x3C1C, symBinAddr: 0x10001C2B8, symSize: 0x78 }
  - { offsetInCU: 0xFF91, offset: 0x6230F, size: 0x8, addend: 0x0, symName: __ZNSt3__16__moveB8ue170006INS_17_ClassicAlgPolicyENS_16reverse_iteratorIPN3xpf13string_viewexEEES6_S6_EENS_4pairIT0_T2_EES8_T1_S9_, symObjAddr: 0x3C94, symBinAddr: 0x10001C330, symSize: 0x64 }
  - { offsetInCU: 0xFFFD, offset: 0x6237B, size: 0x8, addend: 0x0, symName: __ZNSt3__123__dispatch_copy_or_moveB8ue170006INS_17_ClassicAlgPolicyENS_11__move_loopIS1_EENS_14__move_trivialENS_16reverse_iteratorIPN3xpf13string_viewexEEES9_S9_EENS_4pairIT2_T4_EESB_T3_SC_, symObjAddr: 0x3CF8, symBinAddr: 0x10001C394, symSize: 0x64 }
  - { offsetInCU: 0x1007B, offset: 0x623F9, size: 0x8, addend: 0x0, symName: __ZNSt3__121__unwrap_and_dispatchB8ue170006INS_10__overloadINS_11__move_loopINS_17_ClassicAlgPolicyEEENS_14__move_trivialEEENS_16reverse_iteratorIPN3xpf13string_viewexEEESB_SB_Li0EEENS_4pairIT0_T2_EESD_T1_SE_, symObjAddr: 0x3D5C, symBinAddr: 0x10001C3F8, symSize: 0x12C }
  - { offsetInCU: 0x1010B, offset: 0x62489, size: 0x8, addend: 0x0, symName: __ZNSt3__114__unwrap_rangeB8ue170006INS_16reverse_iteratorIPN3xpf13string_viewexEEES5_EEDaT_T0_, symObjAddr: 0x3E88, symBinAddr: 0x10001C524, symSize: 0x4C }
  - { offsetInCU: 0x1022B, offset: 0x625A9, size: 0x8, addend: 0x0, symName: __ZNSt3__113__unwrap_iterB8ue170006INS_16reverse_iteratorIPN3xpf13string_viewexEEENS_18__unwrap_iter_implIS5_Lb0EEELi0EEEDTclsrT0_8__unwrapclsr3stdE7declvalIT_EEEES9_, symObjAddr: 0x3F74, symBinAddr: 0x10001C610, symSize: 0x44 }
  - { offsetInCU: 0x1026F, offset: 0x625ED, size: 0x8, addend: 0x0, symName: __ZNSt3__19make_pairB8ue170006INS_16reverse_iteratorIPN3xpf13string_viewexEEES5_EENS_4pairINS_18__unwrap_ref_decayIT_E4typeENS7_IT0_E4typeEEEOS8_OSB_, symObjAddr: 0x3FB8, symBinAddr: 0x10001C654, symSize: 0x38 }
  - { offsetInCU: 0x102C1, offset: 0x6263F, size: 0x8, addend: 0x0, symName: __ZNSt3__114__rewrap_rangeB8ue170006INS_16reverse_iteratorIPN3xpf13string_viewexEEES5_S5_EET0_S6_T1_, symObjAddr: 0x3FF0, symBinAddr: 0x10001C68C, symSize: 0x5C }
  - { offsetInCU: 0x10316, offset: 0x62694, size: 0x8, addend: 0x0, symName: __ZNSt3__113__rewrap_iterB8ue170006INS_16reverse_iteratorIPN3xpf13string_viewexEEES5_NS_18__unwrap_iter_implIS5_Lb0EEEEET_S8_T0_, symObjAddr: 0x404C, symBinAddr: 0x10001C6E8, symSize: 0x74 }
  - { offsetInCU: 0x103BB, offset: 0x62739, size: 0x8, addend: 0x0, symName: __ZNSt3__1neB8ue170006IPN3xpf13string_viewexES3_EEbRKNS_16reverse_iteratorIT_EERKNS4_IT0_EE, symObjAddr: 0x41B4, symBinAddr: 0x10001C850, symSize: 0x48 }
  - { offsetInCU: 0x10473, offset: 0x627F1, size: 0x8, addend: 0x0, symName: __ZNSt3__110destroy_atB8ue170006IN3xpf13string_viewexELi0EEEvPT_, symObjAddr: 0x4564, symBinAddr: 0x10001CC00, symSize: 0x24 }
  - { offsetInCU: 0x104AB, offset: 0x62829, size: 0x8, addend: 0x0, symName: __ZNSt3__112__destroy_atB8ue170006IN3xpf13string_viewexELi0EEEvPT_, symObjAddr: 0x4588, symBinAddr: 0x10001CC24, symSize: 0x10 }
  - { offsetInCU: 0x1050A, offset: 0x62888, size: 0x8, addend: 0x0, symName: __ZNSt3__112construct_atB8ue170006IN3xpf13string_viewexEJS2_EPS2_EEPT_S5_DpOT0_, symObjAddr: 0x4868, symBinAddr: 0x10001CF04, symSize: 0x2C }
  - { offsetInCU: 0x1057C, offset: 0x628FA, size: 0x8, addend: 0x0, symName: __ZNSt3__1plB8ue170006IcNS_11char_traitsIcEENS_9allocatorIcEEEENS_12basic_stringIT_T0_T1_EEPKS6_OS9_, symObjAddr: 0x7028, symBinAddr: 0x10001D18C, symSize: 0x44 }
  - { offsetInCU: 0x109D4, offset: 0x62D52, size: 0x8, addend: 0x0, symName: __ZNSt3__122__libcpp_thread_createB8ue170006EPP17_opaque_pthread_tPFPvS3_ES3_, symObjAddr: 0x73AC, symBinAddr: 0x10001D450, symSize: 0x38 }
  - { offsetInCU: 0x10A24, offset: 0x62DA2, size: 0x8, addend: 0x0, symName: __ZNSt3__114__thread_proxyB8ue170006INS_5tupleIJNS_10unique_ptrINS_15__thread_structENS_14default_deleteIS3_EEEEZN3xpf12TweenService5StartEvEUlvE_EEEEEPvSB_, symObjAddr: 0x73E4, symBinAddr: 0x10001D488, symSize: 0x90 }
  - { offsetInCU: 0x10B68, offset: 0x62EE6, size: 0x8, addend: 0x0, symName: __ZNSt3__13getB8ue170006ILm0EJNS_10unique_ptrINS_15__thread_structENS_14default_deleteIS2_EEEEZN3xpf12TweenService5StartEvEUlvE_EEERNS_13tuple_elementIXT_ENS_5tupleIJDpT0_EEEE4typeERSD_, symObjAddr: 0x7A88, symBinAddr: 0x10001DB2C, symSize: 0x24 }
  - { offsetInCU: 0x10BB2, offset: 0x62F30, size: 0x8, addend: 0x0, symName: __ZNSt3__116__thread_executeB8ue170006INS_10unique_ptrINS_15__thread_structENS_14default_deleteIS2_EEEEZN3xpf12TweenService5StartEvEUlvE_JEJEEEvRNS_5tupleIJT_T0_DpT1_EEENS_15__tuple_indicesIJXspT2_EEEE, symObjAddr: 0x7AAC, symBinAddr: 0x10001DB50, symSize: 0x28 }
  - { offsetInCU: 0x10C03, offset: 0x62F81, size: 0x8, addend: 0x0, symName: __ZNSt3__116__libcpp_tls_setB8ue170006EmPv, symObjAddr: 0x7AD4, symBinAddr: 0x10001DB78, symSize: 0x2C }
  - { offsetInCU: 0x10C43, offset: 0x62FC1, size: 0x8, addend: 0x0, symName: __ZNSt3__18__invokeB8ue170006IZN3xpf12TweenService5StartEvEUlvE_JEEEDTclclsr3stdE7declvalIT_EEspclsr3stdE7declvalIT0_EEEEOS4_DpOS5_, symObjAddr: 0x7B14, symBinAddr: 0x10001DBB8, symSize: 0x24 }
  - { offsetInCU: 0x10C7E, offset: 0x62FFC, size: 0x8, addend: 0x0, symName: __ZNSt3__13getB8ue170006ILm1EJNS_10unique_ptrINS_15__thread_structENS_14default_deleteIS2_EEEEZN3xpf12TweenService5StartEvEUlvE_EEERNS_13tuple_elementIXT_ENS_5tupleIJDpT0_EEEE4typeERSD_, symObjAddr: 0x7B38, symBinAddr: 0x10001DBDC, symSize: 0x24 }
  - { offsetInCU: 0x10D58, offset: 0x630D6, size: 0x8, addend: 0x0, symName: __ZNSt3__1neB8ue170006ERKNS_21__hash_const_iteratorIPNS_11__hash_nodeIPN3xpf9TweenBaseEPvEEEESA_, symObjAddr: 0x7E1C, symBinAddr: 0x10001DEC0, symSize: 0x34 }
  - { offsetInCU: 0x10D9D, offset: 0x6311B, size: 0x8, addend: 0x0, symName: __ZNSt3__111this_thread11sleep_untilB8ue170006INS_6chrono8durationIxNS_5ratioILl1ELl1000000000EEEEEEEvRKNS2_10time_pointINS2_12steady_clockET_EE, symObjAddr: 0x7EC8, symBinAddr: 0x10001DF6C, symSize: 0x4C }
  - { offsetInCU: 0x10DD0, offset: 0x6314E, size: 0x8, addend: 0x0, symName: __ZNSt3__1eqB8ue170006ERKNS_21__hash_const_iteratorIPNS_11__hash_nodeIPN3xpf9TweenBaseEPvEEEESA_, symObjAddr: 0x8404, symBinAddr: 0x10001E470, symSize: 0x30 }
  - { offsetInCU: 0x10E10, offset: 0x6318E, size: 0x8, addend: 0x0, symName: __ZNSt3__122__libcpp_thread_isnullB8ue170006EPKP17_opaque_pthread_t, symObjAddr: 0x88E4, symBinAddr: 0x10001E918, symSize: 0x30 }
  - { offsetInCU: 0x10E40, offset: 0x631BE, size: 0x8, addend: 0x0, symName: __ZNSt3__122__libcpp_thread_get_idB8ue170006EPKP17_opaque_pthread_t, symObjAddr: 0x8914, symBinAddr: 0x10001E948, symSize: 0x18 }
  - { offsetInCU: 0x10E71, offset: 0x631EF, size: 0x8, addend: 0x0, symName: __ZNSt3__118__cxx_atomic_storeB8ue170006IbEEvPNS_22__cxx_atomic_base_implIT_EES2_NS_12memory_orderE, symObjAddr: 0x8B8C, symBinAddr: 0x10001EBC0, symSize: 0x90 }
  - { offsetInCU: 0x1120E, offset: 0x6358C, size: 0x8, addend: 0x0, symName: __ZN3xpf12TweenService9m_startedE, symObjAddr: 0x9FD1, symBinAddr: 0x1001727C9, symSize: 0x0 }
  - { offsetInCU: 0x11222, offset: 0x635A0, size: 0x8, addend: 0x0, symName: __ZN3xpf12TweenService10m_shutdownE, symObjAddr: 0x9FD2, symBinAddr: 0x1001727CA, symSize: 0x0 }
  - { offsetInCU: 0x11760, offset: 0x63ADE, size: 0x8, addend: 0x0, symName: __ZNSt3__16vectorIN3xpf13string_viewexENS_9allocatorIS2_EEE26__swap_out_circular_bufferERNS_14__split_bufferIS2_RS4_EE, symObjAddr: 0x3400, symBinAddr: 0x10001BA9C, symSize: 0x110 }
  - { offsetInCU: 0x11A0D, offset: 0x63D8B, size: 0x8, addend: 0x0, symName: __ZN3xpf12TweenService5StartEv, symObjAddr: 0x9C0, symBinAddr: 0x10001B6B8, symSize: 0x50 }
  - { offsetInCU: 0x11B3A, offset: 0x63EB8, size: 0x8, addend: 0x0, symName: __ZNKSt3__16chrono15__duration_castINS0_8durationIxNS_5ratioILl1ELl1000EEEEENS2_IxNS3_ILl1ELl1000000000EEEEENS3_ILl1000000ELl1EEELb0ELb1EEclB8ue170006ERKS5_, symObjAddr: 0x81A8, symBinAddr: 0x10001E24C, symSize: 0x4C }
  - { offsetInCU: 0x139E0, offset: 0x65D5E, size: 0x8, addend: 0x0, symName: __ZN3xpf11ApplicationC2Ev, symObjAddr: 0x22C, symBinAddr: 0x10001B034, symSize: 0x28 }
  - { offsetInCU: 0x13A0C, offset: 0x65D8A, size: 0x8, addend: 0x0, symName: __ZN3xpf11ApplicationC1Ev, symObjAddr: 0x254, symBinAddr: 0x10001B05C, symSize: 0x2C }
  - { offsetInCU: 0x13A38, offset: 0x65DB6, size: 0x8, addend: 0x0, symName: __ZN3xpf11ApplicationD2Ev, symObjAddr: 0x280, symBinAddr: 0x10001B088, symSize: 0x58 }
  - { offsetInCU: 0x13A64, offset: 0x65DE2, size: 0x8, addend: 0x0, symName: __ZN3xpf11ApplicationD1Ev, symObjAddr: 0x2E4, symBinAddr: 0x10001B0E0, symSize: 0x2C }
  - { offsetInCU: 0x13A90, offset: 0x65E0E, size: 0x8, addend: 0x0, symName: __ZN3xpf11ApplicationD0Ev, symObjAddr: 0x310, symBinAddr: 0x10001B10C, symSize: 0x30 }
  - { offsetInCU: 0x13ABC, offset: 0x65E3A, size: 0x8, addend: 0x0, symName: __ZN3xpf11Application5StartEiPPc, symObjAddr: 0x340, symBinAddr: 0x10001B13C, symSize: 0x2D8 }
  - { offsetInCU: 0x13B82, offset: 0x65F00, size: 0x8, addend: 0x0, symName: __ZNSt3__16vectorIN3xpf13string_viewexENS_9allocatorIS2_EEEC1B8ue170006Ev, symObjAddr: 0x618, symBinAddr: 0x10001B414, symSize: 0x2C }
  - { offsetInCU: 0x13BAC, offset: 0x65F2A, size: 0x8, addend: 0x0, symName: __ZNSt3__16vectorIN3xpf13string_viewexENS_9allocatorIS2_EEE7reserveEm, symObjAddr: 0x644, symBinAddr: 0x10001B440, symSize: 0xE8 }
  - { offsetInCU: 0x13C0C, offset: 0x65F8A, size: 0x8, addend: 0x0, symName: __ZNSt3__16vectorIN3xpf13string_viewexENS_9allocatorIS2_EEE9push_backB8ue170006EOS2_, symObjAddr: 0x72C, symBinAddr: 0x10001B528, symSize: 0x6C }
  - { offsetInCU: 0x13C44, offset: 0x65FC2, size: 0x8, addend: 0x0, symName: __ZNKSt3__14__fs10filesystem4path6stringB8ue170006Ev, symObjAddr: 0x840, symBinAddr: 0x10001B5BC, symSize: 0x38 }
  - { offsetInCU: 0x13C6A, offset: 0x65FE8, size: 0x8, addend: 0x0, symName: __ZNSt3__14__fs10filesystem4pathD1B8ue170006Ev, symObjAddr: 0x8C8, symBinAddr: 0x10001B5F4, symSize: 0x2C }
  - { offsetInCU: 0x13CB2, offset: 0x66030, size: 0x8, addend: 0x0, symName: '__ZZN3xpf11Application5StartEiPPcENK3$_0cvPFviPKcEEv', symObjAddr: 0x8F4, symBinAddr: 0x10001B620, symSize: 0x18 }
  - { offsetInCU: 0x13CDE, offset: 0x6605C, size: 0x8, addend: 0x0, symName: __ZN3xpf3Log5errorENSt3__117basic_string_viewIcNS1_11char_traitsIcEEEE, symObjAddr: 0x90C, symBinAddr: 0x10001B638, symSize: 0x80 }
  - { offsetInCU: 0x13D01, offset: 0x6607F, size: 0x8, addend: 0x0, symName: __ZNSt3__16vectorIN3xpf13string_viewexENS_9allocatorIS2_EEED1B8ue170006Ev, symObjAddr: 0xA10, symBinAddr: 0x10001B708, symSize: 0x2C }
  - { offsetInCU: 0x13D2B, offset: 0x660A9, size: 0x8, addend: 0x0, symName: __ZN3xpf12TweenService8ShutdownEv, symObjAddr: 0xA3C, symBinAddr: 0x10001B734, symSize: 0x4C }
  - { offsetInCU: 0x13D3F, offset: 0x660BD, size: 0x8, addend: 0x0, symName: __ZN3xpf11Application9OnStartupEONSt3__16vectorINS_13string_viewexENS1_9allocatorIS3_EEEE, symObjAddr: 0xB54, symBinAddr: 0x10001B780, symSize: 0x1C }
  - { offsetInCU: 0x13D71, offset: 0x660EF, size: 0x8, addend: 0x0, symName: __ZN3xpf11Application11OnExceptionERKSt9exception, symObjAddr: 0xB70, symBinAddr: 0x10001B79C, symSize: 0x88 }
  - { offsetInCU: 0x13DE0, offset: 0x6615E, size: 0x8, addend: 0x0, symName: __ZNSt3__16vectorIN3xpf13string_viewexENS_9allocatorIS2_EEEC2B8ue170006Ev, symObjAddr: 0x3160, symBinAddr: 0x10001B824, symSize: 0x4C }
  - { offsetInCU: 0x13E0A, offset: 0x66188, size: 0x8, addend: 0x0, symName: __ZNSt3__117__compressed_pairIPN3xpf13string_viewexENS_9allocatorIS2_EEEC1B8ue170006IDnNS_18__default_init_tagEEEOT_OT0_, symObjAddr: 0x31AC, symBinAddr: 0x10001B870, symSize: 0x3C }
  - { offsetInCU: 0x13E62, offset: 0x661E0, size: 0x8, addend: 0x0, symName: __ZNSt3__117__compressed_pairIPN3xpf13string_viewexENS_9allocatorIS2_EEEC2B8ue170006IDnNS_18__default_init_tagEEEOT_OT0_, symObjAddr: 0x31E8, symBinAddr: 0x10001B8AC, symSize: 0x40 }
  - { offsetInCU: 0x13EBA, offset: 0x66238, size: 0x8, addend: 0x0, symName: __ZNSt3__122__compressed_pair_elemIPN3xpf13string_viewexELi0ELb0EEC2B8ue170006IDnvEEOT_, symObjAddr: 0x3228, symBinAddr: 0x10001B8EC, symSize: 0x1C }
  - { offsetInCU: 0x13EFC, offset: 0x6627A, size: 0x8, addend: 0x0, symName: __ZNSt3__122__compressed_pair_elemINS_9allocatorIN3xpf13string_viewexEEELi1ELb1EEC2B8ue170006ENS_18__default_init_tagE, symObjAddr: 0x3244, symBinAddr: 0x10001B908, symSize: 0x2C }
  - { offsetInCU: 0x13F30, offset: 0x662AE, size: 0x8, addend: 0x0, symName: __ZNSt3__19allocatorIN3xpf13string_viewexEEC2B8ue170006Ev, symObjAddr: 0x3270, symBinAddr: 0x10001B934, symSize: 0x2C }
  - { offsetInCU: 0x13F5A, offset: 0x662D8, size: 0x8, addend: 0x0, symName: __ZNSt3__116__non_trivial_ifILb1ENS_9allocatorIN3xpf13string_viewexEEEEC2B8ue170006Ev, symObjAddr: 0x329C, symBinAddr: 0x10001B960, symSize: 0x14 }
  - { offsetInCU: 0x13F84, offset: 0x66302, size: 0x8, addend: 0x0, symName: __ZNKSt3__16vectorIN3xpf13string_viewexENS_9allocatorIS2_EEE8capacityB8ue170006Ev, symObjAddr: 0x32B0, symBinAddr: 0x10001B974, symSize: 0x40 }
  - { offsetInCU: 0x13FAA, offset: 0x66328, size: 0x8, addend: 0x0, symName: __ZNKSt3__16vectorIN3xpf13string_viewexENS_9allocatorIS2_EEE8max_sizeEv, symObjAddr: 0x32F0, symBinAddr: 0x10001B9B4, symSize: 0x60 }
  - { offsetInCU: 0x13FD2, offset: 0x66350, size: 0x8, addend: 0x0, symName: __ZNKSt3__16vectorIN3xpf13string_viewexENS_9allocatorIS2_EEE20__throw_length_errorB8ue170006Ev, symObjAddr: 0x3350, symBinAddr: 0x10001BA14, symSize: 0x1C }
  - { offsetInCU: 0x13FF8, offset: 0x66376, size: 0x8, addend: 0x0, symName: __ZNSt3__16vectorIN3xpf13string_viewexENS_9allocatorIS2_EEE7__allocB8ue170006Ev, symObjAddr: 0x336C, symBinAddr: 0x10001BA30, symSize: 0x28 }
  - { offsetInCU: 0x1401E, offset: 0x6639C, size: 0x8, addend: 0x0, symName: __ZNSt3__114__split_bufferIN3xpf13string_viewexERNS_9allocatorIS2_EEEC1EmmS5_, symObjAddr: 0x33BC, symBinAddr: 0x10001BA58, symSize: 0x44 }
  - { offsetInCU: 0x14074, offset: 0x663F2, size: 0x8, addend: 0x0, symName: __ZNSt3__114__split_bufferIN3xpf13string_viewexERNS_9allocatorIS2_EEED1Ev, symObjAddr: 0x3510, symBinAddr: 0x10001BBAC, symSize: 0x2C }
  - { offsetInCU: 0x140A0, offset: 0x6641E, size: 0x8, addend: 0x0, symName: __ZNKSt3__16vectorIN3xpf13string_viewexENS_9allocatorIS2_EEE9__end_capB8ue170006Ev, symObjAddr: 0x353C, symBinAddr: 0x10001BBD8, symSize: 0x28 }
  - { offsetInCU: 0x140C6, offset: 0x66444, size: 0x8, addend: 0x0, symName: __ZNKSt3__117__compressed_pairIPN3xpf13string_viewexENS_9allocatorIS2_EEE5firstB8ue170006Ev, symObjAddr: 0x3564, symBinAddr: 0x10001BC00, symSize: 0x24 }
  - { offsetInCU: 0x140EC, offset: 0x6646A, size: 0x8, addend: 0x0, symName: __ZNKSt3__122__compressed_pair_elemIPN3xpf13string_viewexELi0ELb0EE5__getB8ue170006Ev, symObjAddr: 0x3588, symBinAddr: 0x10001BC24, symSize: 0x14 }
  - { offsetInCU: 0x1411D, offset: 0x6649B, size: 0x8, addend: 0x0, symName: __ZNSt3__116allocator_traitsINS_9allocatorIN3xpf13string_viewexEEEE8max_sizeB8ue170006IS4_vvEEmRKS4_, symObjAddr: 0x359C, symBinAddr: 0x10001BC38, symSize: 0x28 }
  - { offsetInCU: 0x14149, offset: 0x664C7, size: 0x8, addend: 0x0, symName: __ZNKSt3__16vectorIN3xpf13string_viewexENS_9allocatorIS2_EEE7__allocB8ue170006Ev, symObjAddr: 0x35C4, symBinAddr: 0x10001BC60, symSize: 0x28 }
  - { offsetInCU: 0x1416F, offset: 0x664ED, size: 0x8, addend: 0x0, symName: __ZNKSt3__117__compressed_pairIPN3xpf13string_viewexENS_9allocatorIS2_EEE6secondB8ue170006Ev, symObjAddr: 0x35EC, symBinAddr: 0x10001BC88, symSize: 0x24 }
  - { offsetInCU: 0x14195, offset: 0x66513, size: 0x8, addend: 0x0, symName: __ZNKSt3__122__compressed_pair_elemINS_9allocatorIN3xpf13string_viewexEEELi1ELb1EE5__getB8ue170006Ev, symObjAddr: 0x3610, symBinAddr: 0x10001BCAC, symSize: 0x14 }
  - { offsetInCU: 0x141BB, offset: 0x66539, size: 0x8, addend: 0x0, symName: __ZNSt3__117__compressed_pairIPN3xpf13string_viewexENS_9allocatorIS2_EEE6secondB8ue170006Ev, symObjAddr: 0x3624, symBinAddr: 0x10001BCC0, symSize: 0x24 }
  - { offsetInCU: 0x141E1, offset: 0x6655F, size: 0x8, addend: 0x0, symName: __ZNSt3__122__compressed_pair_elemINS_9allocatorIN3xpf13string_viewexEEELi1ELb1EE5__getB8ue170006Ev, symObjAddr: 0x3648, symBinAddr: 0x10001BCE4, symSize: 0x14 }
  - { offsetInCU: 0x14207, offset: 0x66585, size: 0x8, addend: 0x0, symName: __ZNSt3__114__split_bufferIN3xpf13string_viewexERNS_9allocatorIS2_EEEC2EmmS5_, symObjAddr: 0x365C, symBinAddr: 0x10001BCF8, symSize: 0xD4 }
  - { offsetInCU: 0x1427B, offset: 0x665F9, size: 0x8, addend: 0x0, symName: __ZNSt3__117__compressed_pairIPN3xpf13string_viewexERNS_9allocatorIS2_EEEC1B8ue170006IDnS6_EEOT_OT0_, symObjAddr: 0x3730, symBinAddr: 0x10001BDCC, symSize: 0x3C }
  - { offsetInCU: 0x142D3, offset: 0x66651, size: 0x8, addend: 0x0, symName: __ZNSt3__114__split_bufferIN3xpf13string_viewexERNS_9allocatorIS2_EEE7__allocB8ue170006Ev, symObjAddr: 0x37AC, symBinAddr: 0x10001BE48, symSize: 0x28 }
  - { offsetInCU: 0x142F9, offset: 0x66677, size: 0x8, addend: 0x0, symName: __ZNSt3__114__split_bufferIN3xpf13string_viewexERNS_9allocatorIS2_EEE9__end_capB8ue170006Ev, symObjAddr: 0x37D4, symBinAddr: 0x10001BE70, symSize: 0x28 }
  - { offsetInCU: 0x1431F, offset: 0x6669D, size: 0x8, addend: 0x0, symName: __ZNSt3__117__compressed_pairIPN3xpf13string_viewexERNS_9allocatorIS2_EEEC2B8ue170006IDnS6_EEOT_OT0_, symObjAddr: 0x37FC, symBinAddr: 0x10001BE98, symSize: 0x48 }
  - { offsetInCU: 0x14377, offset: 0x666F5, size: 0x8, addend: 0x0, symName: __ZNSt3__122__compressed_pair_elemIRNS_9allocatorIN3xpf13string_viewexEEELi1ELb0EEC2B8ue170006IS5_vEEOT_, symObjAddr: 0x3844, symBinAddr: 0x10001BEE0, symSize: 0x20 }
  - { offsetInCU: 0x143B9, offset: 0x66737, size: 0x8, addend: 0x0, symName: __ZNSt3__19allocatorIN3xpf13string_viewexEE8allocateB8ue170006Em, symObjAddr: 0x3864, symBinAddr: 0x10001BF00, symSize: 0x58 }
  - { offsetInCU: 0x143ED, offset: 0x6676B, size: 0x8, addend: 0x0, symName: __ZNSt3__117__compressed_pairIPN3xpf13string_viewexERNS_9allocatorIS2_EEE6secondB8ue170006Ev, symObjAddr: 0x38BC, symBinAddr: 0x10001BF58, symSize: 0x28 }
  - { offsetInCU: 0x14413, offset: 0x66791, size: 0x8, addend: 0x0, symName: __ZNSt3__122__compressed_pair_elemIRNS_9allocatorIN3xpf13string_viewexEEELi1ELb0EE5__getB8ue170006Ev, symObjAddr: 0x38E4, symBinAddr: 0x10001BF80, symSize: 0x18 }
  - { offsetInCU: 0x14439, offset: 0x667B7, size: 0x8, addend: 0x0, symName: __ZNSt3__117__compressed_pairIPN3xpf13string_viewexERNS_9allocatorIS2_EEE5firstB8ue170006Ev, symObjAddr: 0x38FC, symBinAddr: 0x10001BF98, symSize: 0x24 }
  - { offsetInCU: 0x1445F, offset: 0x667DD, size: 0x8, addend: 0x0, symName: __ZNSt3__122__compressed_pair_elemIPN3xpf13string_viewexELi0ELb0EE5__getB8ue170006Ev, symObjAddr: 0x3920, symBinAddr: 0x10001BFBC, symSize: 0x14 }
  - { offsetInCU: 0x14485, offset: 0x66803, size: 0x8, addend: 0x0, symName: __ZNKSt3__16vectorIN3xpf13string_viewexENS_9allocatorIS2_EEE17__annotate_deleteB8ue170006Ev, symObjAddr: 0x3934, symBinAddr: 0x10001BFD0, symSize: 0xB8 }
  - { offsetInCU: 0x144AB, offset: 0x66829, size: 0x8, addend: 0x0, symName: __ZNSt3__116reverse_iteratorIPN3xpf13string_viewexEEC1B8ue170006ES3_, symObjAddr: 0x3A64, symBinAddr: 0x10001C100, symSize: 0x34 }
  - { offsetInCU: 0x144E3, offset: 0x66861, size: 0x8, addend: 0x0, symName: __ZNKSt3__116reverse_iteratorIPN3xpf13string_viewexEE4baseB8ue170006Ev, symObjAddr: 0x3A98, symBinAddr: 0x10001C134, symSize: 0x18 }
  - { offsetInCU: 0x14509, offset: 0x66887, size: 0x8, addend: 0x0, symName: __ZNSt3__16vectorIN3xpf13string_viewexENS_9allocatorIS2_EEE9__end_capB8ue170006Ev, symObjAddr: 0x3AEC, symBinAddr: 0x10001C188, symSize: 0x28 }
  - { offsetInCU: 0x1452F, offset: 0x668AD, size: 0x8, addend: 0x0, symName: __ZNKSt3__16vectorIN3xpf13string_viewexENS_9allocatorIS2_EEE14__annotate_newB8ue170006Em, symObjAddr: 0x3B14, symBinAddr: 0x10001C1B0, symSize: 0xAC }
  - { offsetInCU: 0x14565, offset: 0x668E3, size: 0x8, addend: 0x0, symName: __ZNKSt3__16vectorIN3xpf13string_viewexENS_9allocatorIS2_EEE31__annotate_contiguous_containerB8ue170006EPKvS7_S7_S7_, symObjAddr: 0x3BC0, symBinAddr: 0x10001C25C, symSize: 0x20 }
  - { offsetInCU: 0x145BB, offset: 0x66939, size: 0x8, addend: 0x0, symName: __ZNKSt3__16vectorIN3xpf13string_viewexENS_9allocatorIS2_EEE4dataB8ue170006Ev, symObjAddr: 0x3BE0, symBinAddr: 0x10001C27C, symSize: 0x28 }
  - { offsetInCU: 0x145FE, offset: 0x6697C, size: 0x8, addend: 0x0, symName: __ZNKSt3__111__move_loopINS_17_ClassicAlgPolicyEEclB8ue170006INS_16reverse_iteratorIPN3xpf13string_viewexEEES8_S8_EENS_4pairIT_T1_EESA_T0_SB_, symObjAddr: 0x3ED4, symBinAddr: 0x10001C570, symSize: 0xA0 }
  - { offsetInCU: 0x14669, offset: 0x669E7, size: 0x8, addend: 0x0, symName: __ZNSt3__119__unwrap_range_implINS_16reverse_iteratorIPN3xpf13string_viewexEEES5_E8__unwrapB8ue170006ES5_S5_, symObjAddr: 0x40C0, symBinAddr: 0x10001C75C, symSize: 0x84 }
  - { offsetInCU: 0x146A0, offset: 0x66A1E, size: 0x8, addend: 0x0, symName: __ZNSt3__14pairINS_16reverse_iteratorIPN3xpf13string_viewexEEES5_EC1B8ue170006IS5_S5_LPv0EEEOT_OT0_, symObjAddr: 0x4144, symBinAddr: 0x10001C7E0, symSize: 0x3C }
  - { offsetInCU: 0x146FE, offset: 0x66A7C, size: 0x8, addend: 0x0, symName: __ZNSt3__14pairINS_16reverse_iteratorIPN3xpf13string_viewexEEES5_EC2B8ue170006IS5_S5_LPv0EEEOT_OT0_, symObjAddr: 0x4180, symBinAddr: 0x10001C81C, symSize: 0x34 }
  - { offsetInCU: 0x14762, offset: 0x66AE0, size: 0x8, addend: 0x0, symName: __ZNSt3__18_IterOpsINS_17_ClassicAlgPolicyEE11__iter_moveB8ue170006IRNS_16reverse_iteratorIPN3xpf13string_viewexEEEEENS_9enable_ifIXsr12is_referenceIDTdeclsr3stdE7declvalIRT_EEEEE5valueEDTclsr3stdE4movedeclsr3stdE7declvalISC_EEEEE4typeEOSB_, symObjAddr: 0x41FC, symBinAddr: 0x10001C898, symSize: 0x28 }
  - { offsetInCU: 0x1478E, offset: 0x66B0C, size: 0x8, addend: 0x0, symName: __ZNKSt3__116reverse_iteratorIPN3xpf13string_viewexEEdeB8ue170006Ev, symObjAddr: 0x4224, symBinAddr: 0x10001C8C0, symSize: 0x28 }
  - { offsetInCU: 0x147C2, offset: 0x66B40, size: 0x8, addend: 0x0, symName: __ZNSt3__116reverse_iteratorIPN3xpf13string_viewexEEppB8ue170006Ev, symObjAddr: 0x424C, symBinAddr: 0x10001C8E8, symSize: 0x20 }
  - { offsetInCU: 0x147E8, offset: 0x66B66, size: 0x8, addend: 0x0, symName: __ZNSt3__18_IterOpsINS_17_ClassicAlgPolicyEE25__validate_iter_referenceB8ue170006IRNS_16reverse_iteratorIPN3xpf13string_viewexEEEEEvv, symObjAddr: 0x426C, symBinAddr: 0x10001C908, symSize: 0x4 }
  - { offsetInCU: 0x14806, offset: 0x66B84, size: 0x8, addend: 0x0, symName: __ZNSt3__118__unwrap_iter_implINS_16reverse_iteratorIPN3xpf13string_viewexEEELb0EE8__unwrapB8ue170006ES5_, symObjAddr: 0x4270, symBinAddr: 0x10001C90C, symSize: 0x24 }
  - { offsetInCU: 0x14829, offset: 0x66BA7, size: 0x8, addend: 0x0, symName: __ZNSt3__119__unwrap_range_implINS_16reverse_iteratorIPN3xpf13string_viewexEEES5_E8__rewrapB8ue170006ES5_S5_, symObjAddr: 0x4294, symBinAddr: 0x10001C930, symSize: 0x5C }
  - { offsetInCU: 0x1485A, offset: 0x66BD8, size: 0x8, addend: 0x0, symName: __ZNSt3__118__unwrap_iter_implINS_16reverse_iteratorIPN3xpf13string_viewexEEELb0EE8__rewrapB8ue170006ES5_S5_, symObjAddr: 0x42F0, symBinAddr: 0x10001C98C, symSize: 0x2C }
  - { offsetInCU: 0x14887, offset: 0x66C05, size: 0x8, addend: 0x0, symName: __ZNSt3__116reverse_iteratorIPN3xpf13string_viewexEEC2B8ue170006ES3_, symObjAddr: 0x431C, symBinAddr: 0x10001C9B8, symSize: 0x28 }
  - { offsetInCU: 0x148BF, offset: 0x66C3D, size: 0x8, addend: 0x0, symName: __ZNSt3__117__compressed_pairIPN3xpf13string_viewexENS_9allocatorIS2_EEE5firstB8ue170006Ev, symObjAddr: 0x4344, symBinAddr: 0x10001C9E0, symSize: 0x24 }
  - { offsetInCU: 0x148E5, offset: 0x66C63, size: 0x8, addend: 0x0, symName: __ZNSt3__114__split_bufferIN3xpf13string_viewexERNS_9allocatorIS2_EEED2Ev, symObjAddr: 0x4368, symBinAddr: 0x10001CA04, symSize: 0x8C }
  - { offsetInCU: 0x14911, offset: 0x66C8F, size: 0x8, addend: 0x0, symName: __ZNSt3__114__split_bufferIN3xpf13string_viewexERNS_9allocatorIS2_EEE5clearB8ue170006Ev, symObjAddr: 0x43F4, symBinAddr: 0x10001CA90, symSize: 0x28 }
  - { offsetInCU: 0x14937, offset: 0x66CB5, size: 0x8, addend: 0x0, symName: __ZNSt3__116allocator_traitsINS_9allocatorIN3xpf13string_viewexEEEE10deallocateB8ue170006ERS4_PS3_m, symObjAddr: 0x441C, symBinAddr: 0x10001CAB8, symSize: 0x34 }
  - { offsetInCU: 0x1497C, offset: 0x66CFA, size: 0x8, addend: 0x0, symName: __ZNKSt3__114__split_bufferIN3xpf13string_viewexERNS_9allocatorIS2_EEE8capacityB8ue170006Ev, symObjAddr: 0x4450, symBinAddr: 0x10001CAEC, symSize: 0x40 }
  - { offsetInCU: 0x149A2, offset: 0x66D20, size: 0x8, addend: 0x0, symName: __ZNSt3__114__split_bufferIN3xpf13string_viewexERNS_9allocatorIS2_EEE17__destruct_at_endB8ue170006EPS2_, symObjAddr: 0x4490, symBinAddr: 0x10001CB2C, symSize: 0x2C }
  - { offsetInCU: 0x149D6, offset: 0x66D54, size: 0x8, addend: 0x0, symName: __ZNSt3__114__split_bufferIN3xpf13string_viewexERNS_9allocatorIS2_EEE17__destruct_at_endB8ue170006EPS2_NS_17integral_constantIbLb0EEE, symObjAddr: 0x44BC, symBinAddr: 0x10001CB58, symSize: 0x80 }
  - { offsetInCU: 0x14A16, offset: 0x66D94, size: 0x8, addend: 0x0, symName: __ZNSt3__116allocator_traitsINS_9allocatorIN3xpf13string_viewexEEEE7destroyB8ue170006IS3_vvEEvRS4_PT_, symObjAddr: 0x453C, symBinAddr: 0x10001CBD8, symSize: 0x28 }
  - { offsetInCU: 0x14A52, offset: 0x66DD0, size: 0x8, addend: 0x0, symName: __ZNSt3__19allocatorIN3xpf13string_viewexEE10deallocateB8ue170006EPS2_m, symObjAddr: 0x4598, symBinAddr: 0x10001CC34, symSize: 0x40 }
  - { offsetInCU: 0x14A94, offset: 0x66E12, size: 0x8, addend: 0x0, symName: __ZNKSt3__114__split_bufferIN3xpf13string_viewexERNS_9allocatorIS2_EEE9__end_capB8ue170006Ev, symObjAddr: 0x45D8, symBinAddr: 0x10001CC74, symSize: 0x28 }
  - { offsetInCU: 0x14ABA, offset: 0x66E38, size: 0x8, addend: 0x0, symName: __ZNKSt3__117__compressed_pairIPN3xpf13string_viewexERNS_9allocatorIS2_EEE5firstB8ue170006Ev, symObjAddr: 0x4600, symBinAddr: 0x10001CC9C, symSize: 0x24 }
  - { offsetInCU: 0x14AE0, offset: 0x66E5E, size: 0x8, addend: 0x0, symName: __ZNSt3__16vectorIN3xpf13string_viewexENS_9allocatorIS2_EEE22__construct_one_at_endB8ue170006IJS2_EEEvDpOT_, symObjAddr: 0x4624, symBinAddr: 0x10001CCC0, symSize: 0x90 }
  - { offsetInCU: 0x14B31, offset: 0x66EAF, size: 0x8, addend: 0x0, symName: __ZNSt3__16vectorIN3xpf13string_viewexENS_9allocatorIS2_EEE21__push_back_slow_pathIS2_EEvOT_, symObjAddr: 0x46B4, symBinAddr: 0x10001CD50, symSize: 0xD8 }
  - { offsetInCU: 0x14BAE, offset: 0x66F2C, size: 0x8, addend: 0x0, symName: __ZNSt3__16vectorIN3xpf13string_viewexENS_9allocatorIS2_EEE21_ConstructTransactionC1B8ue170006ERS5_m, symObjAddr: 0x478C, symBinAddr: 0x10001CE28, symSize: 0x3C }
  - { offsetInCU: 0x14BF8, offset: 0x66F76, size: 0x8, addend: 0x0, symName: __ZNSt3__116allocator_traitsINS_9allocatorIN3xpf13string_viewexEEEE9constructB8ue170006IS3_JS3_EvvEEvRS4_PT_DpOT0_, symObjAddr: 0x47C8, symBinAddr: 0x10001CE64, symSize: 0x30 }
  - { offsetInCU: 0x14C4F, offset: 0x66FCD, size: 0x8, addend: 0x0, symName: __ZNSt3__16vectorIN3xpf13string_viewexENS_9allocatorIS2_EEE21_ConstructTransactionD1B8ue170006Ev, symObjAddr: 0x47F8, symBinAddr: 0x10001CE94, symSize: 0x2C }
  - { offsetInCU: 0x14C79, offset: 0x66FF7, size: 0x8, addend: 0x0, symName: __ZNSt3__16vectorIN3xpf13string_viewexENS_9allocatorIS2_EEE21_ConstructTransactionC2B8ue170006ERS5_m, symObjAddr: 0x4824, symBinAddr: 0x10001CEC0, symSize: 0x44 }
  - { offsetInCU: 0x14CC3, offset: 0x67041, size: 0x8, addend: 0x0, symName: __ZNSt3__16vectorIN3xpf13string_viewexENS_9allocatorIS2_EEE21_ConstructTransactionD2B8ue170006Ev, symObjAddr: 0x4894, symBinAddr: 0x10001CF30, symSize: 0x20 }
  - { offsetInCU: 0x14CED, offset: 0x6706B, size: 0x8, addend: 0x0, symName: __ZNKSt3__16vectorIN3xpf13string_viewexENS_9allocatorIS2_EEE11__recommendB8ue170006Em, symObjAddr: 0x48B4, symBinAddr: 0x10001CF50, symSize: 0xB4 }
  - { offsetInCU: 0x14D4B, offset: 0x670C9, size: 0x8, addend: 0x0, symName: __ZNSt3__14__fs10filesystem4pathD2B8ue170006Ev, symObjAddr: 0x6E60, symBinAddr: 0x10001D004, symSize: 0x2C }
  - { offsetInCU: 0x14D75, offset: 0x670F3, size: 0x8, addend: 0x0, symName: '__ZZN3xpf11Application5StartEiPPcEN3$_08__invokeEiPKc', symObjAddr: 0x6E8C, symBinAddr: 0x10001D030, symSize: 0x30 }
  - { offsetInCU: 0x14DAA, offset: 0x67128, size: 0x8, addend: 0x0, symName: '__ZZN3xpf11Application5StartEiPPcENK3$_0clEiPKc', symObjAddr: 0x6EBC, symBinAddr: 0x10001D060, symSize: 0x12C }
  - { offsetInCU: 0x14DF6, offset: 0x67174, size: 0x8, addend: 0x0, symName: __ZNSt3__16threadC1IZN3xpf12TweenService5StartEvEUlvE_JEvEEOT_DpOT0_, symObjAddr: 0x712C, symBinAddr: 0x10001D1D0, symSize: 0x34 }
  - { offsetInCU: 0x14E3E, offset: 0x671BC, size: 0x8, addend: 0x0, symName: __ZNSt3__16threadaSB8ue170006EOS0_, symObjAddr: 0x7160, symBinAddr: 0x10001D204, symSize: 0x60 }
  - { offsetInCU: 0x14E72, offset: 0x671F0, size: 0x8, addend: 0x0, symName: __ZNSt3__16threadC2IZN3xpf12TweenService5StartEvEUlvE_JEvEEOT_DpOT0_, symObjAddr: 0x71C0, symBinAddr: 0x10001D264, symSize: 0x148 }
  - { offsetInCU: 0x14EEB, offset: 0x67269, size: 0x8, addend: 0x0, symName: __ZNSt3__110unique_ptrINS_15__thread_structENS_14default_deleteIS1_EEEC1B8ue170006ILb1EvEEPS1_, symObjAddr: 0x7308, symBinAddr: 0x10001D3AC, symSize: 0x34 }
  - { offsetInCU: 0x14F2E, offset: 0x672AC, size: 0x8, addend: 0x0, symName: __ZNSt3__15tupleIJNS_10unique_ptrINS_15__thread_structENS_14default_deleteIS2_EEEEZN3xpf12TweenService5StartEvEUlvE_EEC1B8ue170006IJS5_S8_ELi0EEEDpOT_, symObjAddr: 0x733C, symBinAddr: 0x10001D3E0, symSize: 0x3C }
  - { offsetInCU: 0x15035, offset: 0x673B3, size: 0x8, addend: 0x0, symName: __ZNSt3__110unique_ptrINS_5tupleIJNS0_INS_15__thread_structENS_14default_deleteIS2_EEEEZN3xpf12TweenService5StartEvEUlvE_EEENS3_IS9_EEEC1B8ue170006ILb1EvEEPS9_, symObjAddr: 0x7378, symBinAddr: 0x10001D41C, symSize: 0x34 }
  - { offsetInCU: 0x15078, offset: 0x673F6, size: 0x8, addend: 0x0, symName: __ZNKSt3__110unique_ptrINS_5tupleIJNS0_INS_15__thread_structENS_14default_deleteIS2_EEEEZN3xpf12TweenService5StartEvEUlvE_EEENS3_IS9_EEE3getB8ue170006Ev, symObjAddr: 0x7474, symBinAddr: 0x10001D518, symSize: 0x28 }
  - { offsetInCU: 0x1509E, offset: 0x6741C, size: 0x8, addend: 0x0, symName: __ZNSt3__110unique_ptrINS_5tupleIJNS0_INS_15__thread_structENS_14default_deleteIS2_EEEEZN3xpf12TweenService5StartEvEUlvE_EEENS3_IS9_EEE7releaseB8ue170006Ev, symObjAddr: 0x749C, symBinAddr: 0x10001D540, symSize: 0x44 }
  - { offsetInCU: 0x150D4, offset: 0x67452, size: 0x8, addend: 0x0, symName: __ZNSt3__110unique_ptrINS_5tupleIJNS0_INS_15__thread_structENS_14default_deleteIS2_EEEEZN3xpf12TweenService5StartEvEUlvE_EEENS3_IS9_EEED1B8ue170006Ev, symObjAddr: 0x74E0, symBinAddr: 0x10001D584, symSize: 0x2C }
  - { offsetInCU: 0x150FE, offset: 0x6747C, size: 0x8, addend: 0x0, symName: __ZNSt3__110unique_ptrINS_15__thread_structENS_14default_deleteIS1_EEED1B8ue170006Ev, symObjAddr: 0x750C, symBinAddr: 0x10001D5B0, symSize: 0x2C }
  - { offsetInCU: 0x15128, offset: 0x674A6, size: 0x8, addend: 0x0, symName: __ZNSt3__110unique_ptrINS_15__thread_structENS_14default_deleteIS1_EEEC2B8ue170006ILb1EvEEPS1_, symObjAddr: 0x7538, symBinAddr: 0x10001D5DC, symSize: 0x44 }
  - { offsetInCU: 0x15171, offset: 0x674EF, size: 0x8, addend: 0x0, symName: __ZNSt3__117__compressed_pairIPNS_15__thread_structENS_14default_deleteIS1_EEEC1B8ue170006IRS2_NS_16__value_init_tagEEEOT_OT0_, symObjAddr: 0x757C, symBinAddr: 0x10001D620, symSize: 0x3C }
  - { offsetInCU: 0x151C9, offset: 0x67547, size: 0x8, addend: 0x0, symName: __ZNSt3__117__compressed_pairIPNS_15__thread_structENS_14default_deleteIS1_EEEC2B8ue170006IRS2_NS_16__value_init_tagEEEOT_OT0_, symObjAddr: 0x75B8, symBinAddr: 0x10001D65C, symSize: 0x40 }
  - { offsetInCU: 0x15221, offset: 0x6759F, size: 0x8, addend: 0x0, symName: __ZNSt3__122__compressed_pair_elemIPNS_15__thread_structELi0ELb0EEC2B8ue170006IRS2_vEEOT_, symObjAddr: 0x75F8, symBinAddr: 0x10001D69C, symSize: 0x24 }
  - { offsetInCU: 0x15263, offset: 0x675E1, size: 0x8, addend: 0x0, symName: __ZNSt3__122__compressed_pair_elemINS_14default_deleteINS_15__thread_structEEELi1ELb1EEC2B8ue170006ENS_16__value_init_tagE, symObjAddr: 0x761C, symBinAddr: 0x10001D6C0, symSize: 0x14 }
  - { offsetInCU: 0x15297, offset: 0x67615, size: 0x8, addend: 0x0, symName: __ZNSt3__15tupleIJNS_10unique_ptrINS_15__thread_structENS_14default_deleteIS2_EEEEZN3xpf12TweenService5StartEvEUlvE_EEC2B8ue170006IJS5_S8_ELi0EEEDpOT_, symObjAddr: 0x7630, symBinAddr: 0x10001D6D4, symSize: 0x3C }
  - { offsetInCU: 0x152F7, offset: 0x67675, size: 0x8, addend: 0x0, symName: __ZNSt3__112__tuple_implINS_15__tuple_indicesIJLm0ELm1EEEEJNS_10unique_ptrINS_15__thread_structENS_14default_deleteIS4_EEEEZN3xpf12TweenService5StartEvEUlvE_EEC1B8ue170006IJLm0ELm1EEJS7_SA_EJEJEJS7_SA_EEENS1_IJXspT_EEEENS_13__tuple_typesIJDpT0_EEENS1_IJXspT1_EEEENSE_IJDpT2_EEEDpOT3_, symObjAddr: 0x766C, symBinAddr: 0x10001D710, symSize: 0x3C }
  - { offsetInCU: 0x153AF, offset: 0x6772D, size: 0x8, addend: 0x0, symName: __ZNSt3__112__tuple_implINS_15__tuple_indicesIJLm0ELm1EEEEJNS_10unique_ptrINS_15__thread_structENS_14default_deleteIS4_EEEEZN3xpf12TweenService5StartEvEUlvE_EEC2B8ue170006IJLm0ELm1EEJS7_SA_EJEJEJS7_SA_EEENS1_IJXspT_EEEENS_13__tuple_typesIJDpT0_EEENS1_IJXspT1_EEEENSE_IJDpT2_EEEDpOT3_, symObjAddr: 0x76A8, symBinAddr: 0x10001D74C, symSize: 0x44 }
  - { offsetInCU: 0x15467, offset: 0x677E5, size: 0x8, addend: 0x0, symName: __ZNSt3__112__tuple_leafILm0ENS_10unique_ptrINS_15__thread_structENS_14default_deleteIS2_EEEELb0EEC2B8ue170006IS5_vEEOT_, symObjAddr: 0x76EC, symBinAddr: 0x10001D790, symSize: 0x34 }
  - { offsetInCU: 0x154AB, offset: 0x67829, size: 0x8, addend: 0x0, symName: __ZNSt3__112__tuple_leafILm1EZN3xpf12TweenService5StartEvEUlvE_Lb1EEC2B8ue170006IS3_vEEOT_, symObjAddr: 0x7720, symBinAddr: 0x10001D7C4, symSize: 0x18 }
  - { offsetInCU: 0x154EF, offset: 0x6786D, size: 0x8, addend: 0x0, symName: __ZNSt3__110unique_ptrINS_15__thread_structENS_14default_deleteIS1_EEEC1B8ue170006EOS4_, symObjAddr: 0x7738, symBinAddr: 0x10001D7DC, symSize: 0x34 }
  - { offsetInCU: 0x15527, offset: 0x678A5, size: 0x8, addend: 0x0, symName: __ZNSt3__110unique_ptrINS_15__thread_structENS_14default_deleteIS1_EEEC2B8ue170006EOS4_, symObjAddr: 0x776C, symBinAddr: 0x10001D810, symSize: 0x60 }
  - { offsetInCU: 0x1555F, offset: 0x678DD, size: 0x8, addend: 0x0, symName: __ZNSt3__110unique_ptrINS_15__thread_structENS_14default_deleteIS1_EEE7releaseB8ue170006Ev, symObjAddr: 0x77CC, symBinAddr: 0x10001D870, symSize: 0x44 }
  - { offsetInCU: 0x15595, offset: 0x67913, size: 0x8, addend: 0x0, symName: __ZNSt3__110unique_ptrINS_15__thread_structENS_14default_deleteIS1_EEE11get_deleterB8ue170006Ev, symObjAddr: 0x7810, symBinAddr: 0x10001D8B4, symSize: 0x24 }
  - { offsetInCU: 0x155C7, offset: 0x67945, size: 0x8, addend: 0x0, symName: __ZNSt3__117__compressed_pairIPNS_15__thread_structENS_14default_deleteIS1_EEEC1B8ue170006IS2_S4_EEOT_OT0_, symObjAddr: 0x7834, symBinAddr: 0x10001D8D8, symSize: 0x3C }
  - { offsetInCU: 0x1561F, offset: 0x6799D, size: 0x8, addend: 0x0, symName: __ZNSt3__117__compressed_pairIPNS_15__thread_structENS_14default_deleteIS1_EEE5firstB8ue170006Ev, symObjAddr: 0x7870, symBinAddr: 0x10001D914, symSize: 0x24 }
  - { offsetInCU: 0x15645, offset: 0x679C3, size: 0x8, addend: 0x0, symName: __ZNSt3__122__compressed_pair_elemIPNS_15__thread_structELi0ELb0EE5__getB8ue170006Ev, symObjAddr: 0x7894, symBinAddr: 0x10001D938, symSize: 0x14 }
  - { offsetInCU: 0x1566B, offset: 0x679E9, size: 0x8, addend: 0x0, symName: __ZNSt3__117__compressed_pairIPNS_15__thread_structENS_14default_deleteIS1_EEE6secondB8ue170006Ev, symObjAddr: 0x78A8, symBinAddr: 0x10001D94C, symSize: 0x24 }
  - { offsetInCU: 0x15691, offset: 0x67A0F, size: 0x8, addend: 0x0, symName: __ZNSt3__122__compressed_pair_elemINS_14default_deleteINS_15__thread_structEEELi1ELb1EE5__getB8ue170006Ev, symObjAddr: 0x78CC, symBinAddr: 0x10001D970, symSize: 0x14 }
  - { offsetInCU: 0x156B7, offset: 0x67A35, size: 0x8, addend: 0x0, symName: __ZNSt3__117__compressed_pairIPNS_15__thread_structENS_14default_deleteIS1_EEEC2B8ue170006IS2_S4_EEOT_OT0_, symObjAddr: 0x78E0, symBinAddr: 0x10001D984, symSize: 0x44 }
  - { offsetInCU: 0x1570F, offset: 0x67A8D, size: 0x8, addend: 0x0, symName: __ZNSt3__122__compressed_pair_elemIPNS_15__thread_structELi0ELb0EEC2B8ue170006IS2_vEEOT_, symObjAddr: 0x7924, symBinAddr: 0x10001D9C8, symSize: 0x24 }
  - { offsetInCU: 0x15751, offset: 0x67ACF, size: 0x8, addend: 0x0, symName: __ZNSt3__122__compressed_pair_elemINS_14default_deleteINS_15__thread_structEEELi1ELb1EEC2B8ue170006IS3_vEEOT_, symObjAddr: 0x7948, symBinAddr: 0x10001D9EC, symSize: 0x18 }
  - { offsetInCU: 0x15793, offset: 0x67B11, size: 0x8, addend: 0x0, symName: __ZNSt3__110unique_ptrINS_5tupleIJNS0_INS_15__thread_structENS_14default_deleteIS2_EEEEZN3xpf12TweenService5StartEvEUlvE_EEENS3_IS9_EEEC2B8ue170006ILb1EvEEPS9_, symObjAddr: 0x7960, symBinAddr: 0x10001DA04, symSize: 0x44 }
  - { offsetInCU: 0x157D6, offset: 0x67B54, size: 0x8, addend: 0x0, symName: __ZNSt3__117__compressed_pairIPNS_5tupleIJNS_10unique_ptrINS_15__thread_structENS_14default_deleteIS3_EEEEZN3xpf12TweenService5StartEvEUlvE_EEENS4_ISA_EEEC1B8ue170006IRSB_NS_16__value_init_tagEEEOT_OT0_, symObjAddr: 0x79A4, symBinAddr: 0x10001DA48, symSize: 0x3C }
  - { offsetInCU: 0x1582E, offset: 0x67BAC, size: 0x8, addend: 0x0, symName: __ZNSt3__117__compressed_pairIPNS_5tupleIJNS_10unique_ptrINS_15__thread_structENS_14default_deleteIS3_EEEEZN3xpf12TweenService5StartEvEUlvE_EEENS4_ISA_EEEC2B8ue170006IRSB_NS_16__value_init_tagEEEOT_OT0_, symObjAddr: 0x79E0, symBinAddr: 0x10001DA84, symSize: 0x40 }
  - { offsetInCU: 0x15886, offset: 0x67C04, size: 0x8, addend: 0x0, symName: __ZNSt3__122__compressed_pair_elemIPNS_5tupleIJNS_10unique_ptrINS_15__thread_structENS_14default_deleteIS3_EEEEZN3xpf12TweenService5StartEvEUlvE_EEELi0ELb0EEC2B8ue170006IRSB_vEEOT_, symObjAddr: 0x7A20, symBinAddr: 0x10001DAC4, symSize: 0x24 }
  - { offsetInCU: 0x158C8, offset: 0x67C46, size: 0x8, addend: 0x0, symName: __ZNSt3__122__compressed_pair_elemINS_14default_deleteINS_5tupleIJNS_10unique_ptrINS_15__thread_structENS1_IS4_EEEEZN3xpf12TweenService5StartEvEUlvE_EEEEELi1ELb1EEC2B8ue170006ENS_16__value_init_tagE, symObjAddr: 0x7A44, symBinAddr: 0x10001DAE8, symSize: 0x14 }
  - { offsetInCU: 0x1592F, offset: 0x67CAD, size: 0x8, addend: 0x0, symName: __ZNSt3__121__thread_specific_ptrINS_15__thread_structEE11set_pointerEPS1_, symObjAddr: 0x7A58, symBinAddr: 0x10001DAFC, symSize: 0x30 }
  - { offsetInCU: 0x15964, offset: 0x67CE2, size: 0x8, addend: 0x0, symName: __ZNSt3__112__tuple_leafILm0ENS_10unique_ptrINS_15__thread_structENS_14default_deleteIS2_EEEELb0EE3getB8ue170006Ev, symObjAddr: 0x7B00, symBinAddr: 0x10001DBA4, symSize: 0x14 }
  - { offsetInCU: 0x15990, offset: 0x67D0E, size: 0x8, addend: 0x0, symName: __ZZN3xpf12TweenService5StartEvENKUlvE_clEv, symObjAddr: 0x7B5C, symBinAddr: 0x10001DC00, symSize: 0x164 }
  - { offsetInCU: 0x15A3D, offset: 0x67DBB, size: 0x8, addend: 0x0, symName: __ZNKSt3__113__atomic_baseIbLb0EEcvbB8ue170006Ev, symObjAddr: 0x7CC0, symBinAddr: 0x10001DD64, symSize: 0x2C }
  - { offsetInCU: 0x15A74, offset: 0x67DF2, size: 0x8, addend: 0x0, symName: __ZNSt3__16chrono8durationIxNS_5ratioILl1ELl1000EEEEC1B8ue170006IjEERKT_PNS_9enable_ifIXaasr14is_convertibleIS8_xEE5valueooL_ZNS_17integral_constantIbLb0EE5valueEEntsr23treat_as_floating_pointIS6_EE5valueEvE4typeE, symObjAddr: 0x7D3C, symBinAddr: 0x10001DDE0, symSize: 0x3C }
  - { offsetInCU: 0x15ADE, offset: 0x67E5C, size: 0x8, addend: 0x0, symName: __ZNSt3__110lock_guardINS_5mutexEEC1B8ue170006ERS1_, symObjAddr: 0x7D78, symBinAddr: 0x10001DE1C, symSize: 0x34 }
  - { offsetInCU: 0x15B16, offset: 0x67E94, size: 0x8, addend: 0x0, symName: __ZNSt3__113unordered_setIPN3xpf9TweenBaseENS_4hashIS3_EENS_8equal_toIS3_EENS_9allocatorIS3_EEE5beginB8ue170006Ev, symObjAddr: 0x7DAC, symBinAddr: 0x10001DE50, symSize: 0x38 }
  - { offsetInCU: 0x15B3C, offset: 0x67EBA, size: 0x8, addend: 0x0, symName: __ZNSt3__113unordered_setIPN3xpf9TweenBaseENS_4hashIS3_EENS_8equal_toIS3_EENS_9allocatorIS3_EEE3endB8ue170006Ev, symObjAddr: 0x7DE4, symBinAddr: 0x10001DE88, symSize: 0x38 }
  - { offsetInCU: 0x15B62, offset: 0x67EE0, size: 0x8, addend: 0x0, symName: __ZNKSt3__121__hash_const_iteratorIPNS_11__hash_nodeIPN3xpf9TweenBaseEPvEEEdeB8ue170006Ev, symObjAddr: 0x7E50, symBinAddr: 0x10001DEF4, symSize: 0x2C }
  - { offsetInCU: 0x15B88, offset: 0x67F06, size: 0x8, addend: 0x0, symName: __ZNSt3__121__hash_const_iteratorIPNS_11__hash_nodeIPN3xpf9TweenBaseEPvEEEppB8ue170006Ev, symObjAddr: 0x7E7C, symBinAddr: 0x10001DF20, symSize: 0x20 }
  - { offsetInCU: 0x15BAE, offset: 0x67F2C, size: 0x8, addend: 0x0, symName: __ZNSt3__110lock_guardINS_5mutexEED1B8ue170006Ev, symObjAddr: 0x7E9C, symBinAddr: 0x10001DF40, symSize: 0x2C }
  - { offsetInCU: 0x15BD8, offset: 0x67F56, size: 0x8, addend: 0x0, symName: __ZNKSt3__113__atomic_baseIbLb0EE4loadB8ue170006ENS_12memory_orderE, symObjAddr: 0x7F14, symBinAddr: 0x10001DFB8, symSize: 0x30 }
  - { offsetInCU: 0x15C0C, offset: 0x67F8A, size: 0x8, addend: 0x0, symName: __ZNKSt3__16chrono10time_pointINS0_12steady_clockENS0_8durationIxNS_5ratioILl1ELl1000000000EEEEEE16time_since_epochB8ue170006Ev, symObjAddr: 0x8044, symBinAddr: 0x10001E0E8, symSize: 0x20 }
  - { offsetInCU: 0x15C32, offset: 0x67FB0, size: 0x8, addend: 0x0, symName: __ZNSt3__16chrono10time_pointINS0_12steady_clockENS0_8durationIxNS_5ratioILl1ELl1000000000EEEEEEC1B8ue170006ERKS6_, symObjAddr: 0x8064, symBinAddr: 0x10001E108, symSize: 0x34 }
  - { offsetInCU: 0x15C6A, offset: 0x67FE8, size: 0x8, addend: 0x0, symName: __ZNKSt3__16chrono8durationIxNS_5ratioILl1ELl1000000000EEEE5countB8ue170006Ev, symObjAddr: 0x8098, symBinAddr: 0x10001E13C, symSize: 0x18 }
  - { offsetInCU: 0x15C90, offset: 0x6800E, size: 0x8, addend: 0x0, symName: __ZNSt3__16chrono8durationIxNS_5ratioILl1ELl1000000000EEEEC1B8ue170006IxNS2_ILl1ELl1000EEEEERKNS1_IT_T0_EEPNS_9enable_ifIXaasr13__no_overflowIS8_S3_EE5valueooL_ZNS_17integral_constantIbLb0EE5valueEEaaeqsr13__no_overflowIS8_S3_E4typeE3denLi1Entsr23treat_as_floating_pointIS7_EE5valueEvE4typeE, symObjAddr: 0x80B0, symBinAddr: 0x10001E154, symSize: 0x3C }
  - { offsetInCU: 0x15CF3, offset: 0x68071, size: 0x8, addend: 0x0, symName: __ZNSt3__16chrono8durationIxNS_5ratioILl1ELl1000000000EEEEC1B8ue170006IxEERKT_PNS_9enable_ifIXaasr14is_convertibleIS8_xEE5valueooL_ZNS_17integral_constantIbLb0EE5valueEEntsr23treat_as_floating_pointIS6_EE5valueEvE4typeE, symObjAddr: 0x80EC, symBinAddr: 0x10001E190, symSize: 0x3C }
  - { offsetInCU: 0x15D40, offset: 0x680BE, size: 0x8, addend: 0x0, symName: __ZNSt3__16chrono8durationIxNS_5ratioILl1ELl1000000000EEEEC2B8ue170006IxNS2_ILl1ELl1000EEEEERKNS1_IT_T0_EEPNS_9enable_ifIXaasr13__no_overflowIS8_S3_EE5valueooL_ZNS_17integral_constantIbLb0EE5valueEEaaeqsr13__no_overflowIS8_S3_E4typeE3denLi1Entsr23treat_as_floating_pointIS7_EE5valueEvE4typeE, symObjAddr: 0x8128, symBinAddr: 0x10001E1CC, symSize: 0x50 }
  - { offsetInCU: 0x15D98, offset: 0x68116, size: 0x8, addend: 0x0, symName: __ZNKSt3__16chrono8durationIxNS_5ratioILl1ELl1000EEEE5countB8ue170006Ev, symObjAddr: 0x81F4, symBinAddr: 0x10001E298, symSize: 0x18 }
  - { offsetInCU: 0x15DBE, offset: 0x6813C, size: 0x8, addend: 0x0, symName: __ZNSt3__16chrono8durationIxNS_5ratioILl1ELl1000000000EEEEC2B8ue170006IxEERKT_PNS_9enable_ifIXaasr14is_convertibleIS8_xEE5valueooL_ZNS_17integral_constantIbLb0EE5valueEEntsr23treat_as_floating_pointIS6_EE5valueEvE4typeE, symObjAddr: 0x820C, symBinAddr: 0x10001E2B0, symSize: 0x28 }
  - { offsetInCU: 0x15E0B, offset: 0x68189, size: 0x8, addend: 0x0, symName: __ZNSt3__16chrono10time_pointINS0_12steady_clockENS0_8durationIxNS_5ratioILl1ELl1000000000EEEEEEC2B8ue170006ERKS6_, symObjAddr: 0x8234, symBinAddr: 0x10001E2D8, symSize: 0x24 }
  - { offsetInCU: 0x15E43, offset: 0x681C1, size: 0x8, addend: 0x0, symName: __ZNSt3__16chrono8durationIxNS_5ratioILl1ELl1000EEEEC2B8ue170006IjEERKT_PNS_9enable_ifIXaasr14is_convertibleIS8_xEE5valueooL_ZNS_17integral_constantIbLb0EE5valueEEntsr23treat_as_floating_pointIS6_EE5valueEvE4typeE, symObjAddr: 0x8258, symBinAddr: 0x10001E2FC, symSize: 0x28 }
  - { offsetInCU: 0x15E90, offset: 0x6820E, size: 0x8, addend: 0x0, symName: __ZNSt3__110lock_guardINS_5mutexEEC2B8ue170006ERS1_, symObjAddr: 0x8280, symBinAddr: 0x10001E324, symSize: 0x3C }
  - { offsetInCU: 0x15EC8, offset: 0x68246, size: 0x8, addend: 0x0, symName: __ZNSt3__112__hash_tableIPN3xpf9TweenBaseENS_4hashIS3_EENS_8equal_toIS3_EENS_9allocatorIS3_EEE5beginEv, symObjAddr: 0x82BC, symBinAddr: 0x10001E360, symSize: 0x38 }
  - { offsetInCU: 0x15EF0, offset: 0x6826E, size: 0x8, addend: 0x0, symName: __ZNSt3__121__hash_const_iteratorIPNS_11__hash_nodeIPN3xpf9TweenBaseEPvEEEC1B8ue170006ERKNS_15__hash_iteratorIS7_EE, symObjAddr: 0x82F4, symBinAddr: 0x10001E398, symSize: 0x34 }
  - { offsetInCU: 0x15F2A, offset: 0x682A8, size: 0x8, addend: 0x0, symName: __ZNSt3__115__hash_iteratorIPNS_11__hash_nodeIPN3xpf9TweenBaseEPvEEEC1B8ue170006EPNS_16__hash_node_baseIS7_EE, symObjAddr: 0x834C, symBinAddr: 0x10001E3CC, symSize: 0x34 }
  - { offsetInCU: 0x15F64, offset: 0x682E2, size: 0x8, addend: 0x0, symName: __ZNSt3__115__hash_iteratorIPNS_11__hash_nodeIPN3xpf9TweenBaseEPvEEEC2B8ue170006EPNS_16__hash_node_baseIS7_EE, symObjAddr: 0x8394, symBinAddr: 0x10001E400, symSize: 0x20 }
  - { offsetInCU: 0x15F9E, offset: 0x6831C, size: 0x8, addend: 0x0, symName: __ZNSt3__121__hash_const_iteratorIPNS_11__hash_nodeIPN3xpf9TweenBaseEPvEEEC2B8ue170006ERKNS_15__hash_iteratorIS7_EE, symObjAddr: 0x83B4, symBinAddr: 0x10001E420, symSize: 0x24 }
  - { offsetInCU: 0x15FD8, offset: 0x68356, size: 0x8, addend: 0x0, symName: __ZNSt3__112__hash_tableIPN3xpf9TweenBaseENS_4hashIS3_EENS_8equal_toIS3_EENS_9allocatorIS3_EEE3endEv, symObjAddr: 0x83D8, symBinAddr: 0x10001E444, symSize: 0x2C }
  - { offsetInCU: 0x16000, offset: 0x6837E, size: 0x8, addend: 0x0, symName: __ZNSt3__110lock_guardINS_5mutexEED2B8ue170006Ev, symObjAddr: 0x846C, symBinAddr: 0x10001E4A0, symSize: 0x30 }
  - { offsetInCU: 0x1602A, offset: 0x683A8, size: 0x8, addend: 0x0, symName: __ZNSt3__112__tuple_leafILm1EZN3xpf12TweenService5StartEvEUlvE_Lb1EE3getB8ue170006Ev, symObjAddr: 0x8564, symBinAddr: 0x10001E598, symSize: 0x14 }
  - { offsetInCU: 0x16050, offset: 0x683CE, size: 0x8, addend: 0x0, symName: __ZNKSt3__117__compressed_pairIPNS_5tupleIJNS_10unique_ptrINS_15__thread_structENS_14default_deleteIS3_EEEEZN3xpf12TweenService5StartEvEUlvE_EEENS4_ISA_EEE5firstB8ue170006Ev, symObjAddr: 0x8578, symBinAddr: 0x10001E5AC, symSize: 0x24 }
  - { offsetInCU: 0x16076, offset: 0x683F4, size: 0x8, addend: 0x0, symName: __ZNKSt3__122__compressed_pair_elemIPNS_5tupleIJNS_10unique_ptrINS_15__thread_structENS_14default_deleteIS3_EEEEZN3xpf12TweenService5StartEvEUlvE_EEELi0ELb0EE5__getB8ue170006Ev, symObjAddr: 0x859C, symBinAddr: 0x10001E5D0, symSize: 0x14 }
  - { offsetInCU: 0x1609C, offset: 0x6841A, size: 0x8, addend: 0x0, symName: __ZNSt3__117__compressed_pairIPNS_5tupleIJNS_10unique_ptrINS_15__thread_structENS_14default_deleteIS3_EEEEZN3xpf12TweenService5StartEvEUlvE_EEENS4_ISA_EEE5firstB8ue170006Ev, symObjAddr: 0x85B0, symBinAddr: 0x10001E5E4, symSize: 0x24 }
  - { offsetInCU: 0x160C2, offset: 0x68440, size: 0x8, addend: 0x0, symName: __ZNSt3__122__compressed_pair_elemIPNS_5tupleIJNS_10unique_ptrINS_15__thread_structENS_14default_deleteIS3_EEEEZN3xpf12TweenService5StartEvEUlvE_EEELi0ELb0EE5__getB8ue170006Ev, symObjAddr: 0x85D4, symBinAddr: 0x10001E608, symSize: 0x14 }
  - { offsetInCU: 0x160E8, offset: 0x68466, size: 0x8, addend: 0x0, symName: __ZNSt3__110unique_ptrINS_5tupleIJNS0_INS_15__thread_structENS_14default_deleteIS2_EEEEZN3xpf12TweenService5StartEvEUlvE_EEENS3_IS9_EEED2B8ue170006Ev, symObjAddr: 0x85E8, symBinAddr: 0x10001E61C, symSize: 0x30 }
  - { offsetInCU: 0x16112, offset: 0x68490, size: 0x8, addend: 0x0, symName: __ZNSt3__110unique_ptrINS_5tupleIJNS0_INS_15__thread_structENS_14default_deleteIS2_EEEEZN3xpf12TweenService5StartEvEUlvE_EEENS3_IS9_EEE5resetB8ue170006EPS9_, symObjAddr: 0x8618, symBinAddr: 0x10001E64C, symSize: 0x78 }
  - { offsetInCU: 0x16158, offset: 0x684D6, size: 0x8, addend: 0x0, symName: __ZNSt3__117__compressed_pairIPNS_5tupleIJNS_10unique_ptrINS_15__thread_structENS_14default_deleteIS3_EEEEZN3xpf12TweenService5StartEvEUlvE_EEENS4_ISA_EEE6secondB8ue170006Ev, symObjAddr: 0x8690, symBinAddr: 0x10001E6C4, symSize: 0x24 }
  - { offsetInCU: 0x1617E, offset: 0x684FC, size: 0x8, addend: 0x0, symName: __ZNKSt3__114default_deleteINS_5tupleIJNS_10unique_ptrINS_15__thread_structENS0_IS3_EEEEZN3xpf12TweenService5StartEvEUlvE_EEEEclB8ue170006EPS9_, symObjAddr: 0x86B4, symBinAddr: 0x10001E6E8, symSize: 0x4C }
  - { offsetInCU: 0x161B2, offset: 0x68530, size: 0x8, addend: 0x0, symName: __ZNSt3__122__compressed_pair_elemINS_14default_deleteINS_5tupleIJNS_10unique_ptrINS_15__thread_structENS1_IS4_EEEEZN3xpf12TweenService5StartEvEUlvE_EEEEELi1ELb1EE5__getB8ue170006Ev, symObjAddr: 0x8700, symBinAddr: 0x10001E734, symSize: 0x14 }
  - { offsetInCU: 0x161D8, offset: 0x68556, size: 0x8, addend: 0x0, symName: __ZNSt3__15tupleIJNS_10unique_ptrINS_15__thread_structENS_14default_deleteIS2_EEEEZN3xpf12TweenService5StartEvEUlvE_EED1Ev, symObjAddr: 0x8714, symBinAddr: 0x10001E748, symSize: 0x2C }
  - { offsetInCU: 0x16205, offset: 0x68583, size: 0x8, addend: 0x0, symName: __ZNSt3__15tupleIJNS_10unique_ptrINS_15__thread_structENS_14default_deleteIS2_EEEEZN3xpf12TweenService5StartEvEUlvE_EED2Ev, symObjAddr: 0x8740, symBinAddr: 0x10001E774, symSize: 0x2C }
  - { offsetInCU: 0x16232, offset: 0x685B0, size: 0x8, addend: 0x0, symName: __ZNSt3__112__tuple_implINS_15__tuple_indicesIJLm0ELm1EEEEJNS_10unique_ptrINS_15__thread_structENS_14default_deleteIS4_EEEEZN3xpf12TweenService5StartEvEUlvE_EED1Ev, symObjAddr: 0x876C, symBinAddr: 0x10001E7A0, symSize: 0x2C }
  - { offsetInCU: 0x1625F, offset: 0x685DD, size: 0x8, addend: 0x0, symName: __ZNSt3__112__tuple_implINS_15__tuple_indicesIJLm0ELm1EEEEJNS_10unique_ptrINS_15__thread_structENS_14default_deleteIS4_EEEEZN3xpf12TweenService5StartEvEUlvE_EED2Ev, symObjAddr: 0x8798, symBinAddr: 0x10001E7CC, symSize: 0x2C }
  - { offsetInCU: 0x1628C, offset: 0x6860A, size: 0x8, addend: 0x0, symName: __ZNSt3__112__tuple_leafILm0ENS_10unique_ptrINS_15__thread_structENS_14default_deleteIS2_EEEELb0EED2Ev, symObjAddr: 0x87C4, symBinAddr: 0x10001E7F8, symSize: 0x2C }
  - { offsetInCU: 0x162B9, offset: 0x68637, size: 0x8, addend: 0x0, symName: __ZNSt3__110unique_ptrINS_15__thread_structENS_14default_deleteIS1_EEED2B8ue170006Ev, symObjAddr: 0x87F0, symBinAddr: 0x10001E824, symSize: 0x30 }
  - { offsetInCU: 0x162E3, offset: 0x68661, size: 0x8, addend: 0x0, symName: __ZNSt3__110unique_ptrINS_15__thread_structENS_14default_deleteIS1_EEE5resetB8ue170006EPS1_, symObjAddr: 0x8820, symBinAddr: 0x10001E854, symSize: 0x78 }
  - { offsetInCU: 0x16329, offset: 0x686A7, size: 0x8, addend: 0x0, symName: __ZNKSt3__114default_deleteINS_15__thread_structEEclB8ue170006EPS1_, symObjAddr: 0x8898, symBinAddr: 0x10001E8CC, symSize: 0x4C }
  - { offsetInCU: 0x1635D, offset: 0x686DB, size: 0x8, addend: 0x0, symName: __ZNSt3__16vectorIN3xpf13string_viewexENS_9allocatorIS2_EEED2B8ue170006Ev, symObjAddr: 0x892C, symBinAddr: 0x10001E960, symSize: 0x44 }
  - { offsetInCU: 0x16387, offset: 0x68705, size: 0x8, addend: 0x0, symName: __ZNSt3__16vectorIN3xpf13string_viewexENS_9allocatorIS2_EEE16__destroy_vectorC1B8ue170006ERS5_, symObjAddr: 0x8970, symBinAddr: 0x10001E9A4, symSize: 0x34 }
  - { offsetInCU: 0x163C1, offset: 0x6873F, size: 0x8, addend: 0x0, symName: __ZNSt3__16vectorIN3xpf13string_viewexENS_9allocatorIS2_EEE16__destroy_vectorclB8ue170006Ev, symObjAddr: 0x89A4, symBinAddr: 0x10001E9D8, symSize: 0x90 }
  - { offsetInCU: 0x163E7, offset: 0x68765, size: 0x8, addend: 0x0, symName: __ZNSt3__16vectorIN3xpf13string_viewexENS_9allocatorIS2_EEE16__destroy_vectorC2B8ue170006ERS5_, symObjAddr: 0x8A34, symBinAddr: 0x10001EA68, symSize: 0x20 }
  - { offsetInCU: 0x16421, offset: 0x6879F, size: 0x8, addend: 0x0, symName: __ZNSt3__16vectorIN3xpf13string_viewexENS_9allocatorIS2_EEE7__clearB8ue170006Ev, symObjAddr: 0x8A54, symBinAddr: 0x10001EA88, symSize: 0x28 }
  - { offsetInCU: 0x16447, offset: 0x687C5, size: 0x8, addend: 0x0, symName: __ZNSt3__16vectorIN3xpf13string_viewexENS_9allocatorIS2_EEE22__base_destruct_at_endB8ue170006EPS2_, symObjAddr: 0x8A7C, symBinAddr: 0x10001EAB0, symSize: 0x8C }
  - { offsetInCU: 0x1648D, offset: 0x6880B, size: 0x8, addend: 0x0, symName: __ZNSt3__16atomicIbEaSB8ue170006Eb, symObjAddr: 0x8B08, symBinAddr: 0x10001EB3C, symSize: 0x44 }
  - { offsetInCU: 0x164C1, offset: 0x6883F, size: 0x8, addend: 0x0, symName: __ZNSt3__113__atomic_baseIbLb0EE5storeB8ue170006EbNS_12memory_orderE, symObjAddr: 0x8B4C, symBinAddr: 0x10001EB80, symSize: 0x40 }
  - { offsetInCU: 0x49, offset: 0x68A44, size: 0x8, addend: 0x0, symName: __ZN3xpf4mathL13s_lerpPoints2E, symObjAddr: 0x631A0, symBinAddr: 0x100174378, symSize: 0x0 }
  - { offsetInCU: 0x62, offset: 0x68A5D, size: 0x8, addend: 0x0, symName: __ZN3xpf4mathL14s_lerpPoints10E, symObjAddr: 0x631B8, symBinAddr: 0x100174390, symSize: 0x0 }
  - { offsetInCU: 0x7B, offset: 0x68A76, size: 0x8, addend: 0x0, symName: __ZN3xpf4mathL14s_lerpPoints20E, symObjAddr: 0x631D0, symBinAddr: 0x1001743A8, symSize: 0x0 }
  - { offsetInCU: 0x94, offset: 0x68A8F, size: 0x8, addend: 0x0, symName: __ZN3xpf4mathL14s_lerpPoints40E, symObjAddr: 0x631E8, symBinAddr: 0x1001743C0, symSize: 0x0 }
  - { offsetInCU: 0xAD, offset: 0x68AA8, size: 0x8, addend: 0x0, symName: __ZN3xpf4mathL15s_lerpPoints200E, symObjAddr: 0x63200, symBinAddr: 0x1001743D8, symSize: 0x0 }
  - { offsetInCU: 0xC1, offset: 0x68ABC, size: 0x8, addend: 0x0, symName: __ZN3xpf6Colors9AliceBlueE, symObjAddr: 0x63248, symBinAddr: 0x100175380, symSize: 0x0 }
  - { offsetInCU: 0xD5, offset: 0x68AD0, size: 0x8, addend: 0x0, symName: __ZN3xpf6Colors12AntiqueWhiteE, symObjAddr: 0x6324C, symBinAddr: 0x100175384, symSize: 0x0 }
  - { offsetInCU: 0xE9, offset: 0x68AE4, size: 0x8, addend: 0x0, symName: __ZN3xpf6Colors4AquaE, symObjAddr: 0x63250, symBinAddr: 0x100175388, symSize: 0x0 }
  - { offsetInCU: 0xFD, offset: 0x68AF8, size: 0x8, addend: 0x0, symName: __ZN3xpf6Colors10AquamarineE, symObjAddr: 0x63254, symBinAddr: 0x10017538C, symSize: 0x0 }
  - { offsetInCU: 0x111, offset: 0x68B0C, size: 0x8, addend: 0x0, symName: __ZN3xpf6Colors5AzureE, symObjAddr: 0x63258, symBinAddr: 0x100175390, symSize: 0x0 }
  - { offsetInCU: 0x125, offset: 0x68B20, size: 0x8, addend: 0x0, symName: __ZN3xpf6Colors5BeigeE, symObjAddr: 0x6325C, symBinAddr: 0x100175394, symSize: 0x0 }
  - { offsetInCU: 0x139, offset: 0x68B34, size: 0x8, addend: 0x0, symName: __ZN3xpf6Colors6BisqueE, symObjAddr: 0x63260, symBinAddr: 0x100175398, symSize: 0x0 }
  - { offsetInCU: 0x14D, offset: 0x68B48, size: 0x8, addend: 0x0, symName: __ZN3xpf6Colors5BlackE, symObjAddr: 0x63264, symBinAddr: 0x10017539C, symSize: 0x0 }
  - { offsetInCU: 0x161, offset: 0x68B5C, size: 0x8, addend: 0x0, symName: __ZN3xpf6Colors14BlanchedAlmondE, symObjAddr: 0x63268, symBinAddr: 0x1001753A0, symSize: 0x0 }
  - { offsetInCU: 0x175, offset: 0x68B70, size: 0x8, addend: 0x0, symName: __ZN3xpf6Colors4BlueE, symObjAddr: 0x6326C, symBinAddr: 0x1001753A4, symSize: 0x0 }
  - { offsetInCU: 0x189, offset: 0x68B84, size: 0x8, addend: 0x0, symName: __ZN3xpf6Colors10BlueVioletE, symObjAddr: 0x63270, symBinAddr: 0x1001753A8, symSize: 0x0 }
  - { offsetInCU: 0x19D, offset: 0x68B98, size: 0x8, addend: 0x0, symName: __ZN3xpf6Colors5BrownE, symObjAddr: 0x63274, symBinAddr: 0x1001753AC, symSize: 0x0 }
  - { offsetInCU: 0x1B1, offset: 0x68BAC, size: 0x8, addend: 0x0, symName: __ZN3xpf6Colors9BurlyWoodE, symObjAddr: 0x63278, symBinAddr: 0x1001753B0, symSize: 0x0 }
  - { offsetInCU: 0x1C5, offset: 0x68BC0, size: 0x8, addend: 0x0, symName: __ZN3xpf6Colors9CadetBlueE, symObjAddr: 0x6327C, symBinAddr: 0x1001753B4, symSize: 0x0 }
  - { offsetInCU: 0x1D9, offset: 0x68BD4, size: 0x8, addend: 0x0, symName: __ZN3xpf6Colors10ChartreuseE, symObjAddr: 0x63280, symBinAddr: 0x1001753B8, symSize: 0x0 }
  - { offsetInCU: 0x1ED, offset: 0x68BE8, size: 0x8, addend: 0x0, symName: __ZN3xpf6Colors9ChocolateE, symObjAddr: 0x63284, symBinAddr: 0x1001753BC, symSize: 0x0 }
  - { offsetInCU: 0x201, offset: 0x68BFC, size: 0x8, addend: 0x0, symName: __ZN3xpf6Colors5CoralE, symObjAddr: 0x63288, symBinAddr: 0x1001753C0, symSize: 0x0 }
  - { offsetInCU: 0x215, offset: 0x68C10, size: 0x8, addend: 0x0, symName: __ZN3xpf6Colors14CornflowerBlueE, symObjAddr: 0x6328C, symBinAddr: 0x1001753C4, symSize: 0x0 }
  - { offsetInCU: 0x229, offset: 0x68C24, size: 0x8, addend: 0x0, symName: __ZN3xpf6Colors8CornsilkE, symObjAddr: 0x63290, symBinAddr: 0x1001753C8, symSize: 0x0 }
  - { offsetInCU: 0x23D, offset: 0x68C38, size: 0x8, addend: 0x0, symName: __ZN3xpf6Colors7CrimsonE, symObjAddr: 0x63294, symBinAddr: 0x1001753CC, symSize: 0x0 }
  - { offsetInCU: 0x251, offset: 0x68C4C, size: 0x8, addend: 0x0, symName: __ZN3xpf6Colors4CyanE, symObjAddr: 0x63298, symBinAddr: 0x1001753D0, symSize: 0x0 }
  - { offsetInCU: 0x265, offset: 0x68C60, size: 0x8, addend: 0x0, symName: __ZN3xpf6Colors8DarkBlueE, symObjAddr: 0x6329C, symBinAddr: 0x1001753D4, symSize: 0x0 }
  - { offsetInCU: 0x279, offset: 0x68C74, size: 0x8, addend: 0x0, symName: __ZN3xpf6Colors8DarkCyanE, symObjAddr: 0x632A0, symBinAddr: 0x1001753D8, symSize: 0x0 }
  - { offsetInCU: 0x28D, offset: 0x68C88, size: 0x8, addend: 0x0, symName: __ZN3xpf6Colors13DarkGoldenrodE, symObjAddr: 0x632A4, symBinAddr: 0x1001753DC, symSize: 0x0 }
  - { offsetInCU: 0x2A1, offset: 0x68C9C, size: 0x8, addend: 0x0, symName: __ZN3xpf6Colors8DarkGrayE, symObjAddr: 0x632A8, symBinAddr: 0x1001753E0, symSize: 0x0 }
  - { offsetInCU: 0x2B5, offset: 0x68CB0, size: 0x8, addend: 0x0, symName: __ZN3xpf6Colors9DarkGreenE, symObjAddr: 0x632AC, symBinAddr: 0x1001753E4, symSize: 0x0 }
  - { offsetInCU: 0x2C9, offset: 0x68CC4, size: 0x8, addend: 0x0, symName: __ZN3xpf6Colors9DarkKhakiE, symObjAddr: 0x632B0, symBinAddr: 0x1001753E8, symSize: 0x0 }
  - { offsetInCU: 0x2DD, offset: 0x68CD8, size: 0x8, addend: 0x0, symName: __ZN3xpf6Colors11DarkMagentaE, symObjAddr: 0x632B4, symBinAddr: 0x1001753EC, symSize: 0x0 }
  - { offsetInCU: 0x2F1, offset: 0x68CEC, size: 0x8, addend: 0x0, symName: __ZN3xpf6Colors14DarkOliveGreenE, symObjAddr: 0x632B8, symBinAddr: 0x1001753F0, symSize: 0x0 }
  - { offsetInCU: 0x305, offset: 0x68D00, size: 0x8, addend: 0x0, symName: __ZN3xpf6Colors10DarkOrangeE, symObjAddr: 0x632BC, symBinAddr: 0x1001753F4, symSize: 0x0 }
  - { offsetInCU: 0x319, offset: 0x68D14, size: 0x8, addend: 0x0, symName: __ZN3xpf6Colors10DarkOrchidE, symObjAddr: 0x632C0, symBinAddr: 0x1001753F8, symSize: 0x0 }
  - { offsetInCU: 0x32D, offset: 0x68D28, size: 0x8, addend: 0x0, symName: __ZN3xpf6Colors7DarkRedE, symObjAddr: 0x632C4, symBinAddr: 0x1001753FC, symSize: 0x0 }
  - { offsetInCU: 0x341, offset: 0x68D3C, size: 0x8, addend: 0x0, symName: __ZN3xpf6Colors10DarkSalmonE, symObjAddr: 0x632C8, symBinAddr: 0x100175400, symSize: 0x0 }
  - { offsetInCU: 0x355, offset: 0x68D50, size: 0x8, addend: 0x0, symName: __ZN3xpf6Colors12DarkSeaGreenE, symObjAddr: 0x632CC, symBinAddr: 0x100175404, symSize: 0x0 }
  - { offsetInCU: 0x369, offset: 0x68D64, size: 0x8, addend: 0x0, symName: __ZN3xpf6Colors13DarkSlateBlueE, symObjAddr: 0x632D0, symBinAddr: 0x100175408, symSize: 0x0 }
  - { offsetInCU: 0x37D, offset: 0x68D78, size: 0x8, addend: 0x0, symName: __ZN3xpf6Colors13DarkSlateGrayE, symObjAddr: 0x632D4, symBinAddr: 0x10017540C, symSize: 0x0 }
  - { offsetInCU: 0x391, offset: 0x68D8C, size: 0x8, addend: 0x0, symName: __ZN3xpf6Colors13DarkTurquoiseE, symObjAddr: 0x632D8, symBinAddr: 0x100175410, symSize: 0x0 }
  - { offsetInCU: 0x3A5, offset: 0x68DA0, size: 0x8, addend: 0x0, symName: __ZN3xpf6Colors10DarkVioletE, symObjAddr: 0x632DC, symBinAddr: 0x100175414, symSize: 0x0 }
  - { offsetInCU: 0x3B9, offset: 0x68DB4, size: 0x8, addend: 0x0, symName: __ZN3xpf6Colors8DeepPinkE, symObjAddr: 0x632E0, symBinAddr: 0x100175418, symSize: 0x0 }
  - { offsetInCU: 0x3CD, offset: 0x68DC8, size: 0x8, addend: 0x0, symName: __ZN3xpf6Colors11DeepSkyBlueE, symObjAddr: 0x632E4, symBinAddr: 0x10017541C, symSize: 0x0 }
  - { offsetInCU: 0x3E1, offset: 0x68DDC, size: 0x8, addend: 0x0, symName: __ZN3xpf6Colors7DimGrayE, symObjAddr: 0x632E8, symBinAddr: 0x100175420, symSize: 0x0 }
  - { offsetInCU: 0x3F5, offset: 0x68DF0, size: 0x8, addend: 0x0, symName: __ZN3xpf6Colors10DodgerBlueE, symObjAddr: 0x632EC, symBinAddr: 0x100175424, symSize: 0x0 }
  - { offsetInCU: 0x409, offset: 0x68E04, size: 0x8, addend: 0x0, symName: __ZN3xpf6Colors9FirebrickE, symObjAddr: 0x632F0, symBinAddr: 0x100175428, symSize: 0x0 }
  - { offsetInCU: 0x41D, offset: 0x68E18, size: 0x8, addend: 0x0, symName: __ZN3xpf6Colors11FloralWhiteE, symObjAddr: 0x632F4, symBinAddr: 0x10017542C, symSize: 0x0 }
  - { offsetInCU: 0x431, offset: 0x68E2C, size: 0x8, addend: 0x0, symName: __ZN3xpf6Colors11ForestGreenE, symObjAddr: 0x632F8, symBinAddr: 0x100175430, symSize: 0x0 }
  - { offsetInCU: 0x445, offset: 0x68E40, size: 0x8, addend: 0x0, symName: __ZN3xpf6Colors7FuchsiaE, symObjAddr: 0x632FC, symBinAddr: 0x100175434, symSize: 0x0 }
  - { offsetInCU: 0x459, offset: 0x68E54, size: 0x8, addend: 0x0, symName: __ZN3xpf6Colors9GainsboroE, symObjAddr: 0x63300, symBinAddr: 0x100175438, symSize: 0x0 }
  - { offsetInCU: 0x46D, offset: 0x68E68, size: 0x8, addend: 0x0, symName: __ZN3xpf6Colors10GhostWhiteE, symObjAddr: 0x63304, symBinAddr: 0x10017543C, symSize: 0x0 }
  - { offsetInCU: 0x481, offset: 0x68E7C, size: 0x8, addend: 0x0, symName: __ZN3xpf6Colors4GoldE, symObjAddr: 0x63308, symBinAddr: 0x100175440, symSize: 0x0 }
  - { offsetInCU: 0x495, offset: 0x68E90, size: 0x8, addend: 0x0, symName: __ZN3xpf6Colors9GoldenrodE, symObjAddr: 0x6330C, symBinAddr: 0x100175444, symSize: 0x0 }
  - { offsetInCU: 0x4A9, offset: 0x68EA4, size: 0x8, addend: 0x0, symName: __ZN3xpf6Colors4GrayE, symObjAddr: 0x63310, symBinAddr: 0x100175448, symSize: 0x0 }
  - { offsetInCU: 0x4BD, offset: 0x68EB8, size: 0x8, addend: 0x0, symName: __ZN3xpf6Colors5GreenE, symObjAddr: 0x63314, symBinAddr: 0x10017544C, symSize: 0x0 }
  - { offsetInCU: 0x4D1, offset: 0x68ECC, size: 0x8, addend: 0x0, symName: __ZN3xpf6Colors11GreenYellowE, symObjAddr: 0x63318, symBinAddr: 0x100175450, symSize: 0x0 }
  - { offsetInCU: 0x4E5, offset: 0x68EE0, size: 0x8, addend: 0x0, symName: __ZN3xpf6Colors8HoneydewE, symObjAddr: 0x6331C, symBinAddr: 0x100175454, symSize: 0x0 }
  - { offsetInCU: 0x4F9, offset: 0x68EF4, size: 0x8, addend: 0x0, symName: __ZN3xpf6Colors7HotPinkE, symObjAddr: 0x63320, symBinAddr: 0x100175458, symSize: 0x0 }
  - { offsetInCU: 0x50D, offset: 0x68F08, size: 0x8, addend: 0x0, symName: __ZN3xpf6Colors9IndianRedE, symObjAddr: 0x63324, symBinAddr: 0x10017545C, symSize: 0x0 }
  - { offsetInCU: 0x521, offset: 0x68F1C, size: 0x8, addend: 0x0, symName: __ZN3xpf6Colors6IndigoE, symObjAddr: 0x63328, symBinAddr: 0x100175460, symSize: 0x0 }
  - { offsetInCU: 0x535, offset: 0x68F30, size: 0x8, addend: 0x0, symName: __ZN3xpf6Colors5IvoryE, symObjAddr: 0x6332C, symBinAddr: 0x100175464, symSize: 0x0 }
  - { offsetInCU: 0x549, offset: 0x68F44, size: 0x8, addend: 0x0, symName: __ZN3xpf6Colors5KhakiE, symObjAddr: 0x63330, symBinAddr: 0x100175468, symSize: 0x0 }
  - { offsetInCU: 0x55D, offset: 0x68F58, size: 0x8, addend: 0x0, symName: __ZN3xpf6Colors8LavenderE, symObjAddr: 0x63334, symBinAddr: 0x10017546C, symSize: 0x0 }
  - { offsetInCU: 0x571, offset: 0x68F6C, size: 0x8, addend: 0x0, symName: __ZN3xpf6Colors13LavenderBlushE, symObjAddr: 0x63338, symBinAddr: 0x100175470, symSize: 0x0 }
  - { offsetInCU: 0x585, offset: 0x68F80, size: 0x8, addend: 0x0, symName: __ZN3xpf6Colors9LawnGreenE, symObjAddr: 0x6333C, symBinAddr: 0x100175474, symSize: 0x0 }
  - { offsetInCU: 0x599, offset: 0x68F94, size: 0x8, addend: 0x0, symName: __ZN3xpf6Colors12LemonChiffonE, symObjAddr: 0x63340, symBinAddr: 0x100175478, symSize: 0x0 }
  - { offsetInCU: 0x5AD, offset: 0x68FA8, size: 0x8, addend: 0x0, symName: __ZN3xpf6Colors9LightBlueE, symObjAddr: 0x63344, symBinAddr: 0x10017547C, symSize: 0x0 }
  - { offsetInCU: 0x5C1, offset: 0x68FBC, size: 0x8, addend: 0x0, symName: __ZN3xpf6Colors10LightCoralE, symObjAddr: 0x63348, symBinAddr: 0x100175480, symSize: 0x0 }
  - { offsetInCU: 0x5D5, offset: 0x68FD0, size: 0x8, addend: 0x0, symName: __ZN3xpf6Colors9LightCyanE, symObjAddr: 0x6334C, symBinAddr: 0x100175484, symSize: 0x0 }
  - { offsetInCU: 0x5E9, offset: 0x68FE4, size: 0x8, addend: 0x0, symName: __ZN3xpf6Colors20LightGoldenrodYellowE, symObjAddr: 0x63350, symBinAddr: 0x100175488, symSize: 0x0 }
  - { offsetInCU: 0x5FD, offset: 0x68FF8, size: 0x8, addend: 0x0, symName: __ZN3xpf6Colors9LightGrayE, symObjAddr: 0x63354, symBinAddr: 0x10017548C, symSize: 0x0 }
  - { offsetInCU: 0x611, offset: 0x6900C, size: 0x8, addend: 0x0, symName: __ZN3xpf6Colors10LightGreenE, symObjAddr: 0x63358, symBinAddr: 0x100175490, symSize: 0x0 }
  - { offsetInCU: 0x625, offset: 0x69020, size: 0x8, addend: 0x0, symName: __ZN3xpf6Colors9LightPinkE, symObjAddr: 0x6335C, symBinAddr: 0x100175494, symSize: 0x0 }
  - { offsetInCU: 0x639, offset: 0x69034, size: 0x8, addend: 0x0, symName: __ZN3xpf6Colors11LightSalmonE, symObjAddr: 0x63360, symBinAddr: 0x100175498, symSize: 0x0 }
  - { offsetInCU: 0x64D, offset: 0x69048, size: 0x8, addend: 0x0, symName: __ZN3xpf6Colors13LightSeaGreenE, symObjAddr: 0x63364, symBinAddr: 0x10017549C, symSize: 0x0 }
  - { offsetInCU: 0x661, offset: 0x6905C, size: 0x8, addend: 0x0, symName: __ZN3xpf6Colors12LightSkyBlueE, symObjAddr: 0x63368, symBinAddr: 0x1001754A0, symSize: 0x0 }
  - { offsetInCU: 0x675, offset: 0x69070, size: 0x8, addend: 0x0, symName: __ZN3xpf6Colors14LightSlateGrayE, symObjAddr: 0x6336C, symBinAddr: 0x1001754A4, symSize: 0x0 }
  - { offsetInCU: 0x689, offset: 0x69084, size: 0x8, addend: 0x0, symName: __ZN3xpf6Colors14LightSteelBlueE, symObjAddr: 0x63370, symBinAddr: 0x1001754A8, symSize: 0x0 }
  - { offsetInCU: 0x69D, offset: 0x69098, size: 0x8, addend: 0x0, symName: __ZN3xpf6Colors11LightYellowE, symObjAddr: 0x63374, symBinAddr: 0x1001754AC, symSize: 0x0 }
  - { offsetInCU: 0x6B1, offset: 0x690AC, size: 0x8, addend: 0x0, symName: __ZN3xpf6Colors4LimeE, symObjAddr: 0x63378, symBinAddr: 0x1001754B0, symSize: 0x0 }
  - { offsetInCU: 0x6C5, offset: 0x690C0, size: 0x8, addend: 0x0, symName: __ZN3xpf6Colors9LimeGreenE, symObjAddr: 0x6337C, symBinAddr: 0x1001754B4, symSize: 0x0 }
  - { offsetInCU: 0x6D9, offset: 0x690D4, size: 0x8, addend: 0x0, symName: __ZN3xpf6Colors5LinenE, symObjAddr: 0x63380, symBinAddr: 0x1001754B8, symSize: 0x0 }
  - { offsetInCU: 0x6ED, offset: 0x690E8, size: 0x8, addend: 0x0, symName: __ZN3xpf6Colors7MagentaE, symObjAddr: 0x63384, symBinAddr: 0x1001754BC, symSize: 0x0 }
  - { offsetInCU: 0x701, offset: 0x690FC, size: 0x8, addend: 0x0, symName: __ZN3xpf6Colors6MaroonE, symObjAddr: 0x63388, symBinAddr: 0x1001754C0, symSize: 0x0 }
  - { offsetInCU: 0x715, offset: 0x69110, size: 0x8, addend: 0x0, symName: __ZN3xpf6Colors16MediumAquamarineE, symObjAddr: 0x6338C, symBinAddr: 0x1001754C4, symSize: 0x0 }
  - { offsetInCU: 0x729, offset: 0x69124, size: 0x8, addend: 0x0, symName: __ZN3xpf6Colors10MediumBlueE, symObjAddr: 0x63390, symBinAddr: 0x1001754C8, symSize: 0x0 }
  - { offsetInCU: 0x73D, offset: 0x69138, size: 0x8, addend: 0x0, symName: __ZN3xpf6Colors12MediumOrchidE, symObjAddr: 0x63394, symBinAddr: 0x1001754CC, symSize: 0x0 }
  - { offsetInCU: 0x751, offset: 0x6914C, size: 0x8, addend: 0x0, symName: __ZN3xpf6Colors12MediumPurpleE, symObjAddr: 0x63398, symBinAddr: 0x1001754D0, symSize: 0x0 }
  - { offsetInCU: 0x765, offset: 0x69160, size: 0x8, addend: 0x0, symName: __ZN3xpf6Colors14MediumSeaGreenE, symObjAddr: 0x6339C, symBinAddr: 0x1001754D4, symSize: 0x0 }
  - { offsetInCU: 0x779, offset: 0x69174, size: 0x8, addend: 0x0, symName: __ZN3xpf6Colors15MediumSlateBlueE, symObjAddr: 0x633A0, symBinAddr: 0x1001754D8, symSize: 0x0 }
  - { offsetInCU: 0x78D, offset: 0x69188, size: 0x8, addend: 0x0, symName: __ZN3xpf6Colors17MediumSpringGreenE, symObjAddr: 0x633A4, symBinAddr: 0x1001754DC, symSize: 0x0 }
  - { offsetInCU: 0x7A1, offset: 0x6919C, size: 0x8, addend: 0x0, symName: __ZN3xpf6Colors15MediumTurquoiseE, symObjAddr: 0x633A8, symBinAddr: 0x1001754E0, symSize: 0x0 }
  - { offsetInCU: 0x7B5, offset: 0x691B0, size: 0x8, addend: 0x0, symName: __ZN3xpf6Colors15MediumVioletRedE, symObjAddr: 0x633AC, symBinAddr: 0x1001754E4, symSize: 0x0 }
  - { offsetInCU: 0x7C9, offset: 0x691C4, size: 0x8, addend: 0x0, symName: __ZN3xpf6Colors12MidnightBlueE, symObjAddr: 0x633B0, symBinAddr: 0x1001754E8, symSize: 0x0 }
  - { offsetInCU: 0x7DD, offset: 0x691D8, size: 0x8, addend: 0x0, symName: __ZN3xpf6Colors9MintCreamE, symObjAddr: 0x633B4, symBinAddr: 0x1001754EC, symSize: 0x0 }
  - { offsetInCU: 0x7F1, offset: 0x691EC, size: 0x8, addend: 0x0, symName: __ZN3xpf6Colors9MistyRoseE, symObjAddr: 0x633B8, symBinAddr: 0x1001754F0, symSize: 0x0 }
  - { offsetInCU: 0x805, offset: 0x69200, size: 0x8, addend: 0x0, symName: __ZN3xpf6Colors8MoccasinE, symObjAddr: 0x633BC, symBinAddr: 0x1001754F4, symSize: 0x0 }
  - { offsetInCU: 0x819, offset: 0x69214, size: 0x8, addend: 0x0, symName: __ZN3xpf6Colors11NavajoWhiteE, symObjAddr: 0x633C0, symBinAddr: 0x1001754F8, symSize: 0x0 }
  - { offsetInCU: 0x82D, offset: 0x69228, size: 0x8, addend: 0x0, symName: __ZN3xpf6Colors4NavyE, symObjAddr: 0x633C4, symBinAddr: 0x1001754FC, symSize: 0x0 }
  - { offsetInCU: 0x841, offset: 0x6923C, size: 0x8, addend: 0x0, symName: __ZN3xpf6Colors7OldLaceE, symObjAddr: 0x633C8, symBinAddr: 0x100175500, symSize: 0x0 }
  - { offsetInCU: 0x855, offset: 0x69250, size: 0x8, addend: 0x0, symName: __ZN3xpf6Colors5OliveE, symObjAddr: 0x633CC, symBinAddr: 0x100175504, symSize: 0x0 }
  - { offsetInCU: 0x869, offset: 0x69264, size: 0x8, addend: 0x0, symName: __ZN3xpf6Colors9OliveDrabE, symObjAddr: 0x633D0, symBinAddr: 0x100175508, symSize: 0x0 }
  - { offsetInCU: 0x87D, offset: 0x69278, size: 0x8, addend: 0x0, symName: __ZN3xpf6Colors6OrangeE, symObjAddr: 0x633D4, symBinAddr: 0x10017550C, symSize: 0x0 }
  - { offsetInCU: 0x891, offset: 0x6928C, size: 0x8, addend: 0x0, symName: __ZN3xpf6Colors9OrangeRedE, symObjAddr: 0x633D8, symBinAddr: 0x100175510, symSize: 0x0 }
  - { offsetInCU: 0x8A5, offset: 0x692A0, size: 0x8, addend: 0x0, symName: __ZN3xpf6Colors6OrchidE, symObjAddr: 0x633DC, symBinAddr: 0x100175514, symSize: 0x0 }
  - { offsetInCU: 0x8B9, offset: 0x692B4, size: 0x8, addend: 0x0, symName: __ZN3xpf6Colors13PaleGoldenrodE, symObjAddr: 0x633E0, symBinAddr: 0x100175518, symSize: 0x0 }
  - { offsetInCU: 0x8CD, offset: 0x692C8, size: 0x8, addend: 0x0, symName: __ZN3xpf6Colors9PaleGreenE, symObjAddr: 0x633E4, symBinAddr: 0x10017551C, symSize: 0x0 }
  - { offsetInCU: 0x8E1, offset: 0x692DC, size: 0x8, addend: 0x0, symName: __ZN3xpf6Colors13PaleTurquoiseE, symObjAddr: 0x633E8, symBinAddr: 0x100175520, symSize: 0x0 }
  - { offsetInCU: 0x8F5, offset: 0x692F0, size: 0x8, addend: 0x0, symName: __ZN3xpf6Colors13PaleVioletRedE, symObjAddr: 0x633EC, symBinAddr: 0x100175524, symSize: 0x0 }
  - { offsetInCU: 0x909, offset: 0x69304, size: 0x8, addend: 0x0, symName: __ZN3xpf6Colors10PapayaWhipE, symObjAddr: 0x633F0, symBinAddr: 0x100175528, symSize: 0x0 }
  - { offsetInCU: 0x91D, offset: 0x69318, size: 0x8, addend: 0x0, symName: __ZN3xpf6Colors9PeachPuffE, symObjAddr: 0x633F4, symBinAddr: 0x10017552C, symSize: 0x0 }
  - { offsetInCU: 0x931, offset: 0x6932C, size: 0x8, addend: 0x0, symName: __ZN3xpf6Colors4PeruE, symObjAddr: 0x633F8, symBinAddr: 0x100175530, symSize: 0x0 }
  - { offsetInCU: 0x945, offset: 0x69340, size: 0x8, addend: 0x0, symName: __ZN3xpf6Colors4PinkE, symObjAddr: 0x633FC, symBinAddr: 0x100175534, symSize: 0x0 }
  - { offsetInCU: 0x959, offset: 0x69354, size: 0x8, addend: 0x0, symName: __ZN3xpf6Colors4PlumE, symObjAddr: 0x63400, symBinAddr: 0x100175538, symSize: 0x0 }
  - { offsetInCU: 0x96D, offset: 0x69368, size: 0x8, addend: 0x0, symName: __ZN3xpf6Colors10PowderBlueE, symObjAddr: 0x63404, symBinAddr: 0x10017553C, symSize: 0x0 }
  - { offsetInCU: 0x981, offset: 0x6937C, size: 0x8, addend: 0x0, symName: __ZN3xpf6Colors6PurpleE, symObjAddr: 0x63408, symBinAddr: 0x100175540, symSize: 0x0 }
  - { offsetInCU: 0x995, offset: 0x69390, size: 0x8, addend: 0x0, symName: __ZN3xpf6Colors3RedE, symObjAddr: 0x6340C, symBinAddr: 0x100175544, symSize: 0x0 }
  - { offsetInCU: 0x9A9, offset: 0x693A4, size: 0x8, addend: 0x0, symName: __ZN3xpf6Colors9RosyBrownE, symObjAddr: 0x63410, symBinAddr: 0x100175548, symSize: 0x0 }
  - { offsetInCU: 0x9BD, offset: 0x693B8, size: 0x8, addend: 0x0, symName: __ZN3xpf6Colors9RoyalBlueE, symObjAddr: 0x63414, symBinAddr: 0x10017554C, symSize: 0x0 }
  - { offsetInCU: 0x9D1, offset: 0x693CC, size: 0x8, addend: 0x0, symName: __ZN3xpf6Colors11SaddleBrownE, symObjAddr: 0x63418, symBinAddr: 0x100175550, symSize: 0x0 }
  - { offsetInCU: 0x9E5, offset: 0x693E0, size: 0x8, addend: 0x0, symName: __ZN3xpf6Colors6SalmonE, symObjAddr: 0x6341C, symBinAddr: 0x100175554, symSize: 0x0 }
  - { offsetInCU: 0x9F9, offset: 0x693F4, size: 0x8, addend: 0x0, symName: __ZN3xpf6Colors10SandyBrownE, symObjAddr: 0x63420, symBinAddr: 0x100175558, symSize: 0x0 }
  - { offsetInCU: 0xA0D, offset: 0x69408, size: 0x8, addend: 0x0, symName: __ZN3xpf6Colors8SeaGreenE, symObjAddr: 0x63424, symBinAddr: 0x10017555C, symSize: 0x0 }
  - { offsetInCU: 0xA21, offset: 0x6941C, size: 0x8, addend: 0x0, symName: __ZN3xpf6Colors8SeaShellE, symObjAddr: 0x63428, symBinAddr: 0x100175560, symSize: 0x0 }
  - { offsetInCU: 0xA35, offset: 0x69430, size: 0x8, addend: 0x0, symName: __ZN3xpf6Colors6SiennaE, symObjAddr: 0x6342C, symBinAddr: 0x100175564, symSize: 0x0 }
  - { offsetInCU: 0xA49, offset: 0x69444, size: 0x8, addend: 0x0, symName: __ZN3xpf6Colors6SilverE, symObjAddr: 0x63430, symBinAddr: 0x100175568, symSize: 0x0 }
  - { offsetInCU: 0xA5D, offset: 0x69458, size: 0x8, addend: 0x0, symName: __ZN3xpf6Colors7SkyBlueE, symObjAddr: 0x63434, symBinAddr: 0x10017556C, symSize: 0x0 }
  - { offsetInCU: 0xA71, offset: 0x6946C, size: 0x8, addend: 0x0, symName: __ZN3xpf6Colors9SlateBlueE, symObjAddr: 0x63438, symBinAddr: 0x100175570, symSize: 0x0 }
  - { offsetInCU: 0xA85, offset: 0x69480, size: 0x8, addend: 0x0, symName: __ZN3xpf6Colors9SlateGrayE, symObjAddr: 0x6343C, symBinAddr: 0x100175574, symSize: 0x0 }
  - { offsetInCU: 0xA99, offset: 0x69494, size: 0x8, addend: 0x0, symName: __ZN3xpf6Colors4SnowE, symObjAddr: 0x63440, symBinAddr: 0x100175578, symSize: 0x0 }
  - { offsetInCU: 0xAAD, offset: 0x694A8, size: 0x8, addend: 0x0, symName: __ZN3xpf6Colors11SpringGreenE, symObjAddr: 0x63444, symBinAddr: 0x10017557C, symSize: 0x0 }
  - { offsetInCU: 0xAC1, offset: 0x694BC, size: 0x8, addend: 0x0, symName: __ZN3xpf6Colors9SteelBlueE, symObjAddr: 0x63448, symBinAddr: 0x100175580, symSize: 0x0 }
  - { offsetInCU: 0xAD5, offset: 0x694D0, size: 0x8, addend: 0x0, symName: __ZN3xpf6Colors3TanE, symObjAddr: 0x6344C, symBinAddr: 0x100175584, symSize: 0x0 }
  - { offsetInCU: 0xAE9, offset: 0x694E4, size: 0x8, addend: 0x0, symName: __ZN3xpf6Colors4TealE, symObjAddr: 0x63450, symBinAddr: 0x100175588, symSize: 0x0 }
  - { offsetInCU: 0xAFD, offset: 0x694F8, size: 0x8, addend: 0x0, symName: __ZN3xpf6Colors7ThistleE, symObjAddr: 0x63454, symBinAddr: 0x10017558C, symSize: 0x0 }
  - { offsetInCU: 0xB11, offset: 0x6950C, size: 0x8, addend: 0x0, symName: __ZN3xpf6Colors6TomatoE, symObjAddr: 0x63458, symBinAddr: 0x100175590, symSize: 0x0 }
  - { offsetInCU: 0xB25, offset: 0x69520, size: 0x8, addend: 0x0, symName: __ZN3xpf6Colors11TransparentE, symObjAddr: 0x6345C, symBinAddr: 0x100175594, symSize: 0x0 }
  - { offsetInCU: 0xB39, offset: 0x69534, size: 0x8, addend: 0x0, symName: __ZN3xpf6Colors9TurquoiseE, symObjAddr: 0x63460, symBinAddr: 0x100175598, symSize: 0x0 }
  - { offsetInCU: 0xB4D, offset: 0x69548, size: 0x8, addend: 0x0, symName: __ZN3xpf6Colors6VioletE, symObjAddr: 0x63464, symBinAddr: 0x10017559C, symSize: 0x0 }
  - { offsetInCU: 0xB61, offset: 0x6955C, size: 0x8, addend: 0x0, symName: __ZN3xpf6Colors5WheatE, symObjAddr: 0x63468, symBinAddr: 0x1001755A0, symSize: 0x0 }
  - { offsetInCU: 0xB75, offset: 0x69570, size: 0x8, addend: 0x0, symName: __ZN3xpf6Colors5WhiteE, symObjAddr: 0x6346C, symBinAddr: 0x1001755A4, symSize: 0x0 }
  - { offsetInCU: 0xB89, offset: 0x69584, size: 0x8, addend: 0x0, symName: __ZN3xpf6Colors10WhiteSmokeE, symObjAddr: 0x63470, symBinAddr: 0x1001755A8, symSize: 0x0 }
  - { offsetInCU: 0xB9D, offset: 0x69598, size: 0x8, addend: 0x0, symName: __ZN3xpf6Colors6YellowE, symObjAddr: 0x63474, symBinAddr: 0x1001755AC, symSize: 0x0 }
  - { offsetInCU: 0xBB1, offset: 0x695AC, size: 0x8, addend: 0x0, symName: __ZN3xpf6Colors11YellowGreenE, symObjAddr: 0x63478, symBinAddr: 0x1001755B0, symSize: 0x0 }
  - { offsetInCU: 0xBC5, offset: 0x695C0, size: 0x8, addend: 0x0, symName: __ZN3xpf6Colors8XpfBlackE, symObjAddr: 0x6347C, symBinAddr: 0x1001755B4, symSize: 0x0 }
  - { offsetInCU: 0xBD9, offset: 0x695D4, size: 0x8, addend: 0x0, symName: __ZN3xpf6Colors7XpfGrayE, symObjAddr: 0x63480, symBinAddr: 0x1001755B8, symSize: 0x0 }
  - { offsetInCU: 0xBED, offset: 0x695E8, size: 0x8, addend: 0x0, symName: __ZN3xpf6Colors8XpfWhiteE, symObjAddr: 0x63484, symBinAddr: 0x1001755BC, symSize: 0x0 }
  - { offsetInCU: 0xC01, offset: 0x695FC, size: 0x8, addend: 0x0, symName: __ZN3xpf6Colors6XpfRedE, symObjAddr: 0x63488, symBinAddr: 0x1001755C0, symSize: 0x0 }
  - { offsetInCU: 0xC15, offset: 0x69610, size: 0x8, addend: 0x0, symName: __ZN3xpf6Colors5HoneyE, symObjAddr: 0x6348C, symBinAddr: 0x1001755C4, symSize: 0x0 }
  - { offsetInCU: 0xC29, offset: 0x69624, size: 0x8, addend: 0x0, symName: __ZN3xpf6Colors9BlueSuedeE, symObjAddr: 0x63490, symBinAddr: 0x1001755C8, symSize: 0x0 }
  - { offsetInCU: 0xC37, offset: 0x69632, size: 0x8, addend: 0x0, symName: __ZN3xpfL14read_hex_digitEc, symObjAddr: 0x1A88, symBinAddr: 0x1000207E8, symSize: 0xD0 }
  - { offsetInCU: 0xC63, offset: 0x6965E, size: 0x8, addend: 0x0, symName: __ZN3xpfL19read_hex_two_digitsENSt3__117basic_string_viewIcNS0_11char_traitsIcEEEERm, symObjAddr: 0x1B58, symBinAddr: 0x1000208B8, symSize: 0x90 }
  - { offsetInCU: 0x639B, offset: 0x6ED96, size: 0x8, addend: 0x0, symName: __ZNSt3__1eqB8ue170006ERKNS_25__hash_map_const_iteratorINS_21__hash_const_iteratorIPNS_11__hash_nodeINS_17__hash_value_typeINS_17basic_string_viewIcNS_11char_traitsIcEEEEN3xpf5ColorEEEPvEEEEEESH_, symObjAddr: 0x2050, symBinAddr: 0x100020DB0, symSize: 0x30 }
  - { offsetInCU: 0x63DB, offset: 0x6EDD6, size: 0x8, addend: 0x0, symName: __ZNSt3__116__constrain_hashB8ue170006Emm, symObjAddr: 0x55F8, symBinAddr: 0x100021FC0, symSize: 0x98 }
  - { offsetInCU: 0x6415, offset: 0x6EE10, size: 0x8, addend: 0x0, symName: __ZNSt3__116__is_hash_power2B8ue170006Em, symObjAddr: 0x592C, symBinAddr: 0x1000222F4, symSize: 0x50 }
  - { offsetInCU: 0x6441, offset: 0x6EE3C, size: 0x8, addend: 0x0, symName: __ZNSt3__116__do_string_hashB8ue170006IPKcEEmT_S3_, symObjAddr: 0x5BBC, symBinAddr: 0x100022584, symSize: 0x3C }
  - { offsetInCU: 0x648A, offset: 0x6EE85, size: 0x8, addend: 0x0, symName: __ZNSt3__110__loadwordB8ue170006ImEET_PKv, symObjAddr: 0x65E0, symBinAddr: 0x100022F78, symSize: 0x20 }
  - { offsetInCU: 0x64CD, offset: 0x6EEC8, size: 0x8, addend: 0x0, symName: __ZNSt3__14swapB8ue170006ImEENS_9enable_ifIXaasr21is_move_constructibleIT_EE5valuesr18is_move_assignableIS2_EE5valueEvE4typeERS2_S5_, symObjAddr: 0x679C, symBinAddr: 0x100023134, symSize: 0x3C }
  - { offsetInCU: 0x651E, offset: 0x6EF19, size: 0x8, addend: 0x0, symName: __ZNSt3__110__loadwordB8ue170006IjEET_PKv, symObjAddr: 0x682C, symBinAddr: 0x1000231C4, symSize: 0x20 }
  - { offsetInCU: 0x6561, offset: 0x6EF5C, size: 0x8, addend: 0x0, symName: __ZNSt3__1eqB8ue170006IcNS_11char_traitsIcEEEEbNS_17basic_string_viewIT_T0_EES6_, symObjAddr: 0x6B3C, symBinAddr: 0x1000234D4, symSize: 0xB0 }
  - { offsetInCU: 0x65B3, offset: 0x6EFAE, size: 0x8, addend: 0x0, symName: __ZNSt3__17launderB8ue170006IKNS_4pairIKNS_17basic_string_viewIcNS_11char_traitsIcEEEEN3xpf5ColorEEEEEPT_SC_, symObjAddr: 0x6D5C, symBinAddr: 0x1000236F4, symSize: 0x24 }
  - { offsetInCU: 0x65EC, offset: 0x6EFE7, size: 0x8, addend: 0x0, symName: __ZNSt3__19__launderB8ue170006IKNS_4pairIKNS_17basic_string_viewIcNS_11char_traitsIcEEEEN3xpf5ColorEEEEEPT_SC_, symObjAddr: 0x6D80, symBinAddr: 0x100023718, symSize: 0x14 }
  - { offsetInCU: 0x669D, offset: 0x6F098, size: 0x8, addend: 0x0, symName: __ZNSt3__112construct_atB8ue170006INS_4pairIKNS_17basic_string_viewIcNS_11char_traitsIcEEEEN3xpf5ColorEEEJRKS9_EPS9_EEPT_SE_DpOT0_, symObjAddr: 0x7100, symBinAddr: 0x100023A98, symSize: 0x34 }
  - { offsetInCU: 0x670F, offset: 0x6F10A, size: 0x8, addend: 0x0, symName: __ZNSt3__17launderB8ue170006INS_4pairIKNS_17basic_string_viewIcNS_11char_traitsIcEEEEN3xpf5ColorEEEEEPT_SB_, symObjAddr: 0x7158, symBinAddr: 0x100023AF0, symSize: 0x24 }
  - { offsetInCU: 0x6748, offset: 0x6F143, size: 0x8, addend: 0x0, symName: __ZNSt3__19__launderB8ue170006INS_4pairIKNS_17basic_string_viewIcNS_11char_traitsIcEEEEN3xpf5ColorEEEEEPT_SB_, symObjAddr: 0x717C, symBinAddr: 0x100023B14, symSize: 0x14 }
  - { offsetInCU: 0x6781, offset: 0x6F17C, size: 0x8, addend: 0x0, symName: __ZNSt3__116__next_hash_pow2B8ue170006Em, symObjAddr: 0x766C, symBinAddr: 0x100023FF0, symSize: 0x6C }
  - { offsetInCU: 0x67AD, offset: 0x6F1A8, size: 0x8, addend: 0x0, symName: __ZNSt3__112__libcpp_clzB8ue170006Em, symObjAddr: 0x7A04, symBinAddr: 0x100024388, symSize: 0x1C }
  - { offsetInCU: 0x67D9, offset: 0x6F1D4, size: 0x8, addend: 0x0, symName: __ZNSt3__110destroy_atB8ue170006INS_4pairIKNS_17basic_string_viewIcNS_11char_traitsIcEEEEN3xpf5ColorEEELi0EEEvPT_, symObjAddr: 0x7C40, symBinAddr: 0x1000245C4, symSize: 0x24 }
  - { offsetInCU: 0x6811, offset: 0x6F20C, size: 0x8, addend: 0x0, symName: __ZNSt3__112__destroy_atB8ue170006INS_4pairIKNS_17basic_string_viewIcNS_11char_traitsIcEEEEN3xpf5ColorEEELi0EEEvPT_, symObjAddr: 0x7C64, symBinAddr: 0x1000245E8, symSize: 0x10 }
  - { offsetInCU: 0x6849, offset: 0x6F244, size: 0x8, addend: 0x0, symName: __ZNSt3__1eqB8ue170006ERKNS_21__hash_const_iteratorIPNS_11__hash_nodeINS_17__hash_value_typeINS_17basic_string_viewIcNS_11char_traitsIcEEEEN3xpf5ColorEEEPvEEEESF_, symObjAddr: 0x8288, symBinAddr: 0x100024C0C, symSize: 0x30 }
  - { offsetInCU: 0x6AF3, offset: 0x6F4EE, size: 0x8, addend: 0x0, symName: __ZN3xpf5Color13try_get_colorENSt3__117basic_string_viewIcNS1_11char_traitsIcEEEERS0_, symObjAddr: 0x32C, symBinAddr: 0x10001F08C, symSize: 0x16FC }
  - { offsetInCU: 0x6B15, offset: 0x6F510, size: 0x8, addend: 0x0, symName: __ZZN3xpf5Color13try_get_colorENSt3__117basic_string_viewIcNS1_11char_traitsIcEEEERS0_E8s_colors, symObjAddr: 0x63218, symBinAddr: 0x1001743F0, symSize: 0x0 }
  - { offsetInCU: 0x903C, offset: 0x71A37, size: 0x8, addend: 0x0, symName: __ZN3xpf5ColorC1Ej, symObjAddr: 0x1E8, symBinAddr: 0x10001EFD0, symSize: 0x5C }
  - { offsetInCU: 0x9073, offset: 0x71A6E, size: 0x8, addend: 0x0, symName: __ZN3xpf5Color8to_colorENSt3__117basic_string_viewIcNS1_11char_traitsIcEEEE, symObjAddr: 0x290, symBinAddr: 0x10001F02C, symSize: 0x60 }
  - { offsetInCU: 0x90A7, offset: 0x71AA2, size: 0x8, addend: 0x0, symName: __ZNKSt3__117basic_string_viewIcNS_11char_traitsIcEEE5emptyB8ue170006Ev, symObjAddr: 0x1A28, symBinAddr: 0x100020788, symSize: 0x24 }
  - { offsetInCU: 0x90CD, offset: 0x71AC8, size: 0x8, addend: 0x0, symName: __ZNKSt3__117basic_string_viewIcNS_11char_traitsIcEEEixB8ue170006Em, symObjAddr: 0x1A4C, symBinAddr: 0x1000207AC, symSize: 0x24 }
  - { offsetInCU: 0x9103, offset: 0x71AFE, size: 0x8, addend: 0x0, symName: __ZNKSt3__117basic_string_viewIcNS_11char_traitsIcEEE6lengthB8ue170006Ev, symObjAddr: 0x1A70, symBinAddr: 0x1000207D0, symSize: 0x18 }
  - { offsetInCU: 0x9142, offset: 0x71B3D, size: 0x8, addend: 0x0, symName: __ZNSt3__14pairIKNS_17basic_string_viewIcNS_11char_traitsIcEEEEN3xpf5ColorEEC1B8ue170006IRA10_KcRS7_LPv0EEEOT_OT0_, symObjAddr: 0x1BE8, symBinAddr: 0x100020948, symSize: 0x3C }
  - { offsetInCU: 0x91B9, offset: 0x71BB4, size: 0x8, addend: 0x0, symName: __ZNSt3__14pairIKNS_17basic_string_viewIcNS_11char_traitsIcEEEEN3xpf5ColorEEC1B8ue170006IRA13_KcRS7_LPv0EEEOT_OT0_, symObjAddr: 0x1C24, symBinAddr: 0x100020984, symSize: 0x3C }
  - { offsetInCU: 0x9230, offset: 0x71C2B, size: 0x8, addend: 0x0, symName: __ZNSt3__14pairIKNS_17basic_string_viewIcNS_11char_traitsIcEEEEN3xpf5ColorEEC1B8ue170006IRA5_KcRS7_LPv0EEEOT_OT0_, symObjAddr: 0x1C60, symBinAddr: 0x1000209C0, symSize: 0x3C }
  - { offsetInCU: 0x92A7, offset: 0x71CA2, size: 0x8, addend: 0x0, symName: __ZNSt3__14pairIKNS_17basic_string_viewIcNS_11char_traitsIcEEEEN3xpf5ColorEEC1B8ue170006IRA11_KcRS7_LPv0EEEOT_OT0_, symObjAddr: 0x1C9C, symBinAddr: 0x1000209FC, symSize: 0x3C }
  - { offsetInCU: 0x931E, offset: 0x71D19, size: 0x8, addend: 0x0, symName: __ZNSt3__14pairIKNS_17basic_string_viewIcNS_11char_traitsIcEEEEN3xpf5ColorEEC1B8ue170006IRA6_KcRS7_LPv0EEEOT_OT0_, symObjAddr: 0x1CD8, symBinAddr: 0x100020A38, symSize: 0x3C }
  - { offsetInCU: 0x9395, offset: 0x71D90, size: 0x8, addend: 0x0, symName: __ZNSt3__14pairIKNS_17basic_string_viewIcNS_11char_traitsIcEEEEN3xpf5ColorEEC1B8ue170006IRA7_KcRS7_LPv0EEEOT_OT0_, symObjAddr: 0x1D14, symBinAddr: 0x100020A74, symSize: 0x3C }
  - { offsetInCU: 0x940C, offset: 0x71E07, size: 0x8, addend: 0x0, symName: __ZNSt3__14pairIKNS_17basic_string_viewIcNS_11char_traitsIcEEEEN3xpf5ColorEEC1B8ue170006IRA15_KcRS7_LPv0EEEOT_OT0_, symObjAddr: 0x1D50, symBinAddr: 0x100020AB0, symSize: 0x3C }
  - { offsetInCU: 0x9483, offset: 0x71E7E, size: 0x8, addend: 0x0, symName: __ZNSt3__14pairIKNS_17basic_string_viewIcNS_11char_traitsIcEEEEN3xpf5ColorEEC1B8ue170006IRA9_KcRS7_LPv0EEEOT_OT0_, symObjAddr: 0x1D8C, symBinAddr: 0x100020AEC, symSize: 0x3C }
  - { offsetInCU: 0x94FA, offset: 0x71EF5, size: 0x8, addend: 0x0, symName: __ZNSt3__14pairIKNS_17basic_string_viewIcNS_11char_traitsIcEEEEN3xpf5ColorEEC1B8ue170006IRA8_KcRS7_LPv0EEEOT_OT0_, symObjAddr: 0x1DC8, symBinAddr: 0x100020B28, symSize: 0x3C }
  - { offsetInCU: 0x9571, offset: 0x71F6C, size: 0x8, addend: 0x0, symName: __ZNSt3__14pairIKNS_17basic_string_viewIcNS_11char_traitsIcEEEEN3xpf5ColorEEC1B8ue170006IRA14_KcRS7_LPv0EEEOT_OT0_, symObjAddr: 0x1E04, symBinAddr: 0x100020B64, symSize: 0x3C }
  - { offsetInCU: 0x95E8, offset: 0x71FE3, size: 0x8, addend: 0x0, symName: __ZNSt3__14pairIKNS_17basic_string_viewIcNS_11char_traitsIcEEEEN3xpf5ColorEEC1B8ue170006IRA12_KcRS7_LPv0EEEOT_OT0_, symObjAddr: 0x1E40, symBinAddr: 0x100020BA0, symSize: 0x3C }
  - { offsetInCU: 0x965F, offset: 0x7205A, size: 0x8, addend: 0x0, symName: __ZNSt3__14pairIKNS_17basic_string_viewIcNS_11char_traitsIcEEEEN3xpf5ColorEEC1B8ue170006IRA21_KcRS7_LPv0EEEOT_OT0_, symObjAddr: 0x1E7C, symBinAddr: 0x100020BDC, symSize: 0x3C }
  - { offsetInCU: 0x96D6, offset: 0x720D1, size: 0x8, addend: 0x0, symName: __ZNSt3__14pairIKNS_17basic_string_viewIcNS_11char_traitsIcEEEEN3xpf5ColorEEC1B8ue170006IRA17_KcRS7_LPv0EEEOT_OT0_, symObjAddr: 0x1EB8, symBinAddr: 0x100020C18, symSize: 0x3C }
  - { offsetInCU: 0x974D, offset: 0x72148, size: 0x8, addend: 0x0, symName: __ZNSt3__14pairIKNS_17basic_string_viewIcNS_11char_traitsIcEEEEN3xpf5ColorEEC1B8ue170006IRA16_KcRS7_LPv0EEEOT_OT0_, symObjAddr: 0x1EF4, symBinAddr: 0x100020C54, symSize: 0x3C }
  - { offsetInCU: 0x97C4, offset: 0x721BF, size: 0x8, addend: 0x0, symName: __ZNSt3__14pairIKNS_17basic_string_viewIcNS_11char_traitsIcEEEEN3xpf5ColorEEC1B8ue170006IRA18_KcRS7_LPv0EEEOT_OT0_, symObjAddr: 0x1F30, symBinAddr: 0x100020C90, symSize: 0x3C }
  - { offsetInCU: 0x983B, offset: 0x72236, size: 0x8, addend: 0x0, symName: __ZNSt3__14pairIKNS_17basic_string_viewIcNS_11char_traitsIcEEEEN3xpf5ColorEEC1B8ue170006IRA4_KcRS7_LPv0EEEOT_OT0_, symObjAddr: 0x1F6C, symBinAddr: 0x100020CCC, symSize: 0x3C }
  - { offsetInCU: 0x9899, offset: 0x72294, size: 0x8, addend: 0x0, symName: __ZNSt3__113unordered_mapINS_17basic_string_viewIcNS_11char_traitsIcEEEEN3xpf5ColorENS_4hashIS4_EENS_8equal_toIS4_EENS_9allocatorINS_4pairIKS4_S6_EEEEEC1ESt16initializer_listISE_E, symObjAddr: 0x1FA8, symBinAddr: 0x100020D08, symSize: 0x3C }
  - { offsetInCU: 0x98D5, offset: 0x722D0, size: 0x8, addend: 0x0, symName: __ZNSt3__113unordered_mapINS_17basic_string_viewIcNS_11char_traitsIcEEEEN3xpf5ColorENS_4hashIS4_EENS_8equal_toIS4_EENS_9allocatorINS_4pairIKS4_S6_EEEEED1B8ue170006Ev, symObjAddr: 0x1FE4, symBinAddr: 0x100020D44, symSize: 0x2C }
  - { offsetInCU: 0x98FF, offset: 0x722FA, size: 0x8, addend: 0x0, symName: __ZNSt3__113unordered_mapINS_17basic_string_viewIcNS_11char_traitsIcEEEEN3xpf5ColorENS_4hashIS4_EENS_8equal_toIS4_EENS_9allocatorINS_4pairIKS4_S6_EEEEE4findB8ue170006ERSD_, symObjAddr: 0x2010, symBinAddr: 0x100020D70, symSize: 0x40 }
  - { offsetInCU: 0x9935, offset: 0x72330, size: 0x8, addend: 0x0, symName: __ZNSt3__125__hash_map_const_iteratorINS_21__hash_const_iteratorIPNS_11__hash_nodeINS_17__hash_value_typeINS_17basic_string_viewIcNS_11char_traitsIcEEEEN3xpf5ColorEEEPvEEEEEC1B8ue170006ENS_19__hash_map_iteratorINS_15__hash_iteratorISD_EEEE, symObjAddr: 0x2080, symBinAddr: 0x100020DE0, symSize: 0x34 }
  - { offsetInCU: 0x996F, offset: 0x7236A, size: 0x8, addend: 0x0, symName: __ZNKSt3__113unordered_mapINS_17basic_string_viewIcNS_11char_traitsIcEEEEN3xpf5ColorENS_4hashIS4_EENS_8equal_toIS4_EENS_9allocatorINS_4pairIKS4_S6_EEEEE4cendB8ue170006Ev, symObjAddr: 0x20B4, symBinAddr: 0x100020E14, symSize: 0x38 }
  - { offsetInCU: 0x9995, offset: 0x72390, size: 0x8, addend: 0x0, symName: __ZNKSt3__119__hash_map_iteratorINS_15__hash_iteratorIPNS_11__hash_nodeINS_17__hash_value_typeINS_17basic_string_viewIcNS_11char_traitsIcEEEEN3xpf5ColorEEEPvEEEEEptB8ue170006Ev, symObjAddr: 0x20EC, symBinAddr: 0x100020E4C, symSize: 0x2C }
  - { offsetInCU: 0x99E3, offset: 0x723DE, size: 0x8, addend: 0x0, symName: __ZNSt3__14pairIKNS_17basic_string_viewIcNS_11char_traitsIcEEEEN3xpf5ColorEEC2B8ue170006IRA10_KcRS7_LPv0EEEOT_OT0_, symObjAddr: 0x418C, symBinAddr: 0x100020E78, symSize: 0x44 }
  - { offsetInCU: 0x9A41, offset: 0x7243C, size: 0x8, addend: 0x0, symName: __ZNSt3__14pairIKNS_17basic_string_viewIcNS_11char_traitsIcEEEEN3xpf5ColorEEC2B8ue170006IRA13_KcRS7_LPv0EEEOT_OT0_, symObjAddr: 0x42C4, symBinAddr: 0x100020EBC, symSize: 0x44 }
  - { offsetInCU: 0x9A9F, offset: 0x7249A, size: 0x8, addend: 0x0, symName: __ZNSt3__14pairIKNS_17basic_string_viewIcNS_11char_traitsIcEEEEN3xpf5ColorEEC2B8ue170006IRA5_KcRS7_LPv0EEEOT_OT0_, symObjAddr: 0x4308, symBinAddr: 0x100020F00, symSize: 0x44 }
  - { offsetInCU: 0x9AFD, offset: 0x724F8, size: 0x8, addend: 0x0, symName: __ZNSt3__14pairIKNS_17basic_string_viewIcNS_11char_traitsIcEEEEN3xpf5ColorEEC2B8ue170006IRA11_KcRS7_LPv0EEEOT_OT0_, symObjAddr: 0x434C, symBinAddr: 0x100020F44, symSize: 0x44 }
  - { offsetInCU: 0x9B5B, offset: 0x72556, size: 0x8, addend: 0x0, symName: __ZNSt3__14pairIKNS_17basic_string_viewIcNS_11char_traitsIcEEEEN3xpf5ColorEEC2B8ue170006IRA6_KcRS7_LPv0EEEOT_OT0_, symObjAddr: 0x4390, symBinAddr: 0x100020F88, symSize: 0x44 }
  - { offsetInCU: 0x9BB9, offset: 0x725B4, size: 0x8, addend: 0x0, symName: __ZNSt3__14pairIKNS_17basic_string_viewIcNS_11char_traitsIcEEEEN3xpf5ColorEEC2B8ue170006IRA7_KcRS7_LPv0EEEOT_OT0_, symObjAddr: 0x43D4, symBinAddr: 0x100020FCC, symSize: 0x44 }
  - { offsetInCU: 0x9C17, offset: 0x72612, size: 0x8, addend: 0x0, symName: __ZNSt3__14pairIKNS_17basic_string_viewIcNS_11char_traitsIcEEEEN3xpf5ColorEEC2B8ue170006IRA15_KcRS7_LPv0EEEOT_OT0_, symObjAddr: 0x4418, symBinAddr: 0x100021010, symSize: 0x44 }
  - { offsetInCU: 0x9C75, offset: 0x72670, size: 0x8, addend: 0x0, symName: __ZNSt3__14pairIKNS_17basic_string_viewIcNS_11char_traitsIcEEEEN3xpf5ColorEEC2B8ue170006IRA9_KcRS7_LPv0EEEOT_OT0_, symObjAddr: 0x445C, symBinAddr: 0x100021054, symSize: 0x44 }
  - { offsetInCU: 0x9CD3, offset: 0x726CE, size: 0x8, addend: 0x0, symName: __ZNSt3__14pairIKNS_17basic_string_viewIcNS_11char_traitsIcEEEEN3xpf5ColorEEC2B8ue170006IRA8_KcRS7_LPv0EEEOT_OT0_, symObjAddr: 0x44A0, symBinAddr: 0x100021098, symSize: 0x44 }
  - { offsetInCU: 0x9D31, offset: 0x7272C, size: 0x8, addend: 0x0, symName: __ZNSt3__14pairIKNS_17basic_string_viewIcNS_11char_traitsIcEEEEN3xpf5ColorEEC2B8ue170006IRA14_KcRS7_LPv0EEEOT_OT0_, symObjAddr: 0x44E4, symBinAddr: 0x1000210DC, symSize: 0x44 }
  - { offsetInCU: 0x9D8F, offset: 0x7278A, size: 0x8, addend: 0x0, symName: __ZNSt3__14pairIKNS_17basic_string_viewIcNS_11char_traitsIcEEEEN3xpf5ColorEEC2B8ue170006IRA12_KcRS7_LPv0EEEOT_OT0_, symObjAddr: 0x4528, symBinAddr: 0x100021120, symSize: 0x44 }
  - { offsetInCU: 0x9DED, offset: 0x727E8, size: 0x8, addend: 0x0, symName: __ZNSt3__14pairIKNS_17basic_string_viewIcNS_11char_traitsIcEEEEN3xpf5ColorEEC2B8ue170006IRA21_KcRS7_LPv0EEEOT_OT0_, symObjAddr: 0x456C, symBinAddr: 0x100021164, symSize: 0x44 }
  - { offsetInCU: 0x9E4B, offset: 0x72846, size: 0x8, addend: 0x0, symName: __ZNSt3__14pairIKNS_17basic_string_viewIcNS_11char_traitsIcEEEEN3xpf5ColorEEC2B8ue170006IRA17_KcRS7_LPv0EEEOT_OT0_, symObjAddr: 0x45B0, symBinAddr: 0x1000211A8, symSize: 0x44 }
  - { offsetInCU: 0x9EA9, offset: 0x728A4, size: 0x8, addend: 0x0, symName: __ZNSt3__14pairIKNS_17basic_string_viewIcNS_11char_traitsIcEEEEN3xpf5ColorEEC2B8ue170006IRA16_KcRS7_LPv0EEEOT_OT0_, symObjAddr: 0x45F4, symBinAddr: 0x1000211EC, symSize: 0x44 }
  - { offsetInCU: 0x9F07, offset: 0x72902, size: 0x8, addend: 0x0, symName: __ZNSt3__14pairIKNS_17basic_string_viewIcNS_11char_traitsIcEEEEN3xpf5ColorEEC2B8ue170006IRA18_KcRS7_LPv0EEEOT_OT0_, symObjAddr: 0x4638, symBinAddr: 0x100021230, symSize: 0x44 }
  - { offsetInCU: 0x9F65, offset: 0x72960, size: 0x8, addend: 0x0, symName: __ZNSt3__14pairIKNS_17basic_string_viewIcNS_11char_traitsIcEEEEN3xpf5ColorEEC2B8ue170006IRA4_KcRS7_LPv0EEEOT_OT0_, symObjAddr: 0x467C, symBinAddr: 0x100021274, symSize: 0x44 }
  - { offsetInCU: 0x9FC3, offset: 0x729BE, size: 0x8, addend: 0x0, symName: __ZNSt3__113unordered_mapINS_17basic_string_viewIcNS_11char_traitsIcEEEEN3xpf5ColorENS_4hashIS4_EENS_8equal_toIS4_EENS_9allocatorINS_4pairIKS4_S6_EEEEEC2ESt16initializer_listISE_E, symObjAddr: 0x48A8, symBinAddr: 0x1000212B8, symSize: 0x8C }
  - { offsetInCU: 0x9FFF, offset: 0x729FA, size: 0x8, addend: 0x0, symName: __ZNSt3__112__hash_tableINS_17__hash_value_typeINS_17basic_string_viewIcNS_11char_traitsIcEEEEN3xpf5ColorEEENS_22__unordered_map_hasherIS5_S8_NS_4hashIS5_EENS_8equal_toIS5_EELb1EEENS_21__unordered_map_equalIS5_S8_SD_SB_Lb1EEENS_9allocatorIS8_EEEC1Ev, symObjAddr: 0x4934, symBinAddr: 0x100021344, symSize: 0x2C }
  - { offsetInCU: 0xA02B, offset: 0x72A26, size: 0x8, addend: 0x0, symName: __ZNSt3__113unordered_mapINS_17basic_string_viewIcNS_11char_traitsIcEEEEN3xpf5ColorENS_4hashIS4_EENS_8equal_toIS4_EENS_9allocatorINS_4pairIKS4_S6_EEEEE6insertIPKSE_EEvT_SK_, symObjAddr: 0x4960, symBinAddr: 0x100021370, symSize: 0x70 }
  - { offsetInCU: 0xA07C, offset: 0x72A77, size: 0x8, addend: 0x0, symName: __ZNKSt16initializer_listINSt3__14pairIKNS0_17basic_string_viewIcNS0_11char_traitsIcEEEEN3xpf5ColorEEEE5beginB8ue170006Ev, symObjAddr: 0x49D0, symBinAddr: 0x1000213E0, symSize: 0x18 }
  - { offsetInCU: 0xA0A2, offset: 0x72A9D, size: 0x8, addend: 0x0, symName: __ZNKSt16initializer_listINSt3__14pairIKNS0_17basic_string_viewIcNS0_11char_traitsIcEEEEN3xpf5ColorEEEE3endB8ue170006Ev, symObjAddr: 0x49E8, symBinAddr: 0x1000213F8, symSize: 0x28 }
  - { offsetInCU: 0xA0C8, offset: 0x72AC3, size: 0x8, addend: 0x0, symName: __ZNSt3__112__hash_tableINS_17__hash_value_typeINS_17basic_string_viewIcNS_11char_traitsIcEEEEN3xpf5ColorEEENS_22__unordered_map_hasherIS5_S8_NS_4hashIS5_EENS_8equal_toIS5_EELb1EEENS_21__unordered_map_equalIS5_S8_SD_SB_Lb1EEENS_9allocatorIS8_EEED1Ev, symObjAddr: 0x4A10, symBinAddr: 0x100021420, symSize: 0x2C }
  - { offsetInCU: 0xA0F4, offset: 0x72AEF, size: 0x8, addend: 0x0, symName: __ZNSt3__112__hash_tableINS_17__hash_value_typeINS_17basic_string_viewIcNS_11char_traitsIcEEEEN3xpf5ColorEEENS_22__unordered_map_hasherIS5_S8_NS_4hashIS5_EENS_8equal_toIS5_EELb1EEENS_21__unordered_map_equalIS5_S8_SD_SB_Lb1EEENS_9allocatorIS8_EEEC2Ev, symObjAddr: 0x4A3C, symBinAddr: 0x10002144C, symSize: 0x7C }
  - { offsetInCU: 0xA120, offset: 0x72B1B, size: 0x8, addend: 0x0, symName: __ZNSt3__110unique_ptrIA_PNS_16__hash_node_baseIPNS_11__hash_nodeINS_17__hash_value_typeINS_17basic_string_viewIcNS_11char_traitsIcEEEEN3xpf5ColorEEEPvEEEENS_25__bucket_list_deallocatorINS_9allocatorISF_EEEEEC1B8ue170006ILb1EvEEv, symObjAddr: 0x4AB8, symBinAddr: 0x1000214C8, symSize: 0x2C }
  - { offsetInCU: 0xA155, offset: 0x72B50, size: 0x8, addend: 0x0, symName: __ZNSt3__117__compressed_pairINS_16__hash_node_baseIPNS_11__hash_nodeINS_17__hash_value_typeINS_17basic_string_viewIcNS_11char_traitsIcEEEEN3xpf5ColorEEEPvEEEENS_9allocatorISC_EEEC1B8ue170006ILb1EvEEv, symObjAddr: 0x4AE4, symBinAddr: 0x1000214F4, symSize: 0x2C }
  - { offsetInCU: 0xA190, offset: 0x72B8B, size: 0x8, addend: 0x0, symName: __ZNSt3__117__compressed_pairImNS_22__unordered_map_hasherINS_17basic_string_viewIcNS_11char_traitsIcEEEENS_17__hash_value_typeIS5_N3xpf5ColorEEENS_4hashIS5_EENS_8equal_toIS5_EELb1EEEEC1B8ue170006IiNS_18__default_init_tagEEEOT_OT0_, symObjAddr: 0x4B10, symBinAddr: 0x100021520, symSize: 0x3C }
  - { offsetInCU: 0xA1EE, offset: 0x72BE9, size: 0x8, addend: 0x0, symName: __ZNSt3__117__compressed_pairIfNS_21__unordered_map_equalINS_17basic_string_viewIcNS_11char_traitsIcEEEENS_17__hash_value_typeIS5_N3xpf5ColorEEENS_8equal_toIS5_EENS_4hashIS5_EELb1EEEEC1B8ue170006IfNS_18__default_init_tagEEEOT_OT0_, symObjAddr: 0x4B4C, symBinAddr: 0x10002155C, symSize: 0x3C }
  - { offsetInCU: 0xA246, offset: 0x72C41, size: 0x8, addend: 0x0, symName: __ZNSt3__110unique_ptrIA_PNS_16__hash_node_baseIPNS_11__hash_nodeINS_17__hash_value_typeINS_17basic_string_viewIcNS_11char_traitsIcEEEEN3xpf5ColorEEEPvEEEENS_25__bucket_list_deallocatorINS_9allocatorISF_EEEEEC2B8ue170006ILb1EvEEv, symObjAddr: 0x4B88, symBinAddr: 0x100021598, symSize: 0x3C }
  - { offsetInCU: 0xA281, offset: 0x72C7C, size: 0x8, addend: 0x0, symName: __ZNSt3__117__compressed_pairIPPNS_16__hash_node_baseIPNS_11__hash_nodeINS_17__hash_value_typeINS_17basic_string_viewIcNS_11char_traitsIcEEEEN3xpf5ColorEEEPvEEEENS_25__bucket_list_deallocatorINS_9allocatorISF_EEEEEC1B8ue170006INS_16__value_init_tagESN_EEOT_OT0_, symObjAddr: 0x4BC4, symBinAddr: 0x1000215D4, symSize: 0x3C }
  - { offsetInCU: 0xA2D9, offset: 0x72CD4, size: 0x8, addend: 0x0, symName: __ZNSt3__117__compressed_pairIPPNS_16__hash_node_baseIPNS_11__hash_nodeINS_17__hash_value_typeINS_17basic_string_viewIcNS_11char_traitsIcEEEEN3xpf5ColorEEEPvEEEENS_25__bucket_list_deallocatorINS_9allocatorISF_EEEEEC2B8ue170006INS_16__value_init_tagESN_EEOT_OT0_, symObjAddr: 0x4C00, symBinAddr: 0x100021610, symSize: 0x40 }
  - { offsetInCU: 0xA331, offset: 0x72D2C, size: 0x8, addend: 0x0, symName: __ZNSt3__122__compressed_pair_elemIPPNS_16__hash_node_baseIPNS_11__hash_nodeINS_17__hash_value_typeINS_17basic_string_viewIcNS_11char_traitsIcEEEEN3xpf5ColorEEEPvEEEELi0ELb0EEC2B8ue170006ENS_16__value_init_tagE, symObjAddr: 0x4C40, symBinAddr: 0x100021650, symSize: 0x18 }
  - { offsetInCU: 0xA365, offset: 0x72D60, size: 0x8, addend: 0x0, symName: __ZNSt3__122__compressed_pair_elemINS_25__bucket_list_deallocatorINS_9allocatorIPNS_16__hash_node_baseIPNS_11__hash_nodeINS_17__hash_value_typeINS_17basic_string_viewIcNS_11char_traitsIcEEEEN3xpf5ColorEEEPvEEEEEEEELi1ELb0EEC2B8ue170006ENS_16__value_init_tagE, symObjAddr: 0x4C58, symBinAddr: 0x100021668, symSize: 0x2C }
  - { offsetInCU: 0xA399, offset: 0x72D94, size: 0x8, addend: 0x0, symName: __ZNSt3__125__bucket_list_deallocatorINS_9allocatorIPNS_16__hash_node_baseIPNS_11__hash_nodeINS_17__hash_value_typeINS_17basic_string_viewIcNS_11char_traitsIcEEEEN3xpf5ColorEEEPvEEEEEEEC1B8ue170006Ev, symObjAddr: 0x4C84, symBinAddr: 0x100021694, symSize: 0x2C }
  - { offsetInCU: 0xA3C3, offset: 0x72DBE, size: 0x8, addend: 0x0, symName: __ZNSt3__125__bucket_list_deallocatorINS_9allocatorIPNS_16__hash_node_baseIPNS_11__hash_nodeINS_17__hash_value_typeINS_17basic_string_viewIcNS_11char_traitsIcEEEEN3xpf5ColorEEEPvEEEEEEEC2B8ue170006Ev, symObjAddr: 0x4CB0, symBinAddr: 0x1000216C0, symSize: 0x40 }
  - { offsetInCU: 0xA3ED, offset: 0x72DE8, size: 0x8, addend: 0x0, symName: __ZNSt3__117__compressed_pairImNS_9allocatorIPNS_16__hash_node_baseIPNS_11__hash_nodeINS_17__hash_value_typeINS_17basic_string_viewIcNS_11char_traitsIcEEEEN3xpf5ColorEEEPvEEEEEEEC1B8ue170006IiNS_18__default_init_tagEEEOT_OT0_, symObjAddr: 0x4CF0, symBinAddr: 0x100021700, symSize: 0x3C }
  - { offsetInCU: 0xA445, offset: 0x72E40, size: 0x8, addend: 0x0, symName: __ZNSt3__117__compressed_pairImNS_9allocatorIPNS_16__hash_node_baseIPNS_11__hash_nodeINS_17__hash_value_typeINS_17basic_string_viewIcNS_11char_traitsIcEEEEN3xpf5ColorEEEPvEEEEEEEC2B8ue170006IiNS_18__default_init_tagEEEOT_OT0_, symObjAddr: 0x4D2C, symBinAddr: 0x10002173C, symSize: 0x40 }
  - { offsetInCU: 0xA49D, offset: 0x72E98, size: 0x8, addend: 0x0, symName: __ZNSt3__122__compressed_pair_elemINS_9allocatorIPNS_16__hash_node_baseIPNS_11__hash_nodeINS_17__hash_value_typeINS_17basic_string_viewIcNS_11char_traitsIcEEEEN3xpf5ColorEEEPvEEEEEELi1ELb1EEC2B8ue170006ENS_18__default_init_tagE, symObjAddr: 0x4D90, symBinAddr: 0x10002177C, symSize: 0x2C }
  - { offsetInCU: 0xA4D1, offset: 0x72ECC, size: 0x8, addend: 0x0, symName: __ZNSt3__19allocatorIPNS_16__hash_node_baseIPNS_11__hash_nodeINS_17__hash_value_typeINS_17basic_string_viewIcNS_11char_traitsIcEEEEN3xpf5ColorEEEPvEEEEEC2B8ue170006Ev, symObjAddr: 0x4DBC, symBinAddr: 0x1000217A8, symSize: 0x2C }
  - { offsetInCU: 0xA4FB, offset: 0x72EF6, size: 0x8, addend: 0x0, symName: __ZNSt3__116__non_trivial_ifILb1ENS_9allocatorIPNS_16__hash_node_baseIPNS_11__hash_nodeINS_17__hash_value_typeINS_17basic_string_viewIcNS_11char_traitsIcEEEEN3xpf5ColorEEEPvEEEEEEEC2B8ue170006Ev, symObjAddr: 0x4DE8, symBinAddr: 0x1000217D4, symSize: 0x14 }
  - { offsetInCU: 0xA525, offset: 0x72F20, size: 0x8, addend: 0x0, symName: __ZNSt3__117__compressed_pairINS_16__hash_node_baseIPNS_11__hash_nodeINS_17__hash_value_typeINS_17basic_string_viewIcNS_11char_traitsIcEEEEN3xpf5ColorEEEPvEEEENS_9allocatorISC_EEEC2B8ue170006ILb1EvEEv, symObjAddr: 0x4DFC, symBinAddr: 0x1000217E8, symSize: 0x34 }
  - { offsetInCU: 0xA55A, offset: 0x72F55, size: 0x8, addend: 0x0, symName: __ZNSt3__122__compressed_pair_elemINS_16__hash_node_baseIPNS_11__hash_nodeINS_17__hash_value_typeINS_17basic_string_viewIcNS_11char_traitsIcEEEEN3xpf5ColorEEEPvEEEELi0ELb0EEC2B8ue170006ENS_16__value_init_tagE, symObjAddr: 0x4E30, symBinAddr: 0x10002181C, symSize: 0x2C }
  - { offsetInCU: 0xA58E, offset: 0x72F89, size: 0x8, addend: 0x0, symName: __ZNSt3__122__compressed_pair_elemINS_9allocatorINS_11__hash_nodeINS_17__hash_value_typeINS_17basic_string_viewIcNS_11char_traitsIcEEEEN3xpf5ColorEEEPvEEEELi1ELb1EEC2B8ue170006ENS_16__value_init_tagE, symObjAddr: 0x4E5C, symBinAddr: 0x100021848, symSize: 0x2C }
  - { offsetInCU: 0xA5C2, offset: 0x72FBD, size: 0x8, addend: 0x0, symName: __ZNSt3__116__hash_node_baseIPNS_11__hash_nodeINS_17__hash_value_typeINS_17basic_string_viewIcNS_11char_traitsIcEEEEN3xpf5ColorEEEPvEEEC1B8ue170006Ev, symObjAddr: 0x4E88, symBinAddr: 0x100021874, symSize: 0x2C }
  - { offsetInCU: 0xA5EC, offset: 0x72FE7, size: 0x8, addend: 0x0, symName: __ZNSt3__116__hash_node_baseIPNS_11__hash_nodeINS_17__hash_value_typeINS_17basic_string_viewIcNS_11char_traitsIcEEEEN3xpf5ColorEEEPvEEEC2B8ue170006Ev, symObjAddr: 0x4EB4, symBinAddr: 0x1000218A0, symSize: 0x18 }
  - { offsetInCU: 0xA616, offset: 0x73011, size: 0x8, addend: 0x0, symName: __ZNSt3__19allocatorINS_11__hash_nodeINS_17__hash_value_typeINS_17basic_string_viewIcNS_11char_traitsIcEEEEN3xpf5ColorEEEPvEEEC2B8ue170006Ev, symObjAddr: 0x4ECC, symBinAddr: 0x1000218B8, symSize: 0x2C }
  - { offsetInCU: 0xA640, offset: 0x7303B, size: 0x8, addend: 0x0, symName: __ZNSt3__116__non_trivial_ifILb1ENS_9allocatorINS_11__hash_nodeINS_17__hash_value_typeINS_17basic_string_viewIcNS_11char_traitsIcEEEEN3xpf5ColorEEEPvEEEEEC2B8ue170006Ev, symObjAddr: 0x4EF8, symBinAddr: 0x1000218E4, symSize: 0x14 }
  - { offsetInCU: 0xA66A, offset: 0x73065, size: 0x8, addend: 0x0, symName: __ZNSt3__117__compressed_pairImNS_22__unordered_map_hasherINS_17basic_string_viewIcNS_11char_traitsIcEEEENS_17__hash_value_typeIS5_N3xpf5ColorEEENS_4hashIS5_EENS_8equal_toIS5_EELb1EEEEC2B8ue170006IiNS_18__default_init_tagEEEOT_OT0_, symObjAddr: 0x4F0C, symBinAddr: 0x1000218F8, symSize: 0x40 }
  - { offsetInCU: 0xA6C2, offset: 0x730BD, size: 0x8, addend: 0x0, symName: __ZNSt3__122__compressed_pair_elemINS_22__unordered_map_hasherINS_17basic_string_viewIcNS_11char_traitsIcEEEENS_17__hash_value_typeIS5_N3xpf5ColorEEENS_4hashIS5_EENS_8equal_toIS5_EELb1EEELi1ELb1EEC2B8ue170006ENS_18__default_init_tagE, symObjAddr: 0x4F4C, symBinAddr: 0x100021938, symSize: 0x2C }
  - { offsetInCU: 0xA6F6, offset: 0x730F1, size: 0x8, addend: 0x0, symName: __ZNSt3__122__unordered_map_hasherINS_17basic_string_viewIcNS_11char_traitsIcEEEENS_17__hash_value_typeIS4_N3xpf5ColorEEENS_4hashIS4_EENS_8equal_toIS4_EELb1EEC2B8ue170006Ev, symObjAddr: 0x4F78, symBinAddr: 0x100021964, symSize: 0x14 }
  - { offsetInCU: 0xA720, offset: 0x7311B, size: 0x8, addend: 0x0, symName: __ZNSt3__117__compressed_pairIfNS_21__unordered_map_equalINS_17basic_string_viewIcNS_11char_traitsIcEEEENS_17__hash_value_typeIS5_N3xpf5ColorEEENS_8equal_toIS5_EENS_4hashIS5_EELb1EEEEC2B8ue170006IfNS_18__default_init_tagEEEOT_OT0_, symObjAddr: 0x4F8C, symBinAddr: 0x100021978, symSize: 0x40 }
  - { offsetInCU: 0xA778, offset: 0x73173, size: 0x8, addend: 0x0, symName: __ZNSt3__122__compressed_pair_elemINS_21__unordered_map_equalINS_17basic_string_viewIcNS_11char_traitsIcEEEENS_17__hash_value_typeIS5_N3xpf5ColorEEENS_8equal_toIS5_EENS_4hashIS5_EELb1EEELi1ELb1EEC2B8ue170006ENS_18__default_init_tagE, symObjAddr: 0x4FF0, symBinAddr: 0x1000219B8, symSize: 0x2C }
  - { offsetInCU: 0xA7AC, offset: 0x731A7, size: 0x8, addend: 0x0, symName: __ZNSt3__121__unordered_map_equalINS_17basic_string_viewIcNS_11char_traitsIcEEEENS_17__hash_value_typeIS4_N3xpf5ColorEEENS_8equal_toIS4_EENS_4hashIS4_EELb1EEC2B8ue170006Ev, symObjAddr: 0x501C, symBinAddr: 0x1000219E4, symSize: 0x14 }
  - { offsetInCU: 0xA7D6, offset: 0x731D1, size: 0x8, addend: 0x0, symName: __ZNSt3__112__hash_tableINS_17__hash_value_typeINS_17basic_string_viewIcNS_11char_traitsIcEEEEN3xpf5ColorEEENS_22__unordered_map_hasherIS5_S8_NS_4hashIS5_EENS_8equal_toIS5_EELb1EEENS_21__unordered_map_equalIS5_S8_SD_SB_Lb1EEENS_9allocatorIS8_EEE15__insert_uniqueB8ue170006ERKNS_4pairIKS5_S7_EE, symObjAddr: 0x5030, symBinAddr: 0x1000219F8, symSize: 0x50 }
  - { offsetInCU: 0xA80C, offset: 0x73207, size: 0x8, addend: 0x0, symName: __ZNSt3__112__hash_tableINS_17__hash_value_typeINS_17basic_string_viewIcNS_11char_traitsIcEEEEN3xpf5ColorEEENS_22__unordered_map_hasherIS5_S8_NS_4hashIS5_EENS_8equal_toIS5_EELb1EEENS_21__unordered_map_equalIS5_S8_SD_SB_Lb1EEENS_9allocatorIS8_EEE25__emplace_unique_key_argsIS5_JRKNS_4pairIKS5_S7_EEEEENSL_INS_15__hash_iteratorIPNS_11__hash_nodeIS8_PvEEEEbEERKT_DpOT0_, symObjAddr: 0x5080, symBinAddr: 0x100021A48, symSize: 0x4D8 }
  - { offsetInCU: 0xA8F6, offset: 0x732F1, size: 0x8, addend: 0x0, symName: __ZNSt3__122__hash_key_value_typesINS_17__hash_value_typeINS_17basic_string_viewIcNS_11char_traitsIcEEEEN3xpf5ColorEEEE9__get_keyB8ue170006ERKNS_4pairIKS5_S7_EE, symObjAddr: 0x5558, symBinAddr: 0x100021F20, symSize: 0x14 }
  - { offsetInCU: 0xA919, offset: 0x73314, size: 0x8, addend: 0x0, symName: __ZNSt3__112__hash_tableINS_17__hash_value_typeINS_17basic_string_viewIcNS_11char_traitsIcEEEEN3xpf5ColorEEENS_22__unordered_map_hasherIS5_S8_NS_4hashIS5_EENS_8equal_toIS5_EELb1EEENS_21__unordered_map_equalIS5_S8_SD_SB_Lb1EEENS_9allocatorIS8_EEE13hash_functionB8ue170006Ev, symObjAddr: 0x556C, symBinAddr: 0x100021F34, symSize: 0x28 }
  - { offsetInCU: 0xA93F, offset: 0x7333A, size: 0x8, addend: 0x0, symName: __ZNKSt3__122__unordered_map_hasherINS_17basic_string_viewIcNS_11char_traitsIcEEEENS_17__hash_value_typeIS4_N3xpf5ColorEEENS_4hashIS4_EENS_8equal_toIS4_EELb1EEclB8ue170006ERKS4_, symObjAddr: 0x5594, symBinAddr: 0x100021F5C, symSize: 0x3C }
  - { offsetInCU: 0xA975, offset: 0x73370, size: 0x8, addend: 0x0, symName: __ZNKSt3__112__hash_tableINS_17__hash_value_typeINS_17basic_string_viewIcNS_11char_traitsIcEEEEN3xpf5ColorEEENS_22__unordered_map_hasherIS5_S8_NS_4hashIS5_EENS_8equal_toIS5_EELb1EEENS_21__unordered_map_equalIS5_S8_SD_SB_Lb1EEENS_9allocatorIS8_EEE12bucket_countB8ue170006Ev, symObjAddr: 0x55D0, symBinAddr: 0x100021F98, symSize: 0x28 }
  - { offsetInCU: 0xA99B, offset: 0x73396, size: 0x8, addend: 0x0, symName: __ZNKSt3__110unique_ptrIA_PNS_16__hash_node_baseIPNS_11__hash_nodeINS_17__hash_value_typeINS_17basic_string_viewIcNS_11char_traitsIcEEEEN3xpf5ColorEEEPvEEEENS_25__bucket_list_deallocatorINS_9allocatorISF_EEEEEixB8ue170006Em, symObjAddr: 0x5690, symBinAddr: 0x100022058, symSize: 0x34 }
  - { offsetInCU: 0xA9D1, offset: 0x733CC, size: 0x8, addend: 0x0, symName: __ZNKSt3__116__hash_node_baseIPNS_11__hash_nodeINS_17__hash_value_typeINS_17basic_string_viewIcNS_11char_traitsIcEEEEN3xpf5ColorEEEPvEEE6__hashB8ue170006Ev, symObjAddr: 0x56C4, symBinAddr: 0x10002208C, symSize: 0x18 }
  - { offsetInCU: 0xA9F7, offset: 0x733F2, size: 0x8, addend: 0x0, symName: __ZNSt3__112__hash_tableINS_17__hash_value_typeINS_17basic_string_viewIcNS_11char_traitsIcEEEEN3xpf5ColorEEENS_22__unordered_map_hasherIS5_S8_NS_4hashIS5_EENS_8equal_toIS5_EELb1EEENS_21__unordered_map_equalIS5_S8_SD_SB_Lb1EEENS_9allocatorIS8_EEE6key_eqB8ue170006Ev, symObjAddr: 0x56DC, symBinAddr: 0x1000220A4, symSize: 0x28 }
  - { offsetInCU: 0xAA1D, offset: 0x73418, size: 0x8, addend: 0x0, symName: __ZNKSt3__121__unordered_map_equalINS_17basic_string_viewIcNS_11char_traitsIcEEEENS_17__hash_value_typeIS4_N3xpf5ColorEEENS_8equal_toIS4_EENS_4hashIS4_EELb1EEclB8ue170006ERKS8_RKS4_, symObjAddr: 0x5704, symBinAddr: 0x1000220CC, symSize: 0x48 }
  - { offsetInCU: 0xAA63, offset: 0x7345E, size: 0x8, addend: 0x0, symName: __ZNSt3__116__hash_node_baseIPNS_11__hash_nodeINS_17__hash_value_typeINS_17basic_string_viewIcNS_11char_traitsIcEEEEN3xpf5ColorEEEPvEEE8__upcastB8ue170006Ev, symObjAddr: 0x574C, symBinAddr: 0x100022114, symSize: 0x24 }
  - { offsetInCU: 0xAA89, offset: 0x73484, size: 0x8, addend: 0x0, symName: __ZNSt3__112__hash_tableINS_17__hash_value_typeINS_17basic_string_viewIcNS_11char_traitsIcEEEEN3xpf5ColorEEENS_22__unordered_map_hasherIS5_S8_NS_4hashIS5_EENS_8equal_toIS5_EELb1EEENS_21__unordered_map_equalIS5_S8_SD_SB_Lb1EEENS_9allocatorIS8_EEE21__construct_node_hashIRKNS_4pairIKS5_S7_EEJEEENS_10unique_ptrINS_11__hash_nodeIS8_PvEENS_22__hash_node_destructorINSH_IST_EEEEEEmOT_DpOT0_, symObjAddr: 0x5770, symBinAddr: 0x100022138, symSize: 0x140 }
  - { offsetInCU: 0xAB01, offset: 0x734FC, size: 0x8, addend: 0x0, symName: __ZNSt3__112__hash_tableINS_17__hash_value_typeINS_17basic_string_viewIcNS_11char_traitsIcEEEEN3xpf5ColorEEENS_22__unordered_map_hasherIS5_S8_NS_4hashIS5_EENS_8equal_toIS5_EELb1EEENS_21__unordered_map_equalIS5_S8_SD_SB_Lb1EEENS_9allocatorIS8_EEE4sizeB8ue170006Ev, symObjAddr: 0x58B0, symBinAddr: 0x100022278, symSize: 0x28 }
  - { offsetInCU: 0xAB27, offset: 0x73522, size: 0x8, addend: 0x0, symName: __ZNSt3__112__hash_tableINS_17__hash_value_typeINS_17basic_string_viewIcNS_11char_traitsIcEEEEN3xpf5ColorEEENS_22__unordered_map_hasherIS5_S8_NS_4hashIS5_EENS_8equal_toIS5_EELb1EEENS_21__unordered_map_equalIS5_S8_SD_SB_Lb1EEENS_9allocatorIS8_EEE15max_load_factorB8ue170006Ev, symObjAddr: 0x58D8, symBinAddr: 0x1000222A0, symSize: 0x28 }
  - { offsetInCU: 0xAB4D, offset: 0x73548, size: 0x8, addend: 0x0, symName: __ZNSt3__112__hash_tableINS_17__hash_value_typeINS_17basic_string_viewIcNS_11char_traitsIcEEEEN3xpf5ColorEEENS_22__unordered_map_hasherIS5_S8_NS_4hashIS5_EENS_8equal_toIS5_EELb1EEENS_21__unordered_map_equalIS5_S8_SD_SB_Lb1EEENS_9allocatorIS8_EEE15__rehash_uniqueB8ue170006Em, symObjAddr: 0x5900, symBinAddr: 0x1000222C8, symSize: 0x2C }
  - { offsetInCU: 0xAB82, offset: 0x7357D, size: 0x8, addend: 0x0, symName: __Z4ceilB8ue170006f, symObjAddr: 0x597C, symBinAddr: 0x100022344, symSize: 0x18 }
  - { offsetInCU: 0xABB3, offset: 0x735AE, size: 0x8, addend: 0x0, symName: __ZNSt3__117__compressed_pairINS_16__hash_node_baseIPNS_11__hash_nodeINS_17__hash_value_typeINS_17basic_string_viewIcNS_11char_traitsIcEEEEN3xpf5ColorEEEPvEEEENS_9allocatorISC_EEE5firstB8ue170006Ev, symObjAddr: 0x5994, symBinAddr: 0x10002235C, symSize: 0x24 }
  - { offsetInCU: 0xABD9, offset: 0x735D4, size: 0x8, addend: 0x0, symName: __ZNSt3__116__hash_node_baseIPNS_11__hash_nodeINS_17__hash_value_typeINS_17basic_string_viewIcNS_11char_traitsIcEEEEN3xpf5ColorEEEPvEEE5__ptrB8ue170006Ev, symObjAddr: 0x59B8, symBinAddr: 0x100022380, symSize: 0x24 }
  - { offsetInCU: 0xABFF, offset: 0x735FA, size: 0x8, addend: 0x0, symName: __ZNKSt3__110unique_ptrINS_11__hash_nodeINS_17__hash_value_typeINS_17basic_string_viewIcNS_11char_traitsIcEEEEN3xpf5ColorEEEPvEENS_22__hash_node_destructorINS_9allocatorISB_EEEEEptB8ue170006Ev, symObjAddr: 0x59DC, symBinAddr: 0x1000223A4, symSize: 0x28 }
  - { offsetInCU: 0xAC25, offset: 0x73620, size: 0x8, addend: 0x0, symName: __ZNKSt3__110unique_ptrINS_11__hash_nodeINS_17__hash_value_typeINS_17basic_string_viewIcNS_11char_traitsIcEEEEN3xpf5ColorEEEPvEENS_22__hash_node_destructorINS_9allocatorISB_EEEEE3getB8ue170006Ev, symObjAddr: 0x5A04, symBinAddr: 0x1000223CC, symSize: 0x28 }
  - { offsetInCU: 0xAC4B, offset: 0x73646, size: 0x8, addend: 0x0, symName: __ZNSt3__110unique_ptrINS_11__hash_nodeINS_17__hash_value_typeINS_17basic_string_viewIcNS_11char_traitsIcEEEEN3xpf5ColorEEEPvEENS_22__hash_node_destructorINS_9allocatorISB_EEEEE7releaseB8ue170006Ev, symObjAddr: 0x5A2C, symBinAddr: 0x1000223F4, symSize: 0x44 }
  - { offsetInCU: 0xAC81, offset: 0x7367C, size: 0x8, addend: 0x0, symName: __ZNSt3__110unique_ptrINS_11__hash_nodeINS_17__hash_value_typeINS_17basic_string_viewIcNS_11char_traitsIcEEEEN3xpf5ColorEEEPvEENS_22__hash_node_destructorINS_9allocatorISB_EEEEED1B8ue170006Ev, symObjAddr: 0x5A70, symBinAddr: 0x100022438, symSize: 0x2C }
  - { offsetInCU: 0xACAB, offset: 0x736A6, size: 0x8, addend: 0x0, symName: __ZNSt3__115__hash_iteratorIPNS_11__hash_nodeINS_17__hash_value_typeINS_17basic_string_viewIcNS_11char_traitsIcEEEEN3xpf5ColorEEEPvEEEC1B8ue170006EPNS_16__hash_node_baseISC_EE, symObjAddr: 0x5A9C, symBinAddr: 0x100022464, symSize: 0x34 }
  - { offsetInCU: 0xACF1, offset: 0x736EC, size: 0x8, addend: 0x0, symName: __ZNSt3__14pairINS_15__hash_iteratorIPNS_11__hash_nodeINS_17__hash_value_typeINS_17basic_string_viewIcNS_11char_traitsIcEEEEN3xpf5ColorEEEPvEEEEbEC1B8ue170006ISE_RbLSB_0EEEOT_OT0_, symObjAddr: 0x5AD0, symBinAddr: 0x100022498, symSize: 0x3C }
  - { offsetInCU: 0xAD4F, offset: 0x7374A, size: 0x8, addend: 0x0, symName: __ZNSt3__117__compressed_pairImNS_22__unordered_map_hasherINS_17basic_string_viewIcNS_11char_traitsIcEEEENS_17__hash_value_typeIS5_N3xpf5ColorEEENS_4hashIS5_EENS_8equal_toIS5_EELb1EEEE6secondB8ue170006Ev, symObjAddr: 0x5B0C, symBinAddr: 0x1000224D4, symSize: 0x24 }
  - { offsetInCU: 0xAD75, offset: 0x73770, size: 0x8, addend: 0x0, symName: __ZNSt3__122__compressed_pair_elemINS_22__unordered_map_hasherINS_17basic_string_viewIcNS_11char_traitsIcEEEENS_17__hash_value_typeIS5_N3xpf5ColorEEENS_4hashIS5_EENS_8equal_toIS5_EELb1EEELi1ELb1EE5__getB8ue170006Ev, symObjAddr: 0x5B30, symBinAddr: 0x1000224F8, symSize: 0x14 }
  - { offsetInCU: 0xAD9B, offset: 0x73796, size: 0x8, addend: 0x0, symName: __ZNKSt3__118__string_view_hashIcEclB8ue170006ENS_17basic_string_viewIcNS_11char_traitsIcEEEE, symObjAddr: 0x5B44, symBinAddr: 0x10002250C, symSize: 0x78 }
  - { offsetInCU: 0xADD1, offset: 0x737CC, size: 0x8, addend: 0x0, symName: __ZNKSt3__121__murmur2_or_cityhashImLm64EEclB8ue170006EPKvm, symObjAddr: 0x5C28, symBinAddr: 0x1000225C0, symSize: 0x410 }
  - { offsetInCU: 0xAE6B, offset: 0x73866, size: 0x8, addend: 0x0, symName: __ZNSt3__121__murmur2_or_cityhashImLm64EE18__hash_len_0_to_16B8ue170006EPKcm, symObjAddr: 0x6038, symBinAddr: 0x1000229D0, symSize: 0x1C0 }
  - { offsetInCU: 0xAF44, offset: 0x7393F, size: 0x8, addend: 0x0, symName: __ZNSt3__121__murmur2_or_cityhashImLm64EE19__hash_len_17_to_32B8ue170006EPKcm, symObjAddr: 0x61F8, symBinAddr: 0x100022B90, symSize: 0x130 }
  - { offsetInCU: 0xAFAD, offset: 0x739A8, size: 0x8, addend: 0x0, symName: __ZNSt3__121__murmur2_or_cityhashImLm64EE19__hash_len_33_to_64B8ue170006EPKcm, symObjAddr: 0x6328, symBinAddr: 0x100022CC0, symSize: 0x2B8 }
  - { offsetInCU: 0xB065, offset: 0x73A60, size: 0x8, addend: 0x0, symName: __ZNSt3__121__murmur2_or_cityhashImLm64EE13__hash_len_16B8ue170006Emm, symObjAddr: 0x6600, symBinAddr: 0x100022F98, symSize: 0x80 }
  - { offsetInCU: 0xB0C0, offset: 0x73ABB, size: 0x8, addend: 0x0, symName: __ZNSt3__121__murmur2_or_cityhashImLm64EE29__weak_hash_len_32_with_seedsB8ue170006EPKcmm, symObjAddr: 0x6680, symBinAddr: 0x100023018, symSize: 0x88 }
  - { offsetInCU: 0xB0FF, offset: 0x73AFA, size: 0x8, addend: 0x0, symName: __ZNSt3__121__murmur2_or_cityhashImLm64EE8__rotateB8ue170006Emi, symObjAddr: 0x6708, symBinAddr: 0x1000230A0, symSize: 0x64 }
  - { offsetInCU: 0xB130, offset: 0x73B2B, size: 0x8, addend: 0x0, symName: __ZNSt3__14pairImmEaSB8ue170006EOS1_, symObjAddr: 0x676C, symBinAddr: 0x100023104, symSize: 0x30 }
  - { offsetInCU: 0xB166, offset: 0x73B61, size: 0x8, addend: 0x0, symName: __ZNSt3__121__murmur2_or_cityhashImLm64EE11__shift_mixB8ue170006Em, symObjAddr: 0x67D8, symBinAddr: 0x100023170, symSize: 0x1C }
  - { offsetInCU: 0xB189, offset: 0x73B84, size: 0x8, addend: 0x0, symName: __ZNSt3__121__murmur2_or_cityhashImLm64EE22__rotate_by_at_least_1B8ue170006Emi, symObjAddr: 0x67F4, symBinAddr: 0x10002318C, symSize: 0x38 }
  - { offsetInCU: 0xB1BA, offset: 0x73BB5, size: 0x8, addend: 0x0, symName: __ZNSt3__121__murmur2_or_cityhashImLm64EE29__weak_hash_len_32_with_seedsB8ue170006Emmmmmm, symObjAddr: 0x684C, symBinAddr: 0x1000231E4, symSize: 0xD8 }
  - { offsetInCU: 0xB237, offset: 0x73C32, size: 0x8, addend: 0x0, symName: __ZNSt3__14pairImmEC1B8ue170006ImmLPv0EEEOT_OT0_, symObjAddr: 0x6924, symBinAddr: 0x1000232BC, symSize: 0x3C }
  - { offsetInCU: 0xB295, offset: 0x73C90, size: 0x8, addend: 0x0, symName: __ZNSt3__14pairImmEC2B8ue170006ImmLPv0EEEOT_OT0_, symObjAddr: 0x6960, symBinAddr: 0x1000232F8, symSize: 0x34 }
  - { offsetInCU: 0xB2F3, offset: 0x73CEE, size: 0x8, addend: 0x0, symName: __ZNKSt3__110unique_ptrIA_PNS_16__hash_node_baseIPNS_11__hash_nodeINS_17__hash_value_typeINS_17basic_string_viewIcNS_11char_traitsIcEEEEN3xpf5ColorEEEPvEEEENS_25__bucket_list_deallocatorINS_9allocatorISF_EEEEE11get_deleterB8ue170006Ev, symObjAddr: 0x6994, symBinAddr: 0x10002332C, symSize: 0x24 }
  - { offsetInCU: 0xB319, offset: 0x73D14, size: 0x8, addend: 0x0, symName: __ZNKSt3__125__bucket_list_deallocatorINS_9allocatorIPNS_16__hash_node_baseIPNS_11__hash_nodeINS_17__hash_value_typeINS_17basic_string_viewIcNS_11char_traitsIcEEEEN3xpf5ColorEEEPvEEEEEEE4sizeB8ue170006Ev, symObjAddr: 0x69B8, symBinAddr: 0x100023350, symSize: 0x28 }
  - { offsetInCU: 0xB33F, offset: 0x73D3A, size: 0x8, addend: 0x0, symName: __ZNKSt3__117__compressed_pairIPPNS_16__hash_node_baseIPNS_11__hash_nodeINS_17__hash_value_typeINS_17basic_string_viewIcNS_11char_traitsIcEEEEN3xpf5ColorEEEPvEEEENS_25__bucket_list_deallocatorINS_9allocatorISF_EEEEE6secondB8ue170006Ev, symObjAddr: 0x69E0, symBinAddr: 0x100023378, symSize: 0x28 }
  - { offsetInCU: 0xB365, offset: 0x73D60, size: 0x8, addend: 0x0, symName: __ZNKSt3__122__compressed_pair_elemINS_25__bucket_list_deallocatorINS_9allocatorIPNS_16__hash_node_baseIPNS_11__hash_nodeINS_17__hash_value_typeINS_17basic_string_viewIcNS_11char_traitsIcEEEEN3xpf5ColorEEEPvEEEEEEEELi1ELb0EE5__getB8ue170006Ev, symObjAddr: 0x6A08, symBinAddr: 0x1000233A0, symSize: 0x14 }
  - { offsetInCU: 0xB38B, offset: 0x73D86, size: 0x8, addend: 0x0, symName: __ZNKSt3__117__compressed_pairImNS_9allocatorIPNS_16__hash_node_baseIPNS_11__hash_nodeINS_17__hash_value_typeINS_17basic_string_viewIcNS_11char_traitsIcEEEEN3xpf5ColorEEEPvEEEEEEE5firstB8ue170006Ev, symObjAddr: 0x6A1C, symBinAddr: 0x1000233B4, symSize: 0x24 }
  - { offsetInCU: 0xB3B1, offset: 0x73DAC, size: 0x8, addend: 0x0, symName: __ZNKSt3__122__compressed_pair_elemImLi0ELb0EE5__getB8ue170006Ev, symObjAddr: 0x6A40, symBinAddr: 0x1000233D8, symSize: 0x14 }
  - { offsetInCU: 0xB3D7, offset: 0x73DD2, size: 0x8, addend: 0x0, symName: __ZNKSt3__117__compressed_pairIPPNS_16__hash_node_baseIPNS_11__hash_nodeINS_17__hash_value_typeINS_17basic_string_viewIcNS_11char_traitsIcEEEEN3xpf5ColorEEEPvEEEENS_25__bucket_list_deallocatorINS_9allocatorISF_EEEEE5firstB8ue170006Ev, symObjAddr: 0x6A54, symBinAddr: 0x1000233EC, symSize: 0x24 }
  - { offsetInCU: 0xB3FD, offset: 0x73DF8, size: 0x8, addend: 0x0, symName: __ZNKSt3__122__compressed_pair_elemIPPNS_16__hash_node_baseIPNS_11__hash_nodeINS_17__hash_value_typeINS_17basic_string_viewIcNS_11char_traitsIcEEEEN3xpf5ColorEEEPvEEEELi0ELb0EE5__getB8ue170006Ev, symObjAddr: 0x6A78, symBinAddr: 0x100023410, symSize: 0x14 }
  - { offsetInCU: 0xB423, offset: 0x73E1E, size: 0x8, addend: 0x0, symName: __ZNSt3__117__compressed_pairIfNS_21__unordered_map_equalINS_17basic_string_viewIcNS_11char_traitsIcEEEENS_17__hash_value_typeIS5_N3xpf5ColorEEENS_8equal_toIS5_EENS_4hashIS5_EELb1EEEE6secondB8ue170006Ev, symObjAddr: 0x6A8C, symBinAddr: 0x100023424, symSize: 0x24 }
  - { offsetInCU: 0xB449, offset: 0x73E44, size: 0x8, addend: 0x0, symName: __ZNSt3__122__compressed_pair_elemINS_21__unordered_map_equalINS_17basic_string_viewIcNS_11char_traitsIcEEEENS_17__hash_value_typeIS5_N3xpf5ColorEEENS_8equal_toIS5_EENS_4hashIS5_EELb1EEELi1ELb1EE5__getB8ue170006Ev, symObjAddr: 0x6AB0, symBinAddr: 0x100023448, symSize: 0x14 }
  - { offsetInCU: 0xB46F, offset: 0x73E6A, size: 0x8, addend: 0x0, symName: __ZNKSt3__18equal_toINS_17basic_string_viewIcNS_11char_traitsIcEEEEEclB8ue170006ERKS4_S7_, symObjAddr: 0x6AC4, symBinAddr: 0x10002345C, symSize: 0x54 }
  - { offsetInCU: 0xB4B5, offset: 0x73EB0, size: 0x8, addend: 0x0, symName: __ZNKSt3__117__hash_value_typeINS_17basic_string_viewIcNS_11char_traitsIcEEEEN3xpf5ColorEE11__get_valueB8ue170006Ev, symObjAddr: 0x6B18, symBinAddr: 0x1000234B0, symSize: 0x24 }
  - { offsetInCU: 0xB4DB, offset: 0x73ED6, size: 0x8, addend: 0x0, symName: __ZNKSt3__117basic_string_viewIcNS_11char_traitsIcEEE7compareES3_, symObjAddr: 0x6BEC, symBinAddr: 0x100023584, symSize: 0x13C }
  - { offsetInCU: 0xB531, offset: 0x73F2C, size: 0x8, addend: 0x0, symName: __ZNSt3__111char_traitsIcE7compareB8ue170006EPKcS3_m, symObjAddr: 0x6D28, symBinAddr: 0x1000236C0, symSize: 0x34 }
  - { offsetInCU: 0xB570, offset: 0x73F6B, size: 0x8, addend: 0x0, symName: __ZNSt3__114pointer_traitsIPNS_16__hash_node_baseIPNS_11__hash_nodeINS_17__hash_value_typeINS_17basic_string_viewIcNS_11char_traitsIcEEEEN3xpf5ColorEEEPvEEEEE10pointer_toB8ue170006ERSE_, symObjAddr: 0x6D94, symBinAddr: 0x10002372C, symSize: 0x14 }
  - { offsetInCU: 0xB593, offset: 0x73F8E, size: 0x8, addend: 0x0, symName: __ZNSt3__112__hash_tableINS_17__hash_value_typeINS_17basic_string_viewIcNS_11char_traitsIcEEEEN3xpf5ColorEEENS_22__unordered_map_hasherIS5_S8_NS_4hashIS5_EENS_8equal_toIS5_EELb1EEENS_21__unordered_map_equalIS5_S8_SD_SB_Lb1EEENS_9allocatorIS8_EEE12__node_allocB8ue170006Ev, symObjAddr: 0x6DA8, symBinAddr: 0x100023740, symSize: 0x28 }
  - { offsetInCU: 0xB5B9, offset: 0x73FB4, size: 0x8, addend: 0x0, symName: __ZNSt3__116allocator_traitsINS_9allocatorINS_11__hash_nodeINS_17__hash_value_typeINS_17basic_string_viewIcNS_11char_traitsIcEEEEN3xpf5ColorEEEPvEEEEE8allocateB8ue170006ERSD_m, symObjAddr: 0x6DD0, symBinAddr: 0x100023768, symSize: 0x2C }
  - { offsetInCU: 0xB5EE, offset: 0x73FE9, size: 0x8, addend: 0x0, symName: __ZNSt3__122__hash_node_destructorINS_9allocatorINS_11__hash_nodeINS_17__hash_value_typeINS_17basic_string_viewIcNS_11char_traitsIcEEEEN3xpf5ColorEEEPvEEEEEC1B8ue170006ERSD_b, symObjAddr: 0x6DFC, symBinAddr: 0x100023794, symSize: 0x48 }
  - { offsetInCU: 0xB63E, offset: 0x74039, size: 0x8, addend: 0x0, symName: __ZNSt3__110unique_ptrINS_11__hash_nodeINS_17__hash_value_typeINS_17basic_string_viewIcNS_11char_traitsIcEEEEN3xpf5ColorEEEPvEENS_22__hash_node_destructorINS_9allocatorISB_EEEEEC1B8ue170006ILb1EvEEPSB_NS_16__dependent_typeINS_27__unique_ptr_deleter_sfinaeISF_EEXT_EE20__good_rval_ref_typeE, symObjAddr: 0x6E44, symBinAddr: 0x1000237DC, symSize: 0x3C }
  - { offsetInCU: 0xB68F, offset: 0x7408A, size: 0x8, addend: 0x0, symName: __ZNSt3__116allocator_traitsINS_9allocatorINS_11__hash_nodeINS_17__hash_value_typeINS_17basic_string_viewIcNS_11char_traitsIcEEEEN3xpf5ColorEEEPvEEEEE9constructB8ue170006INS_4pairIKS7_S9_EEJRKSI_EvvEEvRSD_PT_DpOT0_, symObjAddr: 0x6E80, symBinAddr: 0x100023818, symSize: 0x30 }
  - { offsetInCU: 0xB6E6, offset: 0x740E1, size: 0x8, addend: 0x0, symName: __ZNSt3__122__hash_key_value_typesINS_17__hash_value_typeINS_17basic_string_viewIcNS_11char_traitsIcEEEEN3xpf5ColorEEEE9__get_ptrB8ue170006ERS8_, symObjAddr: 0x6EB0, symBinAddr: 0x100023848, symSize: 0x24 }
  - { offsetInCU: 0xB709, offset: 0x74104, size: 0x8, addend: 0x0, symName: __ZNSt3__110unique_ptrINS_11__hash_nodeINS_17__hash_value_typeINS_17basic_string_viewIcNS_11char_traitsIcEEEEN3xpf5ColorEEEPvEENS_22__hash_node_destructorINS_9allocatorISB_EEEEE11get_deleterB8ue170006Ev, symObjAddr: 0x6ED4, symBinAddr: 0x10002386C, symSize: 0x24 }
  - { offsetInCU: 0xB72F, offset: 0x7412A, size: 0x8, addend: 0x0, symName: __ZNSt3__117__compressed_pairINS_16__hash_node_baseIPNS_11__hash_nodeINS_17__hash_value_typeINS_17basic_string_viewIcNS_11char_traitsIcEEEEN3xpf5ColorEEEPvEEEENS_9allocatorISC_EEE6secondB8ue170006Ev, symObjAddr: 0x6EF8, symBinAddr: 0x100023890, symSize: 0x24 }
  - { offsetInCU: 0xB755, offset: 0x74150, size: 0x8, addend: 0x0, symName: __ZNSt3__122__compressed_pair_elemINS_9allocatorINS_11__hash_nodeINS_17__hash_value_typeINS_17basic_string_viewIcNS_11char_traitsIcEEEEN3xpf5ColorEEEPvEEEELi1ELb1EE5__getB8ue170006Ev, symObjAddr: 0x6F1C, symBinAddr: 0x1000238B4, symSize: 0x14 }
  - { offsetInCU: 0xB77B, offset: 0x74176, size: 0x8, addend: 0x0, symName: __ZNSt3__19allocatorINS_11__hash_nodeINS_17__hash_value_typeINS_17basic_string_viewIcNS_11char_traitsIcEEEEN3xpf5ColorEEEPvEEE8allocateB8ue170006Em, symObjAddr: 0x6F30, symBinAddr: 0x1000238C8, symSize: 0x5C }
  - { offsetInCU: 0xB7BA, offset: 0x741B5, size: 0x8, addend: 0x0, symName: __ZNSt3__116allocator_traitsINS_9allocatorINS_11__hash_nodeINS_17__hash_value_typeINS_17basic_string_viewIcNS_11char_traitsIcEEEEN3xpf5ColorEEEPvEEEEE8max_sizeB8ue170006ISD_vvEEmRKSD_, symObjAddr: 0x6F8C, symBinAddr: 0x100023924, symSize: 0x28 }
  - { offsetInCU: 0xB7E6, offset: 0x741E1, size: 0x8, addend: 0x0, symName: __ZNSt3__122__hash_node_destructorINS_9allocatorINS_11__hash_nodeINS_17__hash_value_typeINS_17basic_string_viewIcNS_11char_traitsIcEEEEN3xpf5ColorEEEPvEEEEEC2B8ue170006ERSD_b, symObjAddr: 0x6FB4, symBinAddr: 0x10002394C, symSize: 0x38 }
  - { offsetInCU: 0xB830, offset: 0x7422B, size: 0x8, addend: 0x0, symName: __ZNSt3__110unique_ptrINS_11__hash_nodeINS_17__hash_value_typeINS_17basic_string_viewIcNS_11char_traitsIcEEEEN3xpf5ColorEEEPvEENS_22__hash_node_destructorINS_9allocatorISB_EEEEEC2B8ue170006ILb1EvEEPSB_NS_16__dependent_typeINS_27__unique_ptr_deleter_sfinaeISF_EEXT_EE20__good_rval_ref_typeE, symObjAddr: 0x6FEC, symBinAddr: 0x100023984, symSize: 0x48 }
  - { offsetInCU: 0xB881, offset: 0x7427C, size: 0x8, addend: 0x0, symName: __ZNSt3__117__compressed_pairIPNS_11__hash_nodeINS_17__hash_value_typeINS_17basic_string_viewIcNS_11char_traitsIcEEEEN3xpf5ColorEEEPvEENS_22__hash_node_destructorINS_9allocatorISB_EEEEEC1B8ue170006IRSC_SG_EEOT_OT0_, symObjAddr: 0x7034, symBinAddr: 0x1000239CC, symSize: 0x3C }
  - { offsetInCU: 0xB8D9, offset: 0x742D4, size: 0x8, addend: 0x0, symName: __ZNSt3__117__compressed_pairIPNS_11__hash_nodeINS_17__hash_value_typeINS_17basic_string_viewIcNS_11char_traitsIcEEEEN3xpf5ColorEEEPvEENS_22__hash_node_destructorINS_9allocatorISB_EEEEEC2B8ue170006IRSC_SG_EEOT_OT0_, symObjAddr: 0x7070, symBinAddr: 0x100023A08, symSize: 0x48 }
  - { offsetInCU: 0xB931, offset: 0x7432C, size: 0x8, addend: 0x0, symName: __ZNSt3__122__compressed_pair_elemIPNS_11__hash_nodeINS_17__hash_value_typeINS_17basic_string_viewIcNS_11char_traitsIcEEEEN3xpf5ColorEEEPvEELi0ELb0EEC2B8ue170006IRSC_vEEOT_, symObjAddr: 0x70B8, symBinAddr: 0x100023A50, symSize: 0x24 }
  - { offsetInCU: 0xB973, offset: 0x7436E, size: 0x8, addend: 0x0, symName: __ZNSt3__122__compressed_pair_elemINS_22__hash_node_destructorINS_9allocatorINS_11__hash_nodeINS_17__hash_value_typeINS_17basic_string_viewIcNS_11char_traitsIcEEEEN3xpf5ColorEEEPvEEEEEELi1ELb0EEC2B8ue170006ISF_vEEOT_, symObjAddr: 0x70DC, symBinAddr: 0x100023A74, symSize: 0x24 }
  - { offsetInCU: 0xB9B5, offset: 0x743B0, size: 0x8, addend: 0x0, symName: __ZNSt3__117__hash_value_typeINS_17basic_string_viewIcNS_11char_traitsIcEEEEN3xpf5ColorEE11__get_valueB8ue170006Ev, symObjAddr: 0x7134, symBinAddr: 0x100023ACC, symSize: 0x24 }
  - { offsetInCU: 0xB9DB, offset: 0x743D6, size: 0x8, addend: 0x0, symName: __ZNSt3__117__compressed_pairIPNS_11__hash_nodeINS_17__hash_value_typeINS_17basic_string_viewIcNS_11char_traitsIcEEEEN3xpf5ColorEEEPvEENS_22__hash_node_destructorINS_9allocatorISB_EEEEE6secondB8ue170006Ev, symObjAddr: 0x7190, symBinAddr: 0x100023B28, symSize: 0x28 }
  - { offsetInCU: 0xBA01, offset: 0x743FC, size: 0x8, addend: 0x0, symName: __ZNSt3__122__compressed_pair_elemINS_22__hash_node_destructorINS_9allocatorINS_11__hash_nodeINS_17__hash_value_typeINS_17basic_string_viewIcNS_11char_traitsIcEEEEN3xpf5ColorEEEPvEEEEEELi1ELb0EE5__getB8ue170006Ev, symObjAddr: 0x71B8, symBinAddr: 0x100023B50, symSize: 0x14 }
  - { offsetInCU: 0xBA27, offset: 0x74422, size: 0x8, addend: 0x0, symName: __ZNSt3__117__compressed_pairImNS_22__unordered_map_hasherINS_17basic_string_viewIcNS_11char_traitsIcEEEENS_17__hash_value_typeIS5_N3xpf5ColorEEENS_4hashIS5_EENS_8equal_toIS5_EELb1EEEE5firstB8ue170006Ev, symObjAddr: 0x71CC, symBinAddr: 0x100023B64, symSize: 0x24 }
  - { offsetInCU: 0xBA4D, offset: 0x74448, size: 0x8, addend: 0x0, symName: __ZNSt3__117__compressed_pairIfNS_21__unordered_map_equalINS_17basic_string_viewIcNS_11char_traitsIcEEEENS_17__hash_value_typeIS5_N3xpf5ColorEEENS_8equal_toIS5_EENS_4hashIS5_EELb1EEEE5firstB8ue170006Ev, symObjAddr: 0x7204, symBinAddr: 0x100023B88, symSize: 0x24 }
  - { offsetInCU: 0xBA73, offset: 0x7446E, size: 0x8, addend: 0x0, symName: __ZNSt3__122__compressed_pair_elemIfLi0ELb0EE5__getB8ue170006Ev, symObjAddr: 0x7228, symBinAddr: 0x100023BAC, symSize: 0x14 }
  - { offsetInCU: 0xBA99, offset: 0x74494, size: 0x8, addend: 0x0, symName: __ZNSt3__112__hash_tableINS_17__hash_value_typeINS_17basic_string_viewIcNS_11char_traitsIcEEEEN3xpf5ColorEEENS_22__unordered_map_hasherIS5_S8_NS_4hashIS5_EENS_8equal_toIS5_EELb1EEENS_21__unordered_map_equalIS5_S8_SD_SB_Lb1EEENS_9allocatorIS8_EEE8__rehashILb1EEEvm, symObjAddr: 0x723C, symBinAddr: 0x100023BC0, symSize: 0x1A8 }
  - { offsetInCU: 0xBAEB, offset: 0x744E6, size: 0x8, addend: 0x0, symName: __ZNSt3__112__hash_tableINS_17__hash_value_typeINS_17basic_string_viewIcNS_11char_traitsIcEEEEN3xpf5ColorEEENS_22__unordered_map_hasherIS5_S8_NS_4hashIS5_EENS_8equal_toIS5_EELb1EEENS_21__unordered_map_equalIS5_S8_SD_SB_Lb1EEENS_9allocatorIS8_EEE11__do_rehashILb1EEEvm, symObjAddr: 0x73E4, symBinAddr: 0x100023D68, symSize: 0x288 }
  - { offsetInCU: 0xBBD6, offset: 0x745D1, size: 0x8, addend: 0x0, symName: __ZNSt3__110unique_ptrIA_PNS_16__hash_node_baseIPNS_11__hash_nodeINS_17__hash_value_typeINS_17basic_string_viewIcNS_11char_traitsIcEEEEN3xpf5ColorEEEPvEEEENS_25__bucket_list_deallocatorINS_9allocatorISF_EEEEE11get_deleterB8ue170006Ev, symObjAddr: 0x76D8, symBinAddr: 0x10002405C, symSize: 0x24 }
  - { offsetInCU: 0xBBFC, offset: 0x745F7, size: 0x8, addend: 0x0, symName: __ZNSt3__125__bucket_list_deallocatorINS_9allocatorIPNS_16__hash_node_baseIPNS_11__hash_nodeINS_17__hash_value_typeINS_17basic_string_viewIcNS_11char_traitsIcEEEEN3xpf5ColorEEEPvEEEEEEE7__allocB8ue170006Ev, symObjAddr: 0x76FC, symBinAddr: 0x100024080, symSize: 0x24 }
  - { offsetInCU: 0xBC22, offset: 0x7461D, size: 0x8, addend: 0x0, symName: __ZNSt3__110unique_ptrIA_PNS_16__hash_node_baseIPNS_11__hash_nodeINS_17__hash_value_typeINS_17basic_string_viewIcNS_11char_traitsIcEEEEN3xpf5ColorEEEPvEEEENS_25__bucket_list_deallocatorINS_9allocatorISF_EEEEE5resetB8ue170006IPSF_EENS_9enable_ifIXsr28_CheckArrayPointerConversionIT_EE5valueEvE4typeESP_, symObjAddr: 0x7720, symBinAddr: 0x1000240A4, symSize: 0x78 }
  - { offsetInCU: 0xBC71, offset: 0x7466C, size: 0x8, addend: 0x0, symName: __ZNSt3__116allocator_traitsINS_9allocatorIPNS_16__hash_node_baseIPNS_11__hash_nodeINS_17__hash_value_typeINS_17basic_string_viewIcNS_11char_traitsIcEEEEN3xpf5ColorEEEPvEEEEEEE8allocateB8ue170006ERSH_m, symObjAddr: 0x7798, symBinAddr: 0x10002411C, symSize: 0x2C }
  - { offsetInCU: 0xBCA6, offset: 0x746A1, size: 0x8, addend: 0x0, symName: __ZNSt3__125__bucket_list_deallocatorINS_9allocatorIPNS_16__hash_node_baseIPNS_11__hash_nodeINS_17__hash_value_typeINS_17basic_string_viewIcNS_11char_traitsIcEEEEN3xpf5ColorEEEPvEEEEEEE4sizeB8ue170006Ev, symObjAddr: 0x77C4, symBinAddr: 0x100024148, symSize: 0x24 }
  - { offsetInCU: 0xBCCC, offset: 0x746C7, size: 0x8, addend: 0x0, symName: __ZNSt3__117__compressed_pairIPPNS_16__hash_node_baseIPNS_11__hash_nodeINS_17__hash_value_typeINS_17basic_string_viewIcNS_11char_traitsIcEEEEN3xpf5ColorEEEPvEEEENS_25__bucket_list_deallocatorINS_9allocatorISF_EEEEE6secondB8ue170006Ev, symObjAddr: 0x77E8, symBinAddr: 0x10002416C, symSize: 0x28 }
  - { offsetInCU: 0xBCF2, offset: 0x746ED, size: 0x8, addend: 0x0, symName: __ZNSt3__122__compressed_pair_elemINS_25__bucket_list_deallocatorINS_9allocatorIPNS_16__hash_node_baseIPNS_11__hash_nodeINS_17__hash_value_typeINS_17basic_string_viewIcNS_11char_traitsIcEEEEN3xpf5ColorEEEPvEEEEEEEELi1ELb0EE5__getB8ue170006Ev, symObjAddr: 0x7810, symBinAddr: 0x100024194, symSize: 0x14 }
  - { offsetInCU: 0xBD18, offset: 0x74713, size: 0x8, addend: 0x0, symName: __ZNSt3__117__compressed_pairImNS_9allocatorIPNS_16__hash_node_baseIPNS_11__hash_nodeINS_17__hash_value_typeINS_17basic_string_viewIcNS_11char_traitsIcEEEEN3xpf5ColorEEEPvEEEEEEE6secondB8ue170006Ev, symObjAddr: 0x7824, symBinAddr: 0x1000241A8, symSize: 0x24 }
  - { offsetInCU: 0xBD3E, offset: 0x74739, size: 0x8, addend: 0x0, symName: __ZNSt3__122__compressed_pair_elemINS_9allocatorIPNS_16__hash_node_baseIPNS_11__hash_nodeINS_17__hash_value_typeINS_17basic_string_viewIcNS_11char_traitsIcEEEEN3xpf5ColorEEEPvEEEEEELi1ELb1EE5__getB8ue170006Ev, symObjAddr: 0x7848, symBinAddr: 0x1000241CC, symSize: 0x14 }
  - { offsetInCU: 0xBD64, offset: 0x7475F, size: 0x8, addend: 0x0, symName: __ZNSt3__117__compressed_pairIPPNS_16__hash_node_baseIPNS_11__hash_nodeINS_17__hash_value_typeINS_17basic_string_viewIcNS_11char_traitsIcEEEEN3xpf5ColorEEEPvEEEENS_25__bucket_list_deallocatorINS_9allocatorISF_EEEEE5firstB8ue170006Ev, symObjAddr: 0x785C, symBinAddr: 0x1000241E0, symSize: 0x24 }
  - { offsetInCU: 0xBD8A, offset: 0x74785, size: 0x8, addend: 0x0, symName: __ZNSt3__125__bucket_list_deallocatorINS_9allocatorIPNS_16__hash_node_baseIPNS_11__hash_nodeINS_17__hash_value_typeINS_17basic_string_viewIcNS_11char_traitsIcEEEEN3xpf5ColorEEEPvEEEEEEEclB8ue170006EPSG_, symObjAddr: 0x7880, symBinAddr: 0x100024204, symSize: 0x58 }
  - { offsetInCU: 0xBDC0, offset: 0x747BB, size: 0x8, addend: 0x0, symName: __ZNSt3__122__compressed_pair_elemIPPNS_16__hash_node_baseIPNS_11__hash_nodeINS_17__hash_value_typeINS_17basic_string_viewIcNS_11char_traitsIcEEEEN3xpf5ColorEEEPvEEEELi0ELb0EE5__getB8ue170006Ev, symObjAddr: 0x78D8, symBinAddr: 0x10002425C, symSize: 0x14 }
  - { offsetInCU: 0xBDE6, offset: 0x747E1, size: 0x8, addend: 0x0, symName: __ZNSt3__116allocator_traitsINS_9allocatorIPNS_16__hash_node_baseIPNS_11__hash_nodeINS_17__hash_value_typeINS_17basic_string_viewIcNS_11char_traitsIcEEEEN3xpf5ColorEEEPvEEEEEEE10deallocateB8ue170006ERSH_PSG_m, symObjAddr: 0x78EC, symBinAddr: 0x100024270, symSize: 0x34 }
  - { offsetInCU: 0xBE2B, offset: 0x74826, size: 0x8, addend: 0x0, symName: __ZNSt3__19allocatorIPNS_16__hash_node_baseIPNS_11__hash_nodeINS_17__hash_value_typeINS_17basic_string_viewIcNS_11char_traitsIcEEEEN3xpf5ColorEEEPvEEEEE10deallocateB8ue170006EPSF_m, symObjAddr: 0x7920, symBinAddr: 0x1000242A4, symSize: 0x40 }
  - { offsetInCU: 0xBE6D, offset: 0x74868, size: 0x8, addend: 0x0, symName: __ZNSt3__19allocatorIPNS_16__hash_node_baseIPNS_11__hash_nodeINS_17__hash_value_typeINS_17basic_string_viewIcNS_11char_traitsIcEEEEN3xpf5ColorEEEPvEEEEE8allocateB8ue170006Em, symObjAddr: 0x7960, symBinAddr: 0x1000242E4, symSize: 0x58 }
  - { offsetInCU: 0xBEAC, offset: 0x748A7, size: 0x8, addend: 0x0, symName: __ZNSt3__116allocator_traitsINS_9allocatorIPNS_16__hash_node_baseIPNS_11__hash_nodeINS_17__hash_value_typeINS_17basic_string_viewIcNS_11char_traitsIcEEEEN3xpf5ColorEEEPvEEEEEEE8max_sizeB8ue170006ISH_vvEEmRKSH_, symObjAddr: 0x79B8, symBinAddr: 0x10002433C, symSize: 0x28 }
  - { offsetInCU: 0xBED8, offset: 0x748D3, size: 0x8, addend: 0x0, symName: __ZNSt3__117__compressed_pairImNS_9allocatorIPNS_16__hash_node_baseIPNS_11__hash_nodeINS_17__hash_value_typeINS_17basic_string_viewIcNS_11char_traitsIcEEEEN3xpf5ColorEEEPvEEEEEEE5firstB8ue170006Ev, symObjAddr: 0x79E0, symBinAddr: 0x100024364, symSize: 0x24 }
  - { offsetInCU: 0xBEFE, offset: 0x748F9, size: 0x8, addend: 0x0, symName: __ZNSt3__122__compressed_pair_elemINS_16__hash_node_baseIPNS_11__hash_nodeINS_17__hash_value_typeINS_17basic_string_viewIcNS_11char_traitsIcEEEEN3xpf5ColorEEEPvEEEELi0ELb0EE5__getB8ue170006Ev, symObjAddr: 0x7A20, symBinAddr: 0x1000243A4, symSize: 0x14 }
  - { offsetInCU: 0xBF24, offset: 0x7491F, size: 0x8, addend: 0x0, symName: __ZNKSt3__117__compressed_pairIPNS_11__hash_nodeINS_17__hash_value_typeINS_17basic_string_viewIcNS_11char_traitsIcEEEEN3xpf5ColorEEEPvEENS_22__hash_node_destructorINS_9allocatorISB_EEEEE5firstB8ue170006Ev, symObjAddr: 0x7A34, symBinAddr: 0x1000243B8, symSize: 0x24 }
  - { offsetInCU: 0xBF4A, offset: 0x74945, size: 0x8, addend: 0x0, symName: __ZNKSt3__122__compressed_pair_elemIPNS_11__hash_nodeINS_17__hash_value_typeINS_17basic_string_viewIcNS_11char_traitsIcEEEEN3xpf5ColorEEEPvEELi0ELb0EE5__getB8ue170006Ev, symObjAddr: 0x7A58, symBinAddr: 0x1000243DC, symSize: 0x14 }
  - { offsetInCU: 0xBF70, offset: 0x7496B, size: 0x8, addend: 0x0, symName: __ZNSt3__117__compressed_pairIPNS_11__hash_nodeINS_17__hash_value_typeINS_17basic_string_viewIcNS_11char_traitsIcEEEEN3xpf5ColorEEEPvEENS_22__hash_node_destructorINS_9allocatorISB_EEEEE5firstB8ue170006Ev, symObjAddr: 0x7A6C, symBinAddr: 0x1000243F0, symSize: 0x24 }
  - { offsetInCU: 0xBF96, offset: 0x74991, size: 0x8, addend: 0x0, symName: __ZNSt3__122__compressed_pair_elemIPNS_11__hash_nodeINS_17__hash_value_typeINS_17basic_string_viewIcNS_11char_traitsIcEEEEN3xpf5ColorEEEPvEELi0ELb0EE5__getB8ue170006Ev, symObjAddr: 0x7A90, symBinAddr: 0x100024414, symSize: 0x14 }
  - { offsetInCU: 0xBFBC, offset: 0x749B7, size: 0x8, addend: 0x0, symName: __ZNSt3__110unique_ptrINS_11__hash_nodeINS_17__hash_value_typeINS_17basic_string_viewIcNS_11char_traitsIcEEEEN3xpf5ColorEEEPvEENS_22__hash_node_destructorINS_9allocatorISB_EEEEED2B8ue170006Ev, symObjAddr: 0x7AA4, symBinAddr: 0x100024428, symSize: 0x30 }
  - { offsetInCU: 0xBFE6, offset: 0x749E1, size: 0x8, addend: 0x0, symName: __ZNSt3__110unique_ptrINS_11__hash_nodeINS_17__hash_value_typeINS_17basic_string_viewIcNS_11char_traitsIcEEEEN3xpf5ColorEEEPvEENS_22__hash_node_destructorINS_9allocatorISB_EEEEE5resetB8ue170006EPSB_, symObjAddr: 0x7AD4, symBinAddr: 0x100024458, symSize: 0x78 }
  - { offsetInCU: 0xC02C, offset: 0x74A27, size: 0x8, addend: 0x0, symName: __ZNSt3__122__hash_node_destructorINS_9allocatorINS_11__hash_nodeINS_17__hash_value_typeINS_17basic_string_viewIcNS_11char_traitsIcEEEEN3xpf5ColorEEEPvEEEEEclB8ue170006EPSC_, symObjAddr: 0x7B4C, symBinAddr: 0x1000244D0, symSize: 0x98 }
  - { offsetInCU: 0xC062, offset: 0x74A5D, size: 0x8, addend: 0x0, symName: __ZNSt3__116allocator_traitsINS_9allocatorINS_11__hash_nodeINS_17__hash_value_typeINS_17basic_string_viewIcNS_11char_traitsIcEEEEN3xpf5ColorEEEPvEEEEE7destroyB8ue170006INS_4pairIKS7_S9_EEvvEEvRSD_PT_, symObjAddr: 0x7BE4, symBinAddr: 0x100024568, symSize: 0x28 }
  - { offsetInCU: 0xC09E, offset: 0x74A99, size: 0x8, addend: 0x0, symName: __ZNSt3__116allocator_traitsINS_9allocatorINS_11__hash_nodeINS_17__hash_value_typeINS_17basic_string_viewIcNS_11char_traitsIcEEEEN3xpf5ColorEEEPvEEEEE10deallocateB8ue170006ERSD_PSC_m, symObjAddr: 0x7C0C, symBinAddr: 0x100024590, symSize: 0x34 }
  - { offsetInCU: 0xC0E3, offset: 0x74ADE, size: 0x8, addend: 0x0, symName: __ZNSt3__19allocatorINS_11__hash_nodeINS_17__hash_value_typeINS_17basic_string_viewIcNS_11char_traitsIcEEEEN3xpf5ColorEEEPvEEE10deallocateB8ue170006EPSB_m, symObjAddr: 0x7C74, symBinAddr: 0x1000245F8, symSize: 0x44 }
  - { offsetInCU: 0xC125, offset: 0x74B20, size: 0x8, addend: 0x0, symName: __ZNSt3__115__hash_iteratorIPNS_11__hash_nodeINS_17__hash_value_typeINS_17basic_string_viewIcNS_11char_traitsIcEEEEN3xpf5ColorEEEPvEEEC2B8ue170006EPNS_16__hash_node_baseISC_EE, symObjAddr: 0x7CB8, symBinAddr: 0x10002463C, symSize: 0x20 }
  - { offsetInCU: 0xC15F, offset: 0x74B5A, size: 0x8, addend: 0x0, symName: __ZNSt3__14pairINS_15__hash_iteratorIPNS_11__hash_nodeINS_17__hash_value_typeINS_17basic_string_viewIcNS_11char_traitsIcEEEEN3xpf5ColorEEEPvEEEEbEC2B8ue170006ISE_RbLSB_0EEEOT_OT0_, symObjAddr: 0x7CD8, symBinAddr: 0x10002465C, symSize: 0x38 }
  - { offsetInCU: 0xC1BD, offset: 0x74BB8, size: 0x8, addend: 0x0, symName: __ZNSt3__112__hash_tableINS_17__hash_value_typeINS_17basic_string_viewIcNS_11char_traitsIcEEEEN3xpf5ColorEEENS_22__unordered_map_hasherIS5_S8_NS_4hashIS5_EENS_8equal_toIS5_EELb1EEENS_21__unordered_map_equalIS5_S8_SD_SB_Lb1EEENS_9allocatorIS8_EEED2Ev, symObjAddr: 0x7D10, symBinAddr: 0x100024694, symSize: 0x48 }
  - { offsetInCU: 0xC1E9, offset: 0x74BE4, size: 0x8, addend: 0x0, symName: __ZNSt3__112__hash_tableINS_17__hash_value_typeINS_17basic_string_viewIcNS_11char_traitsIcEEEEN3xpf5ColorEEENS_22__unordered_map_hasherIS5_S8_NS_4hashIS5_EENS_8equal_toIS5_EELb1EEENS_21__unordered_map_equalIS5_S8_SD_SB_Lb1EEENS_9allocatorIS8_EEE17__deallocate_nodeEPNS_16__hash_node_baseIPNS_11__hash_nodeIS8_PvEEEE, symObjAddr: 0x7D58, symBinAddr: 0x1000246DC, symSize: 0xA8 }
  - { offsetInCU: 0xC258, offset: 0x74C53, size: 0x8, addend: 0x0, symName: __ZNSt3__110unique_ptrIA_PNS_16__hash_node_baseIPNS_11__hash_nodeINS_17__hash_value_typeINS_17basic_string_viewIcNS_11char_traitsIcEEEEN3xpf5ColorEEEPvEEEENS_25__bucket_list_deallocatorINS_9allocatorISF_EEEEED1B8ue170006Ev, symObjAddr: 0x7E00, symBinAddr: 0x100024784, symSize: 0x2C }
  - { offsetInCU: 0xC282, offset: 0x74C7D, size: 0x8, addend: 0x0, symName: __ZNSt3__110unique_ptrIA_PNS_16__hash_node_baseIPNS_11__hash_nodeINS_17__hash_value_typeINS_17basic_string_viewIcNS_11char_traitsIcEEEEN3xpf5ColorEEEPvEEEENS_25__bucket_list_deallocatorINS_9allocatorISF_EEEEED2B8ue170006Ev, symObjAddr: 0x7E2C, symBinAddr: 0x1000247B0, symSize: 0x30 }
  - { offsetInCU: 0xC2AC, offset: 0x74CA7, size: 0x8, addend: 0x0, symName: __ZNSt3__110unique_ptrIA_PNS_16__hash_node_baseIPNS_11__hash_nodeINS_17__hash_value_typeINS_17basic_string_viewIcNS_11char_traitsIcEEEEN3xpf5ColorEEEPvEEEENS_25__bucket_list_deallocatorINS_9allocatorISF_EEEEE5resetB8ue170006EDn, symObjAddr: 0x7E5C, symBinAddr: 0x1000247E0, symSize: 0x6C }
  - { offsetInCU: 0xC2EE, offset: 0x74CE9, size: 0x8, addend: 0x0, symName: __ZNSt3__113unordered_mapINS_17basic_string_viewIcNS_11char_traitsIcEEEEN3xpf5ColorENS_4hashIS4_EENS_8equal_toIS4_EENS_9allocatorINS_4pairIKS4_S6_EEEEED2B8ue170006Ev, symObjAddr: 0x7EC8, symBinAddr: 0x10002484C, symSize: 0x2C }
